---
triple:          'arm64-apple-darwin'
binary-path:     game_exec
relocations:
  - { offset: 0x26, size: 0x8, addend: 0x0, symName: _main, symObjAddr: 0x0, symBinAddr: 0x100003904, symSize: 0x70 }
  - { offset: 0x33, size: 0x8, addend: 0x0, symName: _main, symObjAddr: 0x0, symBinAddr: 0x100003904, symSize: 0x70 }
  - { offset: 0x907B, size: 0x8, addend: 0x0, symName: __ZNSt3__119piecewise_constructE, symObjAddr: 0x27A14, symBinAddr: 0x10003674E, symSize: 0x0 }
  - { offset: 0x17A60, size: 0x8, addend: 0x0, symName: __ZNSt3__17advanceB8ne180100IPNS_12basic_stringIcNS_11char_traitsIcEENS_9allocatorIcEEEEllvEEvRT_T0_, symObjAddr: 0x8D98, symBinAddr: 0x10000C70C, symSize: 0x38 }
  - { offset: 0x2D5E7, size: 0x8, addend: 0x0, symName: __ZNSt3__17advanceB8ne180100INS_21__tree_const_iteratorINS_12__value_typeINS_12basic_stringIcNS_11char_traitsIcEENS_9allocatorIcEEEES8_EEPNS_11__tree_nodeIS9_PvEElEEllvEEvRT_T0_, symObjAddr: 0x11C98, symBinAddr: 0x10001560C, symSize: 0x38 }
  - { offset: 0x2D678, size: 0x8, addend: 0x0, symName: __ZNSt3__17advanceB8ne180100INS_21__tree_const_iteratorINS_12__value_typeINS_12basic_stringIcNS_11char_traitsIcEENS_9allocatorIcEEEE4roomEEPNS_11__tree_nodeISA_PvEElEEllvEEvRT_T0_, symObjAddr: 0x1586C, symBinAddr: 0x1000191E0, symSize: 0x38 }
  - { offset: 0x2D709, size: 0x8, addend: 0x0, symName: __ZNSt3__124__put_character_sequenceB8ne180100IcNS_11char_traitsIcEEEERNS_13basic_ostreamIT_T0_EES7_PKS4_m, symObjAddr: 0x1F2C0, symBinAddr: 0x100022C34, symSize: 0x1EC }
  - { offset: 0x2F3F3, size: 0x8, addend: 0x0, symName: __ZNSt3__1lsB8ne180100INS_11char_traitsIcEEEERNS_13basic_ostreamIcT_EES6_PKc, symObjAddr: 0x3050, symBinAddr: 0x1000069C4, symSize: 0x48 }
  - { offset: 0x2F43B, size: 0x8, addend: 0x0, symName: __ZNSt3__1lsB8ne180100IcNS_11char_traitsIcEENS_9allocatorIcEEEERNS_13basic_ostreamIT_T0_EES9_RKNS_12basic_stringIS6_S7_T1_EE, symObjAddr: 0x3144, symBinAddr: 0x100006AB8, symSize: 0x4C }
  - { offset: 0x2F495, size: 0x8, addend: 0x0, symName: __ZNSt3__1neB8ne180100ERKNS_20__map_const_iteratorINS_21__tree_const_iteratorINS_12__value_typeINS_12basic_stringIcNS_11char_traitsIcEENS_9allocatorIcEEEES8_EEPNS_11__tree_nodeIS9_PvEElEEEESH_, symObjAddr: 0x32B4, symBinAddr: 0x100006C28, symSize: 0x30 }
  - { offset: 0x2F4D4, size: 0x8, addend: 0x0, symName: __ZNSt3__13getB8ne180100ILm0EKNS_12basic_stringIcNS_11char_traitsIcEENS_9allocatorIcEEEES6_EERKNS_13tuple_elementIXT_ENS_4pairIT0_T1_EEE4typeERKSC_, symObjAddr: 0x330C, symBinAddr: 0x100006C80, symSize: 0x24 }
  - { offset: 0x2F51F, size: 0x8, addend: 0x0, symName: __ZNSt3__13getB8ne180100ILm1EKNS_12basic_stringIcNS_11char_traitsIcEENS_9allocatorIcEEEES6_EERKNS_13tuple_elementIXT_ENS_4pairIT0_T1_EEE4typeERKSC_, symObjAddr: 0x3330, symBinAddr: 0x100006CA4, symSize: 0x24 }
  - { offset: 0x2F56B, size: 0x8, addend: 0x0, symName: __ZNSt3__1neB8ne180100IPNS_12basic_stringIcNS_11char_traitsIcEENS_9allocatorIcEEEEEEbRKNS_11__wrap_iterIT_EESC_, symObjAddr: 0x348C, symBinAddr: 0x100006E00, symSize: 0x34 }
  - { offset: 0x2F5AE, size: 0x8, addend: 0x0, symName: __ZNSt3__17getlineB8ne180100IcNS_11char_traitsIcEENS_9allocatorIcEEEERNS_13basic_istreamIT_T0_EES9_RNS_12basic_stringIS6_S7_T1_EE, symObjAddr: 0x3904, symBinAddr: 0x100007278, symSize: 0x5C }
  - { offset: 0x307BC, size: 0x8, addend: 0x0, symName: __ZNSt3__17getlineB8ne180100IcNS_11char_traitsIcEENS_9allocatorIcEEEERNS_13basic_istreamIT_T0_EES9_RNS_12basic_stringIS6_S7_T1_EES6_, symObjAddr: 0x3CB4, symBinAddr: 0x100007628, symSize: 0x238 }
  - { offset: 0x3089B, size: 0x8, addend: 0x0, symName: __ZNSt3__19transformB8ne180100INS_11__wrap_iterIPcEES3_PFiiEEET0_T_S7_S6_T1_, symObjAddr: 0x4220, symBinAddr: 0x100007B94, symSize: 0x98 }
  - { offset: 0x3090D, size: 0x8, addend: 0x0, symName: __ZNSt3__19remove_ifB8ne180100INS_11__wrap_iterIPcEEPFiiEEET_S6_S6_T0_, symObjAddr: 0x4494, symBinAddr: 0x100007E08, symSize: 0x114 }
  - { offset: 0x30984, size: 0x8, addend: 0x0, symName: __ZNSt3__1eqB8ne180100IcNS_11char_traitsIcEENS_9allocatorIcEEEEbRKNS_12basic_stringIT_T0_T1_EEPKS6_, symObjAddr: 0x4630, symBinAddr: 0x100007FA4, symSize: 0xAC }
  - { offset: 0x309EF, size: 0x8, addend: 0x0, symName: __ZNSt3__14findB8ne180100INS_11__wrap_iterIPNS_12basic_stringIcNS_11char_traitsIcEENS_9allocatorIcEEEEEES7_EET_SA_SA_RKT0_, symObjAddr: 0x4B40, symBinAddr: 0x1000084B4, symSize: 0x78 }
  - { offset: 0x30AD2, size: 0x8, addend: 0x0, symName: __ZNSt3__1eqB8ne180100IPNS_12basic_stringIcNS_11char_traitsIcEENS_9allocatorIcEEEEEEbRKNS_11__wrap_iterIT_EESC_, symObjAddr: 0x50F0, symBinAddr: 0x100008A64, symSize: 0x48 }
  - { offset: 0x30B15, size: 0x8, addend: 0x0, symName: __ZNSt3__1neB8ne180100ERKNS_21__tree_const_iteratorINS_12__value_typeINS_12basic_stringIcNS_11char_traitsIcEENS_9allocatorIcEEEES7_EEPNS_11__tree_nodeIS8_PvEElEESF_, symObjAddr: 0x5600, symBinAddr: 0x100008F74, symSize: 0x34 }
  - { offset: 0x30B88, size: 0x8, addend: 0x0, symName: __ZNSt3__1eqB8ne180100ERKNS_21__tree_const_iteratorINS_12__value_typeINS_12basic_stringIcNS_11char_traitsIcEENS_9allocatorIcEEEES7_EEPNS_11__tree_nodeIS8_PvEElEESF_, symObjAddr: 0x59F0, symBinAddr: 0x100009364, symSize: 0x30 }
  - { offset: 0x30BC7, size: 0x8, addend: 0x0, symName: __ZNSt3__17launderB8ne180100IKNS_4pairIKNS_12basic_stringIcNS_11char_traitsIcEENS_9allocatorIcEEEES7_EEEEPT_SC_, symObjAddr: 0x5AEC, symBinAddr: 0x100009460, symSize: 0x24 }
  - { offset: 0x30C00, size: 0x8, addend: 0x0, symName: __ZNSt3__19__launderB8ne180100IKNS_4pairIKNS_12basic_stringIcNS_11char_traitsIcEENS_9allocatorIcEEEES7_EEEEPT_SC_, symObjAddr: 0x5B10, symBinAddr: 0x100009484, symSize: 0x14 }
  - { offset: 0x30C38, size: 0x8, addend: 0x0, symName: __ZNSt3__17launderB8ne180100INS_4pairIKNS_12basic_stringIcNS_11char_traitsIcEENS_9allocatorIcEEEES7_EEEEPT_SB_, symObjAddr: 0x5B84, symBinAddr: 0x1000094F8, symSize: 0x24 }
  - { offset: 0x30C71, size: 0x8, addend: 0x0, symName: __ZNSt3__19__launderB8ne180100INS_4pairIKNS_12basic_stringIcNS_11char_traitsIcEENS_9allocatorIcEEEES7_EEEEPT_SB_, symObjAddr: 0x5BA8, symBinAddr: 0x10000951C, symSize: 0x14 }
  - { offset: 0x30CA9, size: 0x8, addend: 0x0, symName: __ZNSt3__1ltB8ne180100IcNS_11char_traitsIcEENS_9allocatorIcEEEEbRKNS_12basic_stringIT_T0_T1_EESB_, symObjAddr: 0x5F40, symBinAddr: 0x1000098B4, symSize: 0x38 }
  - { offset: 0x30D04, size: 0x8, addend: 0x0, symName: __ZNSt3__13minB8ne180100ImEERKT_S3_S3_, symObjAddr: 0x6220, symBinAddr: 0x100009B94, symSize: 0x2C }
  - { offset: 0x30D48, size: 0x8, addend: 0x0, symName: __ZNSt3__112__to_addressB8ne180100IKcEEPT_S3_, symObjAddr: 0x6328, symBinAddr: 0x100009C9C, symSize: 0x14 }
  - { offset: 0x30DB1, size: 0x8, addend: 0x0, symName: __ZNSt3__13minB8ne180100ImNS_6__lessIvvEEEERKT_S5_S5_T0_, symObjAddr: 0x63F4, symBinAddr: 0x100009D68, symSize: 0x54 }
  - { offset: 0x30E53, size: 0x8, addend: 0x0, symName: __ZNSt3__127__tree_balance_after_insertB8ne180100IPNS_16__tree_node_baseIPvEEEEvT_S5_, symObjAddr: 0x64E4, symBinAddr: 0x100009E58, symSize: 0x32C }
  - { offset: 0x30ED6, size: 0x8, addend: 0x0, symName: __ZNSt3__120__tree_is_left_childB8ne180100IPNS_16__tree_node_baseIPvEEEEbT_, symObjAddr: 0x6828, symBinAddr: 0x10000A19C, symSize: 0x2C }
  - { offset: 0x30F0B, size: 0x8, addend: 0x0, symName: __ZNSt3__118__tree_left_rotateB8ne180100IPNS_16__tree_node_baseIPvEEEEvT_, symObjAddr: 0x6854, symBinAddr: 0x10000A1C8, symSize: 0xD8 }
  - { offset: 0x30F4B, size: 0x8, addend: 0x0, symName: __ZNSt3__119__tree_right_rotateB8ne180100IPNS_16__tree_node_baseIPvEEEEvT_, symObjAddr: 0x692C, symBinAddr: 0x10000A2A0, symSize: 0xCC }
  - { offset: 0x30F90, size: 0x8, addend: 0x0, symName: __ZNSt3__111__tree_leafB8ne180100IPNS_16__tree_node_baseIPvEEEET_S5_, symObjAddr: 0x6B28, symBinAddr: 0x10000A49C, symSize: 0x70 }
  - { offset: 0x30FC6, size: 0x8, addend: 0x0, symName: __ZNSt3__116__tree_next_iterB8ne180100IPNS_15__tree_end_nodeIPNS_16__tree_node_baseIPvEEEES5_EET_T0_, symObjAddr: 0x6B98, symBinAddr: 0x10000A50C, symSize: 0x80 }
  - { offset: 0x31005, size: 0x8, addend: 0x0, symName: __ZNSt3__110__tree_minB8ne180100IPNS_16__tree_node_baseIPvEEEET_S5_, symObjAddr: 0x6C18, symBinAddr: 0x10000A58C, symSize: 0x40 }
  - { offset: 0x3103A, size: 0x8, addend: 0x0, symName: __ZNSt3__112__destroy_atB8ne180100INS_4pairIKNS_12basic_stringIcNS_11char_traitsIcEENS_9allocatorIcEEEES7_EELi0EEEvPT_, symObjAddr: 0x6E80, symBinAddr: 0x10000A7F4, symSize: 0x24 }
  - { offset: 0x31072, size: 0x8, addend: 0x0, symName: __ZNSt3__119__libcpp_deallocateB8ne180100EPvmm, symObjAddr: 0x6F4C, symBinAddr: 0x10000A8C0, symSize: 0x60 }
  - { offset: 0x310DD, size: 0x8, addend: 0x0, symName: __ZNSt3__124__is_overaligned_for_newB8ne180100Em, symObjAddr: 0x6FAC, symBinAddr: 0x10000A920, symSize: 0x20 }
  - { offset: 0x3110D, size: 0x8, addend: 0x0, symName: __ZNSt3__127__do_deallocate_handle_sizeB8ne180100IJSt11align_val_tEEEvPvmDpT_, symObjAddr: 0x6FCC, symBinAddr: 0x10000A940, symSize: 0x30 }
  - { offset: 0x31164, size: 0x8, addend: 0x0, symName: __ZNSt3__127__do_deallocate_handle_sizeB8ne180100IJEEEvPvmDpT_, symObjAddr: 0x6FFC, symBinAddr: 0x10000A970, symSize: 0x28 }
  - { offset: 0x311A5, size: 0x8, addend: 0x0, symName: __ZNSt3__124__libcpp_operator_deleteB8ne180100IJPvSt11align_val_tEEEvDpT_, symObjAddr: 0x7024, symBinAddr: 0x10000A998, symSize: 0x2C }
  - { offset: 0x311F1, size: 0x8, addend: 0x0, symName: __ZNSt3__124__libcpp_operator_deleteB8ne180100IJPvEEEvDpT_, symObjAddr: 0x7050, symBinAddr: 0x10000A9C4, symSize: 0x24 }
  - { offset: 0x31245, size: 0x8, addend: 0x0, symName: __ZNSt3__117__libcpp_allocateB8ne180100Emm, symObjAddr: 0x74D0, symBinAddr: 0x10000AE44, symSize: 0x60 }
  - { offset: 0x312A3, size: 0x8, addend: 0x0, symName: __ZNSt3__121__libcpp_operator_newB8ne180100IJmSt11align_val_tEEEPvDpT_, symObjAddr: 0x7548, symBinAddr: 0x10000AEBC, symSize: 0x2C }
  - { offset: 0x312F2, size: 0x8, addend: 0x0, symName: __ZNSt3__121__libcpp_operator_newB8ne180100IJmEEEPvDpT_, symObjAddr: 0x7574, symBinAddr: 0x10000AEE8, symSize: 0x24 }
  - { offset: 0x3132C, size: 0x8, addend: 0x0, symName: __ZNSt3__1neB8ne180100ERKNS_21__hash_const_iteratorIPNS_11__hash_nodeINS_17__hash_value_typeINS_12basic_stringIcNS_11char_traitsIcEENS_9allocatorIcEEEENS_6vectorIS8_NS6_IS8_EEEEEEPvEEEESI_, symObjAddr: 0x8044, symBinAddr: 0x10000B9B8, symSize: 0x34 }
  - { offset: 0x3136C, size: 0x8, addend: 0x0, symName: __ZNSt3__1eqB8ne180100ERKNS_21__hash_const_iteratorIPNS_11__hash_nodeINS_17__hash_value_typeINS_12basic_stringIcNS_11char_traitsIcEENS_9allocatorIcEEEENS_6vectorIS8_NS6_IS8_EEEEEEPvEEEESI_, symObjAddr: 0x84BC, symBinAddr: 0x10000BE30, symSize: 0x30 }
  - { offset: 0x313DE, size: 0x8, addend: 0x0, symName: __ZNSt3__17launderB8ne180100IKNS_4pairIKNS_12basic_stringIcNS_11char_traitsIcEENS_9allocatorIcEEEENS_6vectorIS7_NS5_IS7_EEEEEEEEPT_SF_, symObjAddr: 0x85B4, symBinAddr: 0x10000BF28, symSize: 0x24 }
  - { offset: 0x31417, size: 0x8, addend: 0x0, symName: __ZNSt3__19__launderB8ne180100IKNS_4pairIKNS_12basic_stringIcNS_11char_traitsIcEENS_9allocatorIcEEEENS_6vectorIS7_NS5_IS7_EEEEEEEEPT_SF_, symObjAddr: 0x85D8, symBinAddr: 0x10000BF4C, symSize: 0x14 }
  - { offset: 0x3144F, size: 0x8, addend: 0x0, symName: __ZNSt3__17launderB8ne180100INS_4pairIKNS_12basic_stringIcNS_11char_traitsIcEENS_9allocatorIcEEEENS_6vectorIS7_NS5_IS7_EEEEEEEEPT_SE_, symObjAddr: 0x864C, symBinAddr: 0x10000BFC0, symSize: 0x24 }
  - { offset: 0x31488, size: 0x8, addend: 0x0, symName: __ZNSt3__19__launderB8ne180100INS_4pairIKNS_12basic_stringIcNS_11char_traitsIcEENS_9allocatorIcEEEENS_6vectorIS7_NS5_IS7_EEEEEEEEPT_SE_, symObjAddr: 0x8670, symBinAddr: 0x10000BFE4, symSize: 0x14 }
  - { offset: 0x314C1, size: 0x8, addend: 0x0, symName: __ZNSt3__18distanceB8ne180100IPNS_12basic_stringIcNS_11char_traitsIcEENS_9allocatorIcEEEEEENS_15iterator_traitsIT_E15difference_typeES9_S9_, symObjAddr: 0x8918, symBinAddr: 0x10000C28C, symSize: 0x2C }
  - { offset: 0x31505, size: 0x8, addend: 0x0, symName: __ZNSt3__14nextB8ne180100IPNS_12basic_stringIcNS_11char_traitsIcEENS_9allocatorIcEEEELi0EEET_S8_NS_15iterator_traitsIS8_E15difference_typeE, symObjAddr: 0x89AC, symBinAddr: 0x10000C320, symSize: 0x34 }
  - { offset: 0x3154F, size: 0x8, addend: 0x0, symName: __ZNSt3__14copyB8ne180100IPNS_12basic_stringIcNS_11char_traitsIcEENS_9allocatorIcEEEES7_EET0_T_S9_S8_, symObjAddr: 0x89E0, symBinAddr: 0x10000C354, symSize: 0x40 }
  - { offset: 0x315AA, size: 0x8, addend: 0x0, symName: __ZNSt3__16__copyB8ne180100INS_17_ClassicAlgPolicyEPNS_12basic_stringIcNS_11char_traitsIcEENS_9allocatorIcEEEES8_S8_EENS_4pairIT0_T2_EESA_T1_SB_, symObjAddr: 0x8AAC, symBinAddr: 0x10000C420, symSize: 0x44 }
  - { offset: 0x31617, size: 0x8, addend: 0x0, symName: __ZNSt3__121__convert_to_integralB8ne180100El, symObjAddr: 0x8DD0, symBinAddr: 0x10000C744, symSize: 0x14 }
  - { offset: 0x31644, size: 0x8, addend: 0x0, symName: __ZNSt3__19__advanceB8ne180100IPNS_12basic_stringIcNS_11char_traitsIcEENS_9allocatorIcEEEEEEvRT_NS_15iterator_traitsIS8_E15difference_typeENS_26random_access_iterator_tagE, symObjAddr: 0x8DE4, symBinAddr: 0x10000C758, symSize: 0x30 }
  - { offset: 0x3168E, size: 0x8, addend: 0x0, symName: __ZNSt3__130__uninitialized_allocator_copyB8ne180100INS_9allocatorINS_12basic_stringIcNS_11char_traitsIcEENS1_IcEEEEEEPS6_S8_S8_EET2_RT_T0_T1_S9_, symObjAddr: 0x8E50, symBinAddr: 0x10000C7C4, symSize: 0x80 }
  - { offset: 0x31732, size: 0x8, addend: 0x0, symName: __ZNSt3__114__unwrap_rangeB8ne180100IPNS_12basic_stringIcNS_11char_traitsIcEENS_9allocatorIcEEEES7_EENS_4pairIT0_S9_EET_SB_, symObjAddr: 0x8F70, symBinAddr: 0x10000C8E4, symSize: 0x60 }
  - { offset: 0x3177E, size: 0x8, addend: 0x0, symName: __ZNSt3__135__uninitialized_allocator_copy_implB8ne180100INS_9allocatorINS_12basic_stringIcNS_11char_traitsIcEENS1_IcEEEEEEPS6_S8_S8_EET2_RT_T0_T1_S9_, symObjAddr: 0x8FD0, symBinAddr: 0x10000C944, symSize: 0xF4 }
  - { offset: 0x31823, size: 0x8, addend: 0x0, symName: __ZNSt3__113__unwrap_iterB8ne180100IPNS_12basic_stringIcNS_11char_traitsIcEENS_9allocatorIcEEEENS_18__unwrap_iter_implIS7_Lb1EEELi0EEEDTclsrT0_8__unwrapclsr3stdE7declvalIT_EEEESB_, symObjAddr: 0x90C4, symBinAddr: 0x10000CA38, symSize: 0x24 }
  - { offset: 0x31868, size: 0x8, addend: 0x0, symName: __ZNSt3__113__rewrap_iterB8ne180100IPNS_12basic_stringIcNS_11char_traitsIcEENS_9allocatorIcEEEES7_NS_18__unwrap_iter_implIS7_Lb1EEEEET_SA_T0_, symObjAddr: 0x90E8, symBinAddr: 0x10000CA5C, symSize: 0x3C }
  - { offset: 0x318BD, size: 0x8, addend: 0x0, symName: __ZNSt3__19make_pairB8ne180100IPNS_12basic_stringIcNS_11char_traitsIcEENS_9allocatorIcEEEES7_EENS_4pairINS_18__unwrap_ref_decayIT_E4typeENS9_IT0_E4typeEEEOSA_OSD_, symObjAddr: 0x9124, symBinAddr: 0x10000CA98, symSize: 0x38 }
  - { offset: 0x319E3, size: 0x8, addend: 0x0, symName: __ZNSt3__122__make_exception_guardB8ne180100INS_29_AllocatorDestroyRangeReverseINS_9allocatorINS_12basic_stringIcNS_11char_traitsIcEENS2_IcEEEEEEPS7_EEEENS_28__exception_guard_exceptionsIT_EESC_, symObjAddr: 0x91CC, symBinAddr: 0x10000CB40, symSize: 0x4C }
  - { offset: 0x31A1A, size: 0x8, addend: 0x0, symName: __ZNSt3__112__to_addressB8ne180100INS_12basic_stringIcNS_11char_traitsIcEENS_9allocatorIcEEEEEEPT_S8_, symObjAddr: 0x9290, symBinAddr: 0x10000CC04, symSize: 0x14 }
  - { offset: 0x31A50, size: 0x8, addend: 0x0, symName: __ZNSt3__119__allocator_destroyB8ne180100INS_9allocatorINS_12basic_stringIcNS_11char_traitsIcEENS1_IcEEEEEENS_16reverse_iteratorIPS6_EESA_EEvRT_T0_T1_, symObjAddr: 0x9470, symBinAddr: 0x10000CDE4, symSize: 0x70 }
  - { offset: 0x31AB7, size: 0x8, addend: 0x0, symName: __ZNSt3__1neB8ne180100IPNS_12basic_stringIcNS_11char_traitsIcEENS_9allocatorIcEEEES7_EEbRKNS_16reverse_iteratorIT_EERKNS8_IT0_EE, symObjAddr: 0x9514, symBinAddr: 0x10000CE88, symSize: 0x48 }
  - { offset: 0x31B04, size: 0x8, addend: 0x0, symName: __ZNSt3__112__to_addressB8ne180100INS_16reverse_iteratorIPNS_12basic_stringIcNS_11char_traitsIcEENS_9allocatorIcEEEEEEvEEu7__decayIDTclsr19__to_address_helperIT_EE6__callclsr3stdE7declvalIRKSA_EEEEESC_, symObjAddr: 0x9588, symBinAddr: 0x10000CEFC, symSize: 0x24 }
  - { offset: 0x31BB8, size: 0x8, addend: 0x0, symName: __ZNSt3__123__dispatch_copy_or_moveB8ne180100INS_17_ClassicAlgPolicyENS_11__copy_loopIS1_EENS_14__copy_trivialEPNS_12basic_stringIcNS_11char_traitsIcEENS_9allocatorIcEEEESB_SB_EENS_4pairIT2_T4_EESD_T3_SE_, symObjAddr: 0x978C, symBinAddr: 0x10000D100, symSize: 0x44 }
  - { offset: 0x31C37, size: 0x8, addend: 0x0, symName: __ZNSt3__121__unwrap_and_dispatchB8ne180100INS_10__overloadINS_11__copy_loopINS_17_ClassicAlgPolicyEEENS_14__copy_trivialEEEPNS_12basic_stringIcNS_11char_traitsIcEENS_9allocatorIcEEEESD_SD_Li0EEENS_4pairIT0_T2_EESF_T1_SG_, symObjAddr: 0x97D0, symBinAddr: 0x10000D144, symSize: 0xB4 }
  - { offset: 0x31D21, size: 0x8, addend: 0x0, symName: __ZNSt3__114__rewrap_rangeB8ne180100IPNS_12basic_stringIcNS_11char_traitsIcEENS_9allocatorIcEEEES7_EET_S8_T0_, symObjAddr: 0x990C, symBinAddr: 0x10000D280, symSize: 0x2C }
  - { offset: 0x31D6E, size: 0x8, addend: 0x0, symName: __ZNSt3__119__allocate_at_leastB8ne180100INS_9allocatorINS_12basic_stringIcNS_11char_traitsIcEENS1_IcEEEEEEEENS_19__allocation_resultINS_16allocator_traitsIT_E7pointerEEERSA_m, symObjAddr: 0x9BA8, symBinAddr: 0x10000D51C, symSize: 0x40 }
  - { offset: 0x31F9C, size: 0x8, addend: 0x0, symName: __ZNSt3__120__throw_length_errorB8ne180100EPKc, symObjAddr: 0x9CB4, symBinAddr: 0x10000D628, symSize: 0x64 }
  - { offset: 0x31FC5, size: 0x8, addend: 0x0, symName: __ZNSt3__13maxB8ne180100ImEERKT_S3_S3_, symObjAddr: 0x9DEC, symBinAddr: 0x10000D760, symSize: 0x2C }
  - { offset: 0x32009, size: 0x8, addend: 0x0, symName: __ZNSt3__13maxB8ne180100ImNS_6__lessIvvEEEERKT_S5_S5_T0_, symObjAddr: 0x9E18, symBinAddr: 0x10000D78C, symSize: 0x54 }
  - { offset: 0x32064, size: 0x8, addend: 0x0, symName: __ZNSt3__110__distanceB8ne180100IPNS_12basic_stringIcNS_11char_traitsIcEENS_9allocatorIcEEEEEENS_15iterator_traitsIT_E15difference_typeES9_S9_NS_26random_access_iterator_tagE, symObjAddr: 0x9E6C, symBinAddr: 0x10000D7E0, symSize: 0x28 }
  - { offset: 0x320B2, size: 0x8, addend: 0x0, symName: __ZNSt3__116__do_string_hashB8ne180100IPKcEEmT_S3_, symObjAddr: 0xA3F8, symBinAddr: 0x10000DD6C, symSize: 0x3C }
  - { offset: 0x320FB, size: 0x8, addend: 0x0, symName: __ZNSt3__110__loadwordB8ne180100ImEET_PKv, symObjAddr: 0xADF4, symBinAddr: 0x10000E768, symSize: 0x20 }
  - { offset: 0x3213F, size: 0x8, addend: 0x0, symName: __ZNSt3__14swapB8ne180100ImEENS_9enable_ifIXaasr21is_move_constructibleIT_EE5valuesr18is_move_assignableIS2_EE5valueEvE4typeERS2_S5_, symObjAddr: 0xAFB0, symBinAddr: 0x10000E924, symSize: 0x3C }
  - { offset: 0x32191, size: 0x8, addend: 0x0, symName: __ZNSt3__110__loadwordB8ne180100IjEET_PKv, symObjAddr: 0xB040, symBinAddr: 0x10000E9B4, symSize: 0x20 }
  - { offset: 0x321D5, size: 0x8, addend: 0x0, symName: __ZNSt3__116__is_hash_power2B8ne180100Em, symObjAddr: 0xB1D4, symBinAddr: 0x10000EB48, symSize: 0x50 }
  - { offset: 0x32207, size: 0x8, addend: 0x0, symName: __ZNSt3__16__math4ceilB8ne180100Ef, symObjAddr: 0xB224, symBinAddr: 0x10000EB98, symSize: 0x18 }
  - { offset: 0x32279, size: 0x8, addend: 0x0, symName: __ZNSt3__116__constrain_hashB8ne180100Emm, symObjAddr: 0xB23C, symBinAddr: 0x10000EBB0, symSize: 0x98 }
  - { offset: 0x322B4, size: 0x8, addend: 0x0, symName: __ZNSt3__116__next_hash_pow2B8ne180100Em, symObjAddr: 0xB7E0, symBinAddr: 0x10000F154, symSize: 0x6C }
  - { offset: 0x322E1, size: 0x8, addend: 0x0, symName: __ZNSt3__112__libcpp_clzB8ne180100Em, symObjAddr: 0xBB88, symBinAddr: 0x10000F4FC, symSize: 0x1C }
  - { offset: 0x3230D, size: 0x8, addend: 0x0, symName: __ZNSt3__1eqB8ne180100INS_9allocatorIcEEEEbRKNS_12basic_stringIcNS_11char_traitsIcEET_EES9_, symObjAddr: 0xBBD8, symBinAddr: 0x10000F54C, symSize: 0x148 }
  - { offset: 0x32385, size: 0x8, addend: 0x0, symName: __ZNSt3__112__destroy_atB8ne180100INS_11__hash_nodeINS_17__hash_value_typeINS_12basic_stringIcNS_11char_traitsIcEENS_9allocatorIcEEEENS_6vectorIS8_NS6_IS8_EEEEEEPvEELi0EEEvPT_, symObjAddr: 0xBDB4, symBinAddr: 0x10000F728, symSize: 0x24 }
  - { offset: 0x323BC, size: 0x8, addend: 0x0, symName: __ZNSt3__112__destroy_atB8ne180100INS_4pairIKNS_12basic_stringIcNS_11char_traitsIcEENS_9allocatorIcEEEENS_6vectorIS7_NS5_IS7_EEEEEELi0EEEvPT_, symObjAddr: 0xBE44, symBinAddr: 0x10000F7B8, symSize: 0x24 }
  - { offset: 0x32412, size: 0x8, addend: 0x0, symName: __ZNSt3__114__construct_atB8ne180100INS_11__hash_nodeINS_17__hash_value_typeINS_12basic_stringIcNS_11char_traitsIcEENS_9allocatorIcEEEENS_6vectorIS8_NS6_IS8_EEEEEEPvEEJDniEPSE_EEPT_SH_DpOT0_, symObjAddr: 0xC2A8, symBinAddr: 0x10000FC1C, symSize: 0x40 }
  - { offset: 0x32479, size: 0x8, addend: 0x0, symName: __ZNSt3__122__make_exception_guardB8ne180100INS_6vectorINS_12basic_stringIcNS_11char_traitsIcEENS_9allocatorIcEEEENS5_IS7_EEE16__destroy_vectorEEENS_28__exception_guard_exceptionsIT_EESC_, symObjAddr: 0xC958, symBinAddr: 0x1000102CC, symSize: 0x40 }
  - { offset: 0x324AE, size: 0x8, addend: 0x0, symName: __ZNSt3__1neB8ne180100ERKNS_21__hash_const_iteratorIPNS_11__hash_nodeINS_17__hash_value_typeINS_12basic_stringIcNS_11char_traitsIcEENS_9allocatorIcEEEEbEEPvEEEESF_, symObjAddr: 0xD3C4, symBinAddr: 0x100010D38, symSize: 0x34 }
  - { offset: 0x324EE, size: 0x8, addend: 0x0, symName: __ZNSt3__1eqB8ne180100ERKNS_21__hash_const_iteratorIPNS_11__hash_nodeINS_17__hash_value_typeINS_12basic_stringIcNS_11char_traitsIcEENS_9allocatorIcEEEEbEEPvEEEESF_, symObjAddr: 0xD828, symBinAddr: 0x10001119C, symSize: 0x30 }
  - { offset: 0x32560, size: 0x8, addend: 0x0, symName: __ZNSt3__17launderB8ne180100IKNS_4pairIKNS_12basic_stringIcNS_11char_traitsIcEENS_9allocatorIcEEEEbEEEEPT_SC_, symObjAddr: 0xD920, symBinAddr: 0x100011294, symSize: 0x24 }
  - { offset: 0x32599, size: 0x8, addend: 0x0, symName: __ZNSt3__19__launderB8ne180100IKNS_4pairIKNS_12basic_stringIcNS_11char_traitsIcEENS_9allocatorIcEEEEbEEEEPT_SC_, symObjAddr: 0xD944, symBinAddr: 0x1000112B8, symSize: 0x14 }
  - { offset: 0x325D1, size: 0x8, addend: 0x0, symName: __ZNSt3__17launderB8ne180100INS_4pairIKNS_12basic_stringIcNS_11char_traitsIcEENS_9allocatorIcEEEEbEEEEPT_SB_, symObjAddr: 0xD9B8, symBinAddr: 0x10001132C, symSize: 0x24 }
  - { offset: 0x3260A, size: 0x8, addend: 0x0, symName: __ZNSt3__19__launderB8ne180100INS_4pairIKNS_12basic_stringIcNS_11char_traitsIcEENS_9allocatorIcEEEEbEEEEPT_SB_, symObjAddr: 0xD9DC, symBinAddr: 0x100011350, symSize: 0x14 }
  - { offset: 0x32642, size: 0x8, addend: 0x0, symName: __ZNSt3__112__destroy_atB8ne180100INS_11__hash_nodeINS_17__hash_value_typeINS_12basic_stringIcNS_11char_traitsIcEENS_9allocatorIcEEEEbEEPvEELi0EEEvPT_, symObjAddr: 0xE824, symBinAddr: 0x100012198, symSize: 0x24 }
  - { offset: 0x32679, size: 0x8, addend: 0x0, symName: __ZNSt3__112__destroy_atB8ne180100INS_4pairIKNS_12basic_stringIcNS_11char_traitsIcEENS_9allocatorIcEEEEbEELi0EEEvPT_, symObjAddr: 0xE8B4, symBinAddr: 0x100012228, symSize: 0x24 }
  - { offset: 0x326CF, size: 0x8, addend: 0x0, symName: __ZNSt3__114__construct_atB8ne180100INS_11__hash_nodeINS_17__hash_value_typeINS_12basic_stringIcNS_11char_traitsIcEENS_9allocatorIcEEEEbEEPvEEJDniEPSB_EEPT_SE_DpOT0_, symObjAddr: 0xED10, symBinAddr: 0x100012684, symSize: 0x40 }
  - { offset: 0x32735, size: 0x8, addend: 0x0, symName: __ZNSt3__1neB8ne180100ERKNS_21__tree_const_iteratorINS_12__value_typeINS_12basic_stringIcNS_11char_traitsIcEENS_9allocatorIcEEEE4roomEEPNS_11__tree_nodeIS9_PvEElEESG_, symObjAddr: 0xF778, symBinAddr: 0x1000130EC, symSize: 0x34 }
  - { offset: 0x32775, size: 0x8, addend: 0x0, symName: __ZNSt3__1eqB8ne180100ERKNS_21__tree_const_iteratorINS_12__value_typeINS_12basic_stringIcNS_11char_traitsIcEENS_9allocatorIcEEEE4roomEEPNS_11__tree_nodeIS9_PvEElEESG_, symObjAddr: 0xFB2C, symBinAddr: 0x1000134A0, symSize: 0x30 }
  - { offset: 0x327B4, size: 0x8, addend: 0x0, symName: __ZNSt3__17launderB8ne180100IKNS_4pairIKNS_12basic_stringIcNS_11char_traitsIcEENS_9allocatorIcEEEE4roomEEEEPT_SD_, symObjAddr: 0xFC28, symBinAddr: 0x10001359C, symSize: 0x24 }
  - { offset: 0x327ED, size: 0x8, addend: 0x0, symName: __ZNSt3__19__launderB8ne180100IKNS_4pairIKNS_12basic_stringIcNS_11char_traitsIcEENS_9allocatorIcEEEE4roomEEEEPT_SD_, symObjAddr: 0xFC4C, symBinAddr: 0x1000135C0, symSize: 0x14 }
  - { offset: 0x32825, size: 0x8, addend: 0x0, symName: __ZNSt3__17launderB8ne180100INS_4pairIKNS_12basic_stringIcNS_11char_traitsIcEENS_9allocatorIcEEEE4roomEEEEPT_SC_, symObjAddr: 0xFCC0, symBinAddr: 0x100013634, symSize: 0x24 }
  - { offset: 0x3285E, size: 0x8, addend: 0x0, symName: __ZNSt3__19__launderB8ne180100INS_4pairIKNS_12basic_stringIcNS_11char_traitsIcEENS_9allocatorIcEEEE4roomEEEEPT_SC_, symObjAddr: 0xFCE4, symBinAddr: 0x100013658, symSize: 0x14 }
  - { offset: 0x32896, size: 0x8, addend: 0x0, symName: __ZNSt3__112__destroy_atB8ne180100INS_4pairIKNS_12basic_stringIcNS_11char_traitsIcEENS_9allocatorIcEEEE4roomEELi0EEEvPT_, symObjAddr: 0x1036C, symBinAddr: 0x100013CE0, symSize: 0x24 }
  - { offset: 0x328EC, size: 0x8, addend: 0x0, symName: __ZNSt3__14nextB8ne180100INS_21__tree_const_iteratorINS_12__value_typeINS_12basic_stringIcNS_11char_traitsIcEENS_9allocatorIcEEEES8_EEPNS_11__tree_nodeIS9_PvEElEELi0EEET_SF_NS_15iterator_traitsISF_E15difference_typeE, symObjAddr: 0x11AFC, symBinAddr: 0x100015470, symSize: 0x3C }
  - { offset: 0x32936, size: 0x8, addend: 0x0, symName: __ZNSt3__116__tree_prev_iterB8ne180100IPNS_16__tree_node_baseIPvEEPNS_15__tree_end_nodeIS4_EEEET_T0_, symObjAddr: 0x11BAC, symBinAddr: 0x100015520, symSize: 0x88 }
  - { offset: 0x32983, size: 0x8, addend: 0x0, symName: __ZNSt3__110__tree_maxB8ne180100IPNS_16__tree_node_baseIPvEEEET_S5_, symObjAddr: 0x11C34, symBinAddr: 0x1000155A8, symSize: 0x40 }
  - { offset: 0x329B8, size: 0x8, addend: 0x0, symName: __ZNSt3__19__advanceB8ne180100INS_21__tree_const_iteratorINS_12__value_typeINS_12basic_stringIcNS_11char_traitsIcEENS_9allocatorIcEEEES8_EEPNS_11__tree_nodeIS9_PvEElEEEEvRT_NS_15iterator_traitsISF_E15difference_typeENS_26bidirectional_iterator_tagE, symObjAddr: 0x11CD0, symBinAddr: 0x100015644, symSize: 0xA4 }
  - { offset: 0x32A20, size: 0x8, addend: 0x0, symName: __ZNSt3__1neB8ne180100ERKNS_25__hash_map_const_iteratorINS_21__hash_const_iteratorIPNS_11__hash_nodeINS_17__hash_value_typeINS_12basic_stringIcNS_11char_traitsIcEENS_9allocatorIcEEEENS_6vectorIS9_NS7_IS9_EEEEEEPvEEEEEESK_, symObjAddr: 0x12BC0, symBinAddr: 0x100016534, symSize: 0x30 }
  - { offset: 0x32A60, size: 0x8, addend: 0x0, symName: __ZNSt3__114__construct_atB8ne180100INS_11__hash_nodeINS_17__hash_value_typeINS_12basic_stringIcNS_11char_traitsIcEENS_9allocatorIcEEEENS_6vectorIS8_NS6_IS8_EEEEEEPvEEJDnRmEPSE_EEPT_SI_DpOT0_, symObjAddr: 0x13328, symBinAddr: 0x100016C9C, symSize: 0x40 }
  - { offset: 0x32B17, size: 0x8, addend: 0x0, symName: __ZNSt3__1neB8ne180100ERKNS_25__hash_map_const_iteratorINS_21__hash_const_iteratorIPNS_11__hash_nodeINS_17__hash_value_typeINS_12basic_stringIcNS_11char_traitsIcEENS_9allocatorIcEEEEbEEPvEEEEEESH_, symObjAddr: 0x141F8, symBinAddr: 0x100017B6C, symSize: 0x30 }
  - { offset: 0x32B57, size: 0x8, addend: 0x0, symName: __ZNSt3__114__construct_atB8ne180100INS_11__hash_nodeINS_17__hash_value_typeINS_12basic_stringIcNS_11char_traitsIcEENS_9allocatorIcEEEEbEEPvEEJDnRmEPSB_EEPT_SF_DpOT0_, symObjAddr: 0x14960, symBinAddr: 0x1000182D4, symSize: 0x40 }
  - { offset: 0x32BF0, size: 0x8, addend: 0x0, symName: __ZNSt3__1neB8ne180100ERKNS_20__map_const_iteratorINS_21__tree_const_iteratorINS_12__value_typeINS_12basic_stringIcNS_11char_traitsIcEENS_9allocatorIcEEEE4roomEEPNS_11__tree_nodeISA_PvEElEEEESI_, symObjAddr: 0x14F00, symBinAddr: 0x100018874, symSize: 0x30 }
  - { offset: 0x32C30, size: 0x8, addend: 0x0, symName: __ZNSt3__14nextB8ne180100INS_21__tree_const_iteratorINS_12__value_typeINS_12basic_stringIcNS_11char_traitsIcEENS_9allocatorIcEEEE4roomEEPNS_11__tree_nodeISA_PvEElEELi0EEET_SG_NS_15iterator_traitsISG_E15difference_typeE, symObjAddr: 0x15798, symBinAddr: 0x10001910C, symSize: 0x3C }
  - { offset: 0x32C79, size: 0x8, addend: 0x0, symName: __ZNSt3__19__advanceB8ne180100INS_21__tree_const_iteratorINS_12__value_typeINS_12basic_stringIcNS_11char_traitsIcEENS_9allocatorIcEEEE4roomEEPNS_11__tree_nodeISA_PvEElEEEEvRT_NS_15iterator_traitsISG_E15difference_typeENS_26bidirectional_iterator_tagE, symObjAddr: 0x158A4, symBinAddr: 0x100019218, symSize: 0xA4 }
  - { offset: 0x32CF6, size: 0x8, addend: 0x0, symName: __ZNSt3__1neB8ne180100ERKNS_21__hash_const_iteratorIPNS_11__hash_nodeINS_17__hash_value_typeINS_12basic_stringIcNS_11char_traitsIcEENS_9allocatorIcEEEE4itemEEPvEEEESG_, symObjAddr: 0x164B4, symBinAddr: 0x100019E28, symSize: 0x34 }
  - { offset: 0x32D36, size: 0x8, addend: 0x0, symName: __ZNSt3__1eqB8ne180100ERKNS_21__hash_const_iteratorIPNS_11__hash_nodeINS_17__hash_value_typeINS_12basic_stringIcNS_11char_traitsIcEENS_9allocatorIcEEEE4itemEEPvEEEESG_, symObjAddr: 0x16918, symBinAddr: 0x10001A28C, symSize: 0x30 }
  - { offset: 0x32DA8, size: 0x8, addend: 0x0, symName: __ZNSt3__17launderB8ne180100IKNS_4pairIKNS_12basic_stringIcNS_11char_traitsIcEENS_9allocatorIcEEEE4itemEEEEPT_SD_, symObjAddr: 0x16A10, symBinAddr: 0x10001A384, symSize: 0x24 }
  - { offset: 0x32DE1, size: 0x8, addend: 0x0, symName: __ZNSt3__19__launderB8ne180100IKNS_4pairIKNS_12basic_stringIcNS_11char_traitsIcEENS_9allocatorIcEEEE4itemEEEEPT_SD_, symObjAddr: 0x16A34, symBinAddr: 0x10001A3A8, symSize: 0x14 }
  - { offset: 0x32E19, size: 0x8, addend: 0x0, symName: __ZNSt3__17launderB8ne180100INS_4pairIKNS_12basic_stringIcNS_11char_traitsIcEENS_9allocatorIcEEEE4itemEEEEPT_SC_, symObjAddr: 0x16AA8, symBinAddr: 0x10001A41C, symSize: 0x24 }
  - { offset: 0x32E52, size: 0x8, addend: 0x0, symName: __ZNSt3__19__launderB8ne180100INS_4pairIKNS_12basic_stringIcNS_11char_traitsIcEENS_9allocatorIcEEEE4itemEEEEPT_SC_, symObjAddr: 0x16ACC, symBinAddr: 0x10001A440, symSize: 0x14 }
  - { offset: 0x32E8A, size: 0x8, addend: 0x0, symName: __ZNSt3__112__destroy_atB8ne180100INS_11__hash_nodeINS_17__hash_value_typeINS_12basic_stringIcNS_11char_traitsIcEENS_9allocatorIcEEEE4itemEEPvEELi0EEEvPT_, symObjAddr: 0x17914, symBinAddr: 0x10001B288, symSize: 0x24 }
  - { offset: 0x32EC1, size: 0x8, addend: 0x0, symName: __ZNSt3__112__destroy_atB8ne180100INS_4pairIKNS_12basic_stringIcNS_11char_traitsIcEENS_9allocatorIcEEEE4itemEELi0EEEvPT_, symObjAddr: 0x179A4, symBinAddr: 0x10001B318, symSize: 0x24 }
  - { offset: 0x32F17, size: 0x8, addend: 0x0, symName: __ZNSt3__114__construct_atB8ne180100INS_11__hash_nodeINS_17__hash_value_typeINS_12basic_stringIcNS_11char_traitsIcEENS_9allocatorIcEEEE4itemEEPvEEJDniEPSC_EEPT_SF_DpOT0_, symObjAddr: 0x17E0C, symBinAddr: 0x10001B780, symSize: 0x40 }
  - { offset: 0x32F9B, size: 0x8, addend: 0x0, symName: __ZNSt3__1neB8ne180100ERKNS_25__hash_map_const_iteratorINS_21__hash_const_iteratorIPNS_11__hash_nodeINS_17__hash_value_typeINS_12basic_stringIcNS_11char_traitsIcEENS_9allocatorIcEEEE4itemEEPvEEEEEESI_, symObjAddr: 0x1914C, symBinAddr: 0x10001CAC0, symSize: 0x30 }
  - { offset: 0x32FDB, size: 0x8, addend: 0x0, symName: __ZNSt3__114__construct_atB8ne180100INS_11__hash_nodeINS_17__hash_value_typeINS_12basic_stringIcNS_11char_traitsIcEENS_9allocatorIcEEEE4itemEEPvEEJDnRmEPSC_EEPT_SG_DpOT0_, symObjAddr: 0x198B4, symBinAddr: 0x10001D228, symSize: 0x40 }
  - { offset: 0x33074, size: 0x8, addend: 0x0, symName: __ZNSt3__1neB8ne180100ERKNS_21__hash_const_iteratorIPNS_11__hash_nodeINS_17__hash_value_typeINS_12basic_stringIcNS_11char_traitsIcEENS_9allocatorIcEEEE9characterEEPvEEEESG_, symObjAddr: 0x1A43C, symBinAddr: 0x10001DDB0, symSize: 0x34 }
  - { offset: 0x330B4, size: 0x8, addend: 0x0, symName: __ZNSt3__1eqB8ne180100ERKNS_21__hash_const_iteratorIPNS_11__hash_nodeINS_17__hash_value_typeINS_12basic_stringIcNS_11char_traitsIcEENS_9allocatorIcEEEE9characterEEPvEEEESG_, symObjAddr: 0x1A8A0, symBinAddr: 0x10001E214, symSize: 0x30 }
  - { offset: 0x33126, size: 0x8, addend: 0x0, symName: __ZNSt3__17launderB8ne180100IKNS_4pairIKNS_12basic_stringIcNS_11char_traitsIcEENS_9allocatorIcEEEE9characterEEEEPT_SD_, symObjAddr: 0x1A998, symBinAddr: 0x10001E30C, symSize: 0x24 }
  - { offset: 0x3315F, size: 0x8, addend: 0x0, symName: __ZNSt3__19__launderB8ne180100IKNS_4pairIKNS_12basic_stringIcNS_11char_traitsIcEENS_9allocatorIcEEEE9characterEEEEPT_SD_, symObjAddr: 0x1A9BC, symBinAddr: 0x10001E330, symSize: 0x14 }
  - { offset: 0x33197, size: 0x8, addend: 0x0, symName: __ZNSt3__17launderB8ne180100INS_4pairIKNS_12basic_stringIcNS_11char_traitsIcEENS_9allocatorIcEEEE9characterEEEEPT_SC_, symObjAddr: 0x1AA30, symBinAddr: 0x10001E3A4, symSize: 0x24 }
  - { offset: 0x331D0, size: 0x8, addend: 0x0, symName: __ZNSt3__19__launderB8ne180100INS_4pairIKNS_12basic_stringIcNS_11char_traitsIcEENS_9allocatorIcEEEE9characterEEEEPT_SC_, symObjAddr: 0x1AA54, symBinAddr: 0x10001E3C8, symSize: 0x14 }
  - { offset: 0x33208, size: 0x8, addend: 0x0, symName: __ZNSt3__112__destroy_atB8ne180100INS_11__hash_nodeINS_17__hash_value_typeINS_12basic_stringIcNS_11char_traitsIcEENS_9allocatorIcEEEE9characterEEPvEELi0EEEvPT_, symObjAddr: 0x1B89C, symBinAddr: 0x10001F210, symSize: 0x24 }
  - { offset: 0x3323F, size: 0x8, addend: 0x0, symName: __ZNSt3__112__destroy_atB8ne180100INS_4pairIKNS_12basic_stringIcNS_11char_traitsIcEENS_9allocatorIcEEEE9characterEELi0EEEvPT_, symObjAddr: 0x1B92C, symBinAddr: 0x10001F2A0, symSize: 0x24 }
  - { offset: 0x33295, size: 0x8, addend: 0x0, symName: __ZNSt3__114__construct_atB8ne180100INS_11__hash_nodeINS_17__hash_value_typeINS_12basic_stringIcNS_11char_traitsIcEENS_9allocatorIcEEEE9characterEEPvEEJDniEPSC_EEPT_SF_DpOT0_, symObjAddr: 0x1BD94, symBinAddr: 0x10001F708, symSize: 0x40 }
  - { offset: 0x33319, size: 0x8, addend: 0x0, symName: __ZNSt3__1neB8ne180100ERKNS_25__hash_map_const_iteratorINS_21__hash_const_iteratorIPNS_11__hash_nodeINS_17__hash_value_typeINS_12basic_stringIcNS_11char_traitsIcEENS_9allocatorIcEEEE9characterEEPvEEEEEESI_, symObjAddr: 0x1D15C, symBinAddr: 0x100020AD0, symSize: 0x30 }
  - { offset: 0x33359, size: 0x8, addend: 0x0, symName: __ZNSt3__114__construct_atB8ne180100INS_11__hash_nodeINS_17__hash_value_typeINS_12basic_stringIcNS_11char_traitsIcEENS_9allocatorIcEEEE9characterEEPvEEJDnRmEPSC_EEPT_SG_DpOT0_, symObjAddr: 0x1D8C4, symBinAddr: 0x100021238, symSize: 0x40 }
  - { offset: 0x333F2, size: 0x8, addend: 0x0, symName: __ZNSt3__130__uninitialized_allocator_copyB8ne180100INS_9allocatorINS_12basic_stringIcNS_11char_traitsIcEENS1_IcEEEEEEPKS6_S9_PS6_EET2_RT_T0_T1_SB_, symObjAddr: 0x1E1A4, symBinAddr: 0x100021B18, symSize: 0x80 }
  - { offset: 0x33496, size: 0x8, addend: 0x0, symName: __ZNSt3__114__unwrap_rangeB8ne180100IPKNS_12basic_stringIcNS_11char_traitsIcEENS_9allocatorIcEEEES8_EENS_4pairIT0_SA_EET_SC_, symObjAddr: 0x1E224, symBinAddr: 0x100021B98, symSize: 0x60 }
  - { offset: 0x334E2, size: 0x8, addend: 0x0, symName: __ZNSt3__135__uninitialized_allocator_copy_implB8ne180100INS_9allocatorINS_12basic_stringIcNS_11char_traitsIcEENS1_IcEEEEEEPKS6_S9_PS6_EET2_RT_T0_T1_SB_, symObjAddr: 0x1E284, symBinAddr: 0x100021BF8, symSize: 0xF4 }
  - { offset: 0x33586, size: 0x8, addend: 0x0, symName: __ZNSt3__19make_pairB8ne180100IPKNS_12basic_stringIcNS_11char_traitsIcEENS_9allocatorIcEEEES8_EENS_4pairINS_18__unwrap_ref_decayIT_E4typeENSA_IT0_E4typeEEEOSB_OSE_, symObjAddr: 0x1E378, symBinAddr: 0x100021CEC, symSize: 0x38 }
  - { offset: 0x335D8, size: 0x8, addend: 0x0, symName: __ZNSt3__113__unwrap_iterB8ne180100IPKNS_12basic_stringIcNS_11char_traitsIcEENS_9allocatorIcEEEENS_18__unwrap_iter_implIS8_Lb1EEELi0EEEDTclsrT0_8__unwrapclsr3stdE7declvalIT_EEEESC_, symObjAddr: 0x1E3B0, symBinAddr: 0x100021D24, symSize: 0x24 }
  - { offset: 0x33744, size: 0x8, addend: 0x0, symName: __ZNSt3__112__to_addressB8ne180100IKNS_12basic_stringIcNS_11char_traitsIcEENS_9allocatorIcEEEEEEPT_S9_, symObjAddr: 0x1E468, symBinAddr: 0x100021DDC, symSize: 0x14 }
  - { offset: 0x3377A, size: 0x8, addend: 0x0, symName: __ZNSt3__118__constexpr_strlenB8ne180100EPKc, symObjAddr: 0x1E5F8, symBinAddr: 0x100021F6C, symSize: 0x24 }
  - { offset: 0x337A6, size: 0x8, addend: 0x0, symName: __ZNSt3__112__destroy_atB8ne180100INS_11__hash_nodeINS_17__hash_value_typeINS_12basic_stringIcNS_11char_traitsIcEENS_9allocatorIcEEEES8_EEPvEELi0EEEvPT_, symObjAddr: 0x1EEE4, symBinAddr: 0x100022858, symSize: 0x24 }
  - { offset: 0x33810, size: 0x8, addend: 0x0, symName: __ZNSt3__116__pad_and_outputB8ne180100IcNS_11char_traitsIcEEEENS_19ostreambuf_iteratorIT_T0_EES6_PKS4_S8_S8_RNS_8ios_baseES4_, symObjAddr: 0x1F4C8, symBinAddr: 0x100022E3C, symSize: 0x240 }
  - { offset: 0x338EB, size: 0x8, addend: 0x0, symName: __ZNSt3__112__to_addressB8ne180100IcEEPT_S2_, symObjAddr: 0x1F938, symBinAddr: 0x1000232AC, symSize: 0x14 }
  - { offset: 0x33954, size: 0x8, addend: 0x0, symName: __ZNSt3__19use_facetB8ne180100INS_5ctypeIcEEEERKT_RKNS_6localeE, symObjAddr: 0x1FB80, symBinAddr: 0x1000234F4, symSize: 0x2C }
  - { offset: 0x33E61, size: 0x8, addend: 0x0, symName: __ZNSt3__116forward_as_tupleB8ne180100IJRKNS_12basic_stringIcNS_11char_traitsIcEENS_9allocatorIcEEEEEEENS_5tupleIJDpOT_EEESC_, symObjAddr: 0x200C8, symBinAddr: 0x100023A3C, symSize: 0x2C }
  - { offset: 0x33E9C, size: 0x8, addend: 0x0, symName: __ZNSt3__116forward_as_tupleB8ne180100IJEEENS_5tupleIJDpOT_EEES4_, symObjAddr: 0x200F4, symBinAddr: 0x100023A68, symSize: 0x4 }
  - { offset: 0x33ECC, size: 0x8, addend: 0x0, symName: __ZNSt3__13getB8ne180100ILm0EJRKNS_12basic_stringIcNS_11char_traitsIcEENS_9allocatorIcEEEEEEERNS_13tuple_elementIXT_ENS_5tupleIJDpT0_EEEE4typeERSD_, symObjAddr: 0x203B0, symBinAddr: 0x100023D24, symSize: 0x24 }
  - { offset: 0x34066, size: 0x8, addend: 0x0, symName: __ZNSt3__142__uninitialized_allocator_move_if_noexceptB8ne180100INS_9allocatorINS_12basic_stringIcNS_11char_traitsIcEENS1_IcEEEEEENS_16reverse_iteratorIPS6_EESA_SA_EET2_RT_T0_T1_SB_, symObjAddr: 0x230E8, symBinAddr: 0x100026A5C, symSize: 0x11C }
  - { offset: 0x3410D, size: 0x8, addend: 0x0, symName: __ZNSt3__14swapB8ne180100IPNS_12basic_stringIcNS_11char_traitsIcEENS_9allocatorIcEEEEEENS_9enable_ifIXaasr21is_move_constructibleIT_EE5valuesr18is_move_assignableIS9_EE5valueEvE4typeERS9_SC_, symObjAddr: 0x23204, symBinAddr: 0x100026B78, symSize: 0x3C }
  - { offset: 0x3415F, size: 0x8, addend: 0x0, symName: __ZNSt3__122__make_exception_guardB8ne180100INS_29_AllocatorDestroyRangeReverseINS_9allocatorINS_12basic_stringIcNS_11char_traitsIcEENS2_IcEEEEEENS_16reverse_iteratorIPS7_EEEEEENS_28__exception_guard_exceptionsIT_EESE_, symObjAddr: 0x23240, symBinAddr: 0x100026BB4, symSize: 0x4C }
  - { offset: 0x34196, size: 0x8, addend: 0x0, symName: __ZNSt3__119__allocator_destroyB8ne180100INS_9allocatorINS_12basic_stringIcNS_11char_traitsIcEENS1_IcEEEEEENS_16reverse_iteratorINS8_IPS6_EEEESB_EEvRT_T0_T1_, symObjAddr: 0x23658, symBinAddr: 0x100026FCC, symSize: 0x70 }
  - { offset: 0x341FF, size: 0x8, addend: 0x0, symName: __ZNSt3__1neB8ne180100INS_16reverse_iteratorIPNS_12basic_stringIcNS_11char_traitsIcEENS_9allocatorIcEEEEEES9_EEbRKNS1_IT_EERKNS1_IT0_EE, symObjAddr: 0x23704, symBinAddr: 0x100027078, symSize: 0x60 }
  - { offset: 0x3424C, size: 0x8, addend: 0x0, symName: __ZNSt3__112__to_addressB8ne180100INS_16reverse_iteratorINS1_IPNS_12basic_stringIcNS_11char_traitsIcEENS_9allocatorIcEEEEEEEEvEEu7__decayIDTclsr19__to_address_helperIT_EE6__callclsr3stdE7declvalIRKSB_EEEEESD_, symObjAddr: 0x23764, symBinAddr: 0x1000270D8, symSize: 0x24 }
  - { offset: 0x342AD, size: 0x8, addend: 0x0, symName: __ZNSt3__1neB8ne180100IPcEEbRKNS_11__wrap_iterIT_EES6_, symObjAddr: 0x23B28, symBinAddr: 0x10002749C, symSize: 0x34 }
  - { offset: 0x342F1, size: 0x8, addend: 0x0, symName: __ZNSt3__1eqB8ne180100IPcEEbRKNS_11__wrap_iterIT_EES6_, symObjAddr: 0x23B94, symBinAddr: 0x100027508, symSize: 0x48 }
  - { offset: 0x34353, size: 0x8, addend: 0x0, symName: __ZNSt3__114__construct_atB8ne180100INS_11__hash_nodeINS_17__hash_value_typeINS_12basic_stringIcNS_11char_traitsIcEENS_9allocatorIcEEEES8_EEPvEEJDnRmEPSB_EEPT_SF_DpOT0_, symObjAddr: 0x24754, symBinAddr: 0x1000280C8, symSize: 0x40 }
  - { offset: 0x343ED, size: 0x8, addend: 0x0, symName: __ZNSt3__17find_ifB8ne180100INS_11__wrap_iterIPcEERPFiiEEET_S7_S7_T0_, symObjAddr: 0x253D4, symBinAddr: 0x100028D48, symSize: 0x8C }
  - { offset: 0x34448, size: 0x8, addend: 0x0, symName: __ZNSt3__1miB8ne180100IPKcPcEEDTmicldtfp_4baseEcldtfp0_4baseEERKNS_11__wrap_iterIT_EERKNS5_IT0_EE, symObjAddr: 0x25460, symBinAddr: 0x100028DD4, symSize: 0x40 }
  - { offset: 0x34495, size: 0x8, addend: 0x0, symName: __ZNSt3__1miB8ne180100IPKcS2_EEDTmicldtfp_4baseEcldtfp0_4baseEERKNS_11__wrap_iterIT_EERKNS4_IT0_EE, symObjAddr: 0x254A0, symBinAddr: 0x100028E14, symSize: 0x40 }
  - { offset: 0x344E2, size: 0x8, addend: 0x0, symName: __ZNSt3__113__rewrap_iterB8ne180100INS_11__wrap_iterIPNS_12basic_stringIcNS_11char_traitsIcEENS_9allocatorIcEEEEEES8_NS_18__unwrap_iter_implIS9_Lb1EEEEET_SC_T0_, symObjAddr: 0x255A8, symBinAddr: 0x100028F1C, symSize: 0x4C }
  - { offset: 0x34538, size: 0x8, addend: 0x0, symName: __ZNSt3__111__find_implB8ne180100IPNS_12basic_stringIcNS_11char_traitsIcEENS_9allocatorIcEEEES7_S6_NS_10__identityEEET_S9_T0_RKT1_RT2_, symObjAddr: 0x255F4, symBinAddr: 0x100028F68, symSize: 0x7C }
  - { offset: 0x345B3, size: 0x8, addend: 0x0, symName: __ZNSt3__113__unwrap_iterB8ne180100INS_11__wrap_iterIPNS_12basic_stringIcNS_11char_traitsIcEENS_9allocatorIcEEEEEENS_18__unwrap_iter_implIS9_Lb1EEELi0EEEDTclsrT0_8__unwrapclsr3stdE7declvalIT_EEEESD_, symObjAddr: 0x25670, symBinAddr: 0x100028FE4, symSize: 0x2C }
  - { offset: 0x3464B, size: 0x8, addend: 0x0, symName: __ZNSt3__112__to_addressB8ne180100INS_11__wrap_iterIPNS_12basic_stringIcNS_11char_traitsIcEENS_9allocatorIcEEEEEEvEEu7__decayIDTclsr19__to_address_helperIT_EE6__callclsr3stdE7declvalIRKSA_EEEEESC_, symObjAddr: 0x25734, symBinAddr: 0x1000290A8, symSize: 0x24 }
  - { offset: 0x34727, size: 0x8, addend: 0x0, symName: __ZNSt3__18__invokeB8ne180100IRNS_10__identityEJRNS_12basic_stringIcNS_11char_traitsIcEENS_9allocatorIcEEEEEEEDTclclsr3stdE7declvalIT_EEspclsr3stdE7declvalIT0_EEEEOSA_DpOSB_, symObjAddr: 0x257E4, symBinAddr: 0x100029158, symSize: 0x2C }
  - { offset: 0x347A8, size: 0x8, addend: 0x0, symName: __ZNSt3__1miB8ne180100IPKNS_12basic_stringIcNS_11char_traitsIcEENS_9allocatorIcEEEES8_EEDTmicldtfp_4baseEcldtfp0_4baseEERKNS_11__wrap_iterIT_EERKNSA_IT0_EE, symObjAddr: 0x25850, symBinAddr: 0x1000291C4, symSize: 0x48 }
  - { offset: 0x347F5, size: 0x8, addend: 0x0, symName: __ZNSt3__14moveB8ne180100IPNS_12basic_stringIcNS_11char_traitsIcEENS_9allocatorIcEEEES7_EET0_T_S9_S8_, symObjAddr: 0x258C4, symBinAddr: 0x100029238, symSize: 0x40 }
  - { offset: 0x34850, size: 0x8, addend: 0x0, symName: __ZNSt3__16__moveB8ne180100INS_17_ClassicAlgPolicyEPNS_12basic_stringIcNS_11char_traitsIcEENS_9allocatorIcEEEES8_S8_EENS_4pairIT0_T2_EESA_T1_SB_, symObjAddr: 0x259D0, symBinAddr: 0x100029344, symSize: 0x44 }
  - { offset: 0x348BD, size: 0x8, addend: 0x0, symName: __ZNSt3__123__dispatch_copy_or_moveB8ne180100INS_17_ClassicAlgPolicyENS_11__move_loopIS1_EENS_14__move_trivialEPNS_12basic_stringIcNS_11char_traitsIcEENS_9allocatorIcEEEESB_SB_EENS_4pairIT2_T4_EESD_T3_SE_, symObjAddr: 0x25A14, symBinAddr: 0x100029388, symSize: 0x44 }
  - { offset: 0x3493C, size: 0x8, addend: 0x0, symName: __ZNSt3__121__unwrap_and_dispatchB8ne180100INS_10__overloadINS_11__move_loopINS_17_ClassicAlgPolicyEEENS_14__move_trivialEEEPNS_12basic_stringIcNS_11char_traitsIcEENS_9allocatorIcEEEESD_SD_Li0EEENS_4pairIT0_T2_EESF_T1_SG_, symObjAddr: 0x25A58, symBinAddr: 0x1000293CC, symSize: 0xB4 }
  - { offset: 0x34A7E, size: 0x8, addend: 0x0, symName: __ZNSt3__1neB8ne180100ERKNS_21__hash_const_iteratorIPNS_11__hash_nodeINS_17__hash_value_typeINS_12basic_stringIcNS_11char_traitsIcEENS_9allocatorIcEEEES8_EEPvEEEESF_, symObjAddr: 0x25F40, symBinAddr: 0x1000298B4, symSize: 0x34 }
  - { offset: 0x34ABE, size: 0x8, addend: 0x0, symName: __ZNSt3__1eqB8ne180100ERKNS_21__hash_const_iteratorIPNS_11__hash_nodeINS_17__hash_value_typeINS_12basic_stringIcNS_11char_traitsIcEENS_9allocatorIcEEEES8_EEPvEEEESF_, symObjAddr: 0x26158, symBinAddr: 0x100029ACC, symSize: 0x30 }
  - { offset: 0x35E0E, size: 0x8, addend: 0x0, symName: __ZSt28__throw_bad_array_new_lengthB8ne180100v, symObjAddr: 0x749C, symBinAddr: 0x10000AE10, symSize: 0x34 }
  - { offset: 0x3978D, size: 0x8, addend: 0x0, symName: __ZNSt3__16vectorINS_12basic_stringIcNS_11char_traitsIcEENS_9allocatorIcEEEENS4_IS6_EEE26__swap_out_circular_bufferERNS_14__split_bufferIS6_RS7_EE, symObjAddr: 0x22D74, symBinAddr: 0x1000266E8, symSize: 0x110 }
  - { offset: 0x39849, size: 0x8, addend: 0x0, symName: __ZN4gameC2Ev, symObjAddr: 0x0, symBinAddr: 0x100003974, symSize: 0x400 }
  - { offset: 0x39891, size: 0x8, addend: 0x0, symName: __ZNSt3__112basic_stringIcNS_11char_traitsIcEENS_9allocatorIcEEEC1B8ne180100ILi0EEEPKc, symObjAddr: 0x400, symBinAddr: 0x100003D74, symSize: 0x34 }
  - { offset: 0x398D1, size: 0x8, addend: 0x0, symName: __ZNSt3__16vectorINS_12basic_stringIcNS_11char_traitsIcEENS_9allocatorIcEEEENS4_IS6_EEEC1B8ne180100ESt16initializer_listIS6_E, symObjAddr: 0x434, symBinAddr: 0x100003DA8, symSize: 0x3C }
  - { offset: 0x3990D, size: 0x8, addend: 0x0, symName: __ZNSt3__113unordered_mapINS_12basic_stringIcNS_11char_traitsIcEENS_9allocatorIcEEEES6_NS_4hashIS6_EENS_8equal_toIS6_EENS4_INS_4pairIKS6_S6_EEEEEC1B8ne180100Ev, symObjAddr: 0x470, symBinAddr: 0x100003DE4, symSize: 0x2C }
  - { offset: 0x39937, size: 0x8, addend: 0x0, symName: __ZNSt3__113unordered_mapINS_12basic_stringIcNS_11char_traitsIcEENS_9allocatorIcEEEES6_NS_4hashIS6_EENS_8equal_toIS6_EENS4_INS_4pairIKS6_S6_EEEEED1B8ne180100Ev, symObjAddr: 0x49C, symBinAddr: 0x100003E10, symSize: 0x2C }
  - { offset: 0x39961, size: 0x8, addend: 0x0, symName: __ZNSt3__16vectorINS_12basic_stringIcNS_11char_traitsIcEENS_9allocatorIcEEEENS4_IS6_EEED1B8ne180100Ev, symObjAddr: 0x4C8, symBinAddr: 0x100003E3C, symSize: 0x2C }
  - { offset: 0x3998B, size: 0x8, addend: 0x0, symName: __ZN4gameC1Ev, symObjAddr: 0x4F4, symBinAddr: 0x100003E68, symSize: 0x2C }
  - { offset: 0x399B7, size: 0x8, addend: 0x0, symName: __ZN4gameD2Ev, symObjAddr: 0x520, symBinAddr: 0x100003E94, symSize: 0xDC }
  - { offset: 0x399E3, size: 0x8, addend: 0x0, symName: __ZN4gameD1Ev, symObjAddr: 0x5FC, symBinAddr: 0x100003F70, symSize: 0x2C }
  - { offset: 0x39A0F, size: 0x8, addend: 0x0, symName: __ZN4game5setupEv, symObjAddr: 0x628, symBinAddr: 0x100003F9C, symSize: 0x21C }
  - { offset: 0x39A37, size: 0x8, addend: 0x0, symName: __ZN4game10load_roomsERKNSt3__112basic_stringIcNS0_11char_traitsIcEENS0_9allocatorIcEEEE, symObjAddr: 0x844, symBinAddr: 0x1000041B8, symSize: 0x4F0 }
  - { offset: 0x39B47, size: 0x8, addend: 0x0, symName: __ZN4game10load_itemsERKNSt3__112basic_stringIcNS0_11char_traitsIcEENS0_9allocatorIcEEEE, symObjAddr: 0xD34, symBinAddr: 0x1000046A8, symSize: 0x63C }
  - { offset: 0x39C67, size: 0x8, addend: 0x0, symName: __ZN4game15load_charactersERKNSt3__112basic_stringIcNS0_11char_traitsIcEENS0_9allocatorIcEEEE, symObjAddr: 0x1370, symBinAddr: 0x100004CE4, symSize: 0x7C4 }
  - { offset: 0x39E02, size: 0x8, addend: 0x0, symName: __ZN4game17load_item_aliasesERKNSt3__112basic_stringIcNS0_11char_traitsIcEENS0_9allocatorIcEEEE, symObjAddr: 0x1B34, symBinAddr: 0x1000054A8, symSize: 0x494 }
  - { offset: 0x39EC2, size: 0x8, addend: 0x0, symName: __ZN4game22load_character_aliasesERKNSt3__112basic_stringIcNS0_11char_traitsIcEENS0_9allocatorIcEEEE, symObjAddr: 0x1FC8, symBinAddr: 0x10000593C, symSize: 0x494 }
  - { offset: 0x39F82, size: 0x8, addend: 0x0, symName: __ZN4game23load_required_treasuresERKNSt3__112basic_stringIcNS0_11char_traitsIcEENS0_9allocatorIcEEEE, symObjAddr: 0x245C, symBinAddr: 0x100005DD0, symSize: 0x230 }
  - { offset: 0x39FDF, size: 0x8, addend: 0x0, symName: __ZN4game3runEv, symObjAddr: 0x268C, symBinAddr: 0x100006000, symSize: 0x9C4 }
  - { offset: 0x3A1D9, size: 0x8, addend: 0x0, symName: __ZNSt3__112basic_stringIcNS_11char_traitsIcEENS_9allocatorIcEEEC1B8ne180100Ev, symObjAddr: 0x3098, symBinAddr: 0x100006A0C, symSize: 0x2C }
  - { offset: 0x3A203, size: 0x8, addend: 0x0, symName: __ZNSt3__113unordered_mapINS_12basic_stringIcNS_11char_traitsIcEENS_9allocatorIcEEEEbNS_4hashIS6_EENS_8equal_toIS6_EENS4_INS_4pairIKS6_bEEEEEixERSC_, symObjAddr: 0x30C4, symBinAddr: 0x100006A38, symSize: 0x80 }
  - { offset: 0x3A23B, size: 0x8, addend: 0x0, symName: __ZNSt3__13mapINS_12basic_stringIcNS_11char_traitsIcEENS_9allocatorIcEEEE4roomNS_4lessIS6_EENS4_INS_4pairIKS6_S7_EEEEEixERSB_, symObjAddr: 0x3190, symBinAddr: 0x100006B04, symSize: 0x80 }
  - { offset: 0x3A273, size: 0x8, addend: 0x0, symName: __ZNKSt3__13mapINS_12basic_stringIcNS_11char_traitsIcEENS_9allocatorIcEEEES6_NS_4lessIS6_EENS4_INS_4pairIKS6_S6_EEEEE5emptyB8ne180100Ev, symObjAddr: 0x3210, symBinAddr: 0x100006B84, symSize: 0x34 }
  - { offset: 0x3A299, size: 0x8, addend: 0x0, symName: __ZNKSt3__13mapINS_12basic_stringIcNS_11char_traitsIcEENS_9allocatorIcEEEES6_NS_4lessIS6_EENS4_INS_4pairIKS6_S6_EEEEE5beginB8ne180100Ev, symObjAddr: 0x3244, symBinAddr: 0x100006BB8, symSize: 0x38 }
  - { offset: 0x3A2BF, size: 0x8, addend: 0x0, symName: __ZNKSt3__13mapINS_12basic_stringIcNS_11char_traitsIcEENS_9allocatorIcEEEES6_NS_4lessIS6_EENS4_INS_4pairIKS6_S6_EEEEE3endB8ne180100Ev, symObjAddr: 0x327C, symBinAddr: 0x100006BF0, symSize: 0x38 }
  - { offset: 0x3A2E5, size: 0x8, addend: 0x0, symName: __ZNKSt3__120__map_const_iteratorINS_21__tree_const_iteratorINS_12__value_typeINS_12basic_stringIcNS_11char_traitsIcEENS_9allocatorIcEEEES8_EEPNS_11__tree_nodeIS9_PvEElEEEdeB8ne180100Ev, symObjAddr: 0x32E4, symBinAddr: 0x100006C58, symSize: 0x28 }
  - { offset: 0x3A30B, size: 0x8, addend: 0x0, symName: __ZNSt3__120__map_const_iteratorINS_21__tree_const_iteratorINS_12__value_typeINS_12basic_stringIcNS_11char_traitsIcEENS_9allocatorIcEEEES8_EEPNS_11__tree_nodeIS9_PvEElEEEppB8ne180100Ev, symObjAddr: 0x3354, symBinAddr: 0x100006CC8, symSize: 0x2C }
  - { offset: 0x3A331, size: 0x8, addend: 0x0, symName: __ZNKSt3__113unordered_mapINS_12basic_stringIcNS_11char_traitsIcEENS_9allocatorIcEEEENS_6vectorIS6_NS4_IS6_EEEENS_4hashIS6_EENS_8equal_toIS6_EENS4_INS_4pairIKS6_S9_EEEEE5countB8ne180100ERSF_, symObjAddr: 0x3380, symBinAddr: 0x100006CF4, symSize: 0x2C }
  - { offset: 0x3A367, size: 0x8, addend: 0x0, symName: __ZNSt3__113unordered_mapINS_12basic_stringIcNS_11char_traitsIcEENS_9allocatorIcEEEENS_6vectorIS6_NS4_IS6_EEEENS_4hashIS6_EENS_8equal_toIS6_EENS4_INS_4pairIKS6_S9_EEEEEixERSF_, symObjAddr: 0x33AC, symBinAddr: 0x100006D20, symSize: 0x80 }
  - { offset: 0x3A39F, size: 0x8, addend: 0x0, symName: __ZNSt3__16vectorINS_12basic_stringIcNS_11char_traitsIcEENS_9allocatorIcEEEENS4_IS6_EEE5beginB8ne180100Ev, symObjAddr: 0x342C, symBinAddr: 0x100006DA0, symSize: 0x30 }
  - { offset: 0x3A3C7, size: 0x8, addend: 0x0, symName: __ZNSt3__16vectorINS_12basic_stringIcNS_11char_traitsIcEENS_9allocatorIcEEEENS4_IS6_EEE3endB8ne180100Ev, symObjAddr: 0x345C, symBinAddr: 0x100006DD0, symSize: 0x30 }
  - { offset: 0x3A3EF, size: 0x8, addend: 0x0, symName: __ZNKSt3__111__wrap_iterIPNS_12basic_stringIcNS_11char_traitsIcEENS_9allocatorIcEEEEEdeB8ne180100Ev, symObjAddr: 0x34C0, symBinAddr: 0x100006E34, symSize: 0x18 }
  - { offset: 0x3A415, size: 0x8, addend: 0x0, symName: __ZNSt3__113unordered_mapINS_12basic_stringIcNS_11char_traitsIcEENS_9allocatorIcEEEE9characterNS_4hashIS6_EENS_8equal_toIS6_EENS4_INS_4pairIKS6_S7_EEEEEixERSD_, symObjAddr: 0x34D8, symBinAddr: 0x100006E4C, symSize: 0x80 }
  - { offset: 0x3A44D, size: 0x8, addend: 0x0, symName: __ZNSt3__111__wrap_iterIPNS_12basic_stringIcNS_11char_traitsIcEENS_9allocatorIcEEEEEppB8ne180100Ev, symObjAddr: 0x3558, symBinAddr: 0x100006ECC, symSize: 0x20 }
  - { offset: 0x3A473, size: 0x8, addend: 0x0, symName: __ZNSt3__113unordered_mapINS_12basic_stringIcNS_11char_traitsIcEENS_9allocatorIcEEEE4itemNS_4hashIS6_EENS_8equal_toIS6_EENS4_INS_4pairIKS6_S7_EEEEEixERSD_, symObjAddr: 0x3578, symBinAddr: 0x100006EEC, symSize: 0x80 }
  - { offset: 0x3A4AB, size: 0x8, addend: 0x0, symName: __ZNKSt3__16vectorINS_12basic_stringIcNS_11char_traitsIcEENS_9allocatorIcEEEENS4_IS6_EEE5emptyB8ne180100Ev, symObjAddr: 0x35F8, symBinAddr: 0x100006F6C, symSize: 0x28 }
  - { offset: 0x3A4D1, size: 0x8, addend: 0x0, symName: __ZN4game11show_statusEv, symObjAddr: 0x3620, symBinAddr: 0x100006F94, symSize: 0x2E4 }
  - { offset: 0x3A5AA, size: 0x8, addend: 0x0, symName: __ZNSt3__13mapINS_12basic_stringIcNS_11char_traitsIcEENS_9allocatorIcEEEES6_NS_4lessIS6_EENS4_INS_4pairIKS6_S6_EEEEED1B8ne180100Ev, symObjAddr: 0x3960, symBinAddr: 0x1000072D4, symSize: 0x2C }
  - { offset: 0x3A887, size: 0x8, addend: 0x0, symName: __ZNSt3__114basic_ifstreamIcNS_11char_traitsIcEEEC1ERKNS_12basic_stringIcS2_NS_9allocatorIcEEEEj, symObjAddr: 0x398C, symBinAddr: 0x100007300, symSize: 0x164 }
  - { offset: 0x3A8D3, size: 0x8, addend: 0x0, symName: __ZNKSt3__114basic_ifstreamIcNS_11char_traitsIcEEE7is_openEv, symObjAddr: 0x3AF0, symBinAddr: 0x100007464, symSize: 0x2C }
  - { offset: 0x3A8FB, size: 0x8, addend: 0x0, symName: __ZNKSt3__19basic_iosIcNS_11char_traitsIcEEEcvbB8ne180100Ev, symObjAddr: 0x3B1C, symBinAddr: 0x100007490, symSize: 0x2C }
  - { offset: 0x3A921, size: 0x8, addend: 0x0, symName: __ZNKSt3__112basic_stringIcNS_11char_traitsIcEENS_9allocatorIcEEE5emptyB8ne180100Ev, symObjAddr: 0x3B48, symBinAddr: 0x1000074BC, symSize: 0x30 }
  - { offset: 0x3A947, size: 0x8, addend: 0x0, symName: __ZNSt3__112basic_stringIcNS_11char_traitsIcEENS_9allocatorIcEEEixB8ne180100Em, symObjAddr: 0x3B78, symBinAddr: 0x1000074EC, symSize: 0x48 }
  - { offset: 0x3A9CD, size: 0x8, addend: 0x0, symName: __ZNSt3__119basic_istringstreamIcNS_11char_traitsIcEENS_9allocatorIcEEEC1B8ne180100ERKNS_12basic_stringIcS2_S4_EEj, symObjAddr: 0x3BC0, symBinAddr: 0x100007534, symSize: 0xF4 }
  - { offset: 0x3AA17, size: 0x8, addend: 0x0, symName: __ZNKSt3__112basic_stringIcNS_11char_traitsIcEENS_9allocatorIcEEE6substrB8ne180100Emm, symObjAddr: 0x3EEC, symBinAddr: 0x100007860, symSize: 0x68 }
  - { offset: 0x3AA62, size: 0x8, addend: 0x0, symName: __ZN4roomaSERKS_, symObjAddr: 0x3F54, symBinAddr: 0x1000078C8, symSize: 0x114 }
  - { offset: 0x3AA98, size: 0x8, addend: 0x0, symName: __ZNSt3__119basic_istringstreamIcNS_11char_traitsIcEENS_9allocatorIcEEED1Ev, symObjAddr: 0x4068, symBinAddr: 0x1000079DC, symSize: 0x40 }
  - { offset: 0x3AAC5, size: 0x8, addend: 0x0, symName: __ZNSt3__112basic_stringIcNS_11char_traitsIcEENS_9allocatorIcEEEaSB8ne180100EPKc, symObjAddr: 0x40A8, symBinAddr: 0x100007A1C, symSize: 0x2C }
  - { offset: 0x3AB00, size: 0x8, addend: 0x0, symName: __ZNSt3__114basic_ifstreamIcNS_11char_traitsIcEEED1Ev, symObjAddr: 0x40D4, symBinAddr: 0x100007A48, symSize: 0x40 }
  - { offset: 0x3AB32, size: 0x8, addend: 0x0, symName: __ZN4itemaSERKS_, symObjAddr: 0x4114, symBinAddr: 0x100007A88, symSize: 0x7C }
  - { offset: 0x3AB63, size: 0x8, addend: 0x0, symName: __ZNSt3__16vectorINS_12basic_stringIcNS_11char_traitsIcEENS_9allocatorIcEEEENS4_IS6_EEE9push_backB8ne180100ERKS6_, symObjAddr: 0x4190, symBinAddr: 0x100007B04, symSize: 0x90 }
  - { offset: 0x3ABAB, size: 0x8, addend: 0x0, symName: __ZNSt3__112basic_stringIcNS_11char_traitsIcEENS_9allocatorIcEEE5beginB8ne180100Ev, symObjAddr: 0x42B8, symBinAddr: 0x100007C2C, symSize: 0x4C }
  - { offset: 0x3ABD1, size: 0x8, addend: 0x0, symName: __ZNSt3__112basic_stringIcNS_11char_traitsIcEENS_9allocatorIcEEE3endB8ne180100Ev, symObjAddr: 0x4304, symBinAddr: 0x100007C78, symSize: 0x54 }
  - { offset: 0x3ABF6, size: 0x8, addend: 0x0, symName: __Z7toloweri, symObjAddr: 0x4358, symBinAddr: 0x100007CCC, symSize: 0x24 }
  - { offset: 0x3AC26, size: 0x8, addend: 0x0, symName: __ZNSt3__113unordered_mapINS_12basic_stringIcNS_11char_traitsIcEENS_9allocatorIcEEEES6_NS_4hashIS6_EENS_8equal_toIS6_EENS4_INS_4pairIKS6_S6_EEEEEixERSC_, symObjAddr: 0x437C, symBinAddr: 0x100007CF0, symSize: 0x80 }
  - { offset: 0x3AC5E, size: 0x8, addend: 0x0, symName: __ZNSt3__112basic_stringIcNS_11char_traitsIcEENS_9allocatorIcEEE5eraseB8ne180100ENS_11__wrap_iterIPKcEES9_, symObjAddr: 0x43FC, symBinAddr: 0x100007D70, symSize: 0x98 }
  - { offset: 0x3ACC5, size: 0x8, addend: 0x0, symName: __Z7isspacei, symObjAddr: 0x45A8, symBinAddr: 0x100007F1C, symSize: 0x28 }
  - { offset: 0x3ACFA, size: 0x8, addend: 0x0, symName: __ZNSt3__111__wrap_iterIPKcEC1B8ne180100IPcLi0EEERKNS0_IT_EE, symObjAddr: 0x45D0, symBinAddr: 0x100007F44, symSize: 0x34 }
  - { offset: 0x3AD41, size: 0x8, addend: 0x0, symName: __ZN4itemD1Ev, symObjAddr: 0x4604, symBinAddr: 0x100007F78, symSize: 0x2C }
  - { offset: 0x3AD6D, size: 0x8, addend: 0x0, symName: __ZNSt3__16vectorINS_12basic_stringIcNS_11char_traitsIcEENS_9allocatorIcEEEENS4_IS6_EEEC1B8ne180100Ev, symObjAddr: 0x46DC, symBinAddr: 0x100008050, symSize: 0x2C }
  - { offset: 0x3AD9C, size: 0x8, addend: 0x0, symName: __ZN9characteraSERKS_, symObjAddr: 0x4708, symBinAddr: 0x10000807C, symSize: 0xB4 }
  - { offset: 0x3ADCD, size: 0x8, addend: 0x0, symName: __ZN9characterD1Ev, symObjAddr: 0x47BC, symBinAddr: 0x100008130, symSize: 0x2C }
  - { offset: 0x3ADF9, size: 0x8, addend: 0x0, symName: __ZN4game13handle_combatER9characterRKNSt3__112basic_stringIcNS2_11char_traitsIcEENS2_9allocatorIcEEEEi, symObjAddr: 0x47E8, symBinAddr: 0x10000815C, symSize: 0x358 }
  - { offset: 0x3AEE5, size: 0x8, addend: 0x0, symName: __ZNSt3__16vectorINS_12basic_stringIcNS_11char_traitsIcEENS_9allocatorIcEEEENS4_IS6_EEE5eraseB8ne180100ENS_11__wrap_iterIPKS6_EE, symObjAddr: 0x4BB8, symBinAddr: 0x10000852C, symSize: 0x9C }
  - { offset: 0x3AF42, size: 0x8, addend: 0x0, symName: __ZNSt3__111__wrap_iterIPKNS_12basic_stringIcNS_11char_traitsIcEENS_9allocatorIcEEEEEC1B8ne180100IPS6_Li0EEERKNS0_IT_EE, symObjAddr: 0x4C54, symBinAddr: 0x1000085C8, symSize: 0x34 }
  - { offset: 0x3AF89, size: 0x8, addend: 0x0, symName: __ZNKSt3__19basic_iosIcNS_11char_traitsIcEEEntB8ne180100Ev, symObjAddr: 0x4C88, symBinAddr: 0x1000085FC, symSize: 0x28 }
  - { offset: 0x3AFAE, size: 0x8, addend: 0x0, symName: __Z7ispuncti, symObjAddr: 0x4CB0, symBinAddr: 0x100008624, symSize: 0x28 }
  - { offset: 0x3AFDE, size: 0x8, addend: 0x0, symName: __ZN4game15resolve_item_idERKNSt3__112basic_stringIcNS0_11char_traitsIcEENS0_9allocatorIcEEEE, symObjAddr: 0x4CD8, symBinAddr: 0x10000864C, symSize: 0x1E0 }
  - { offset: 0x3B027, size: 0x8, addend: 0x0, symName: __ZNKSt3__113unordered_mapINS_12basic_stringIcNS_11char_traitsIcEENS_9allocatorIcEEEES6_NS_4hashIS6_EENS_8equal_toIS6_EENS4_INS_4pairIKS6_S6_EEEEE5countB8ne180100ERSC_, symObjAddr: 0x4EB8, symBinAddr: 0x10000882C, symSize: 0x2C }
  - { offset: 0x3B05D, size: 0x8, addend: 0x0, symName: __ZN4game20resolve_character_idERKNSt3__112basic_stringIcNS0_11char_traitsIcEENS0_9allocatorIcEEEE, symObjAddr: 0x4EE4, symBinAddr: 0x100008858, symSize: 0x1E0 }
  - { offset: 0x3B0A6, size: 0x8, addend: 0x0, symName: __ZNSt3__110__get_pairILm0EE3getB8ne180100IKNS_12basic_stringIcNS_11char_traitsIcEENS_9allocatorIcEEEES8_EERKT_RKNS_4pairISA_T0_EE, symObjAddr: 0x50C4, symBinAddr: 0x100008A38, symSize: 0x14 }
  - { offset: 0x3B0DD, size: 0x8, addend: 0x0, symName: __ZNSt3__110__get_pairILm1EE3getB8ne180100IKNS_12basic_stringIcNS_11char_traitsIcEENS_9allocatorIcEEEES8_EERKT0_RKNS_4pairIT_SA_EE, symObjAddr: 0x50D8, symBinAddr: 0x100008A4C, symSize: 0x18 }
  - { offset: 0x3B114, size: 0x8, addend: 0x0, symName: __ZNKSt3__111__wrap_iterIPNS_12basic_stringIcNS_11char_traitsIcEENS_9allocatorIcEEEEE4baseB8ne180100Ev, symObjAddr: 0x5138, symBinAddr: 0x100008AAC, symSize: 0x18 }
  - { offset: 0x3B13A, size: 0x8, addend: 0x0, symName: __ZNSt3__13mapINS_12basic_stringIcNS_11char_traitsIcEENS_9allocatorIcEEEES6_NS_4lessIS6_EENS4_INS_4pairIKS6_S6_EEEEEaSB8ne180100ERKSD_, symObjAddr: 0x5150, symBinAddr: 0x100008AC4, symSize: 0x34 }
  - { offset: 0x3B170, size: 0x8, addend: 0x0, symName: __ZNSt3__113unordered_mapINS_12basic_stringIcNS_11char_traitsIcEENS_9allocatorIcEEEENS_6vectorIS6_NS4_IS6_EEEENS_4hashIS6_EENS_8equal_toIS6_EENS4_INS_4pairIKS6_S9_EEEEEaSB8ne180100ERKSI_, symObjAddr: 0x5184, symBinAddr: 0x100008AF8, symSize: 0x34 }
  - { offset: 0x3B1A6, size: 0x8, addend: 0x0, symName: __ZNSt3__113unordered_mapINS_12basic_stringIcNS_11char_traitsIcEENS_9allocatorIcEEEEbNS_4hashIS6_EENS_8equal_toIS6_EENS4_INS_4pairIKS6_bEEEEEaSB8ne180100ERKSF_, symObjAddr: 0x51B8, symBinAddr: 0x100008B2C, symSize: 0x34 }
  - { offset: 0x3B1DC, size: 0x8, addend: 0x0, symName: __ZNSt3__13mapINS_12basic_stringIcNS_11char_traitsIcEENS_9allocatorIcEEEE4roomNS_4lessIS6_EENS4_INS_4pairIKS6_S7_EEEEEaSB8ne180100ERKSE_, symObjAddr: 0x51EC, symBinAddr: 0x100008B60, symSize: 0x34 }
  - { offset: 0x3B212, size: 0x8, addend: 0x0, symName: __ZNSt3__16__treeINS_12__value_typeINS_12basic_stringIcNS_11char_traitsIcEENS_9allocatorIcEEEES7_EENS_19__map_value_compareIS7_S8_NS_4lessIS7_EELb1EEENS5_IS8_EEEaSERKSE_, symObjAddr: 0x5220, symBinAddr: 0x100008B94, symSize: 0x8C }
  - { offset: 0x3B24A, size: 0x8, addend: 0x0, symName: __ZNKSt3__16__treeINS_12__value_typeINS_12basic_stringIcNS_11char_traitsIcEENS_9allocatorIcEEEES7_EENS_19__map_value_compareIS7_S8_NS_4lessIS7_EELb1EEENS5_IS8_EEE10value_compB8ne180100Ev, symObjAddr: 0x52AC, symBinAddr: 0x100008C20, symSize: 0x28 }
  - { offset: 0x3B270, size: 0x8, addend: 0x0, symName: __ZNSt3__16__treeINS_12__value_typeINS_12basic_stringIcNS_11char_traitsIcEENS_9allocatorIcEEEES7_EENS_19__map_value_compareIS7_S8_NS_4lessIS7_EELb1EEENS5_IS8_EEE10value_compB8ne180100Ev, symObjAddr: 0x52D4, symBinAddr: 0x100008C48, symSize: 0x28 }
  - { offset: 0x3B296, size: 0x8, addend: 0x0, symName: __ZNSt3__16__treeINS_12__value_typeINS_12basic_stringIcNS_11char_traitsIcEENS_9allocatorIcEEEES7_EENS_19__map_value_compareIS7_S8_NS_4lessIS7_EELb1EEENS5_IS8_EEE19__copy_assign_allocB8ne180100ERKSE_, symObjAddr: 0x52FC, symBinAddr: 0x100008C70, symSize: 0x2C }
  - { offset: 0x3B2CC, size: 0x8, addend: 0x0, symName: __ZNSt3__16__treeINS_12__value_typeINS_12basic_stringIcNS_11char_traitsIcEENS_9allocatorIcEEEES7_EENS_19__map_value_compareIS7_S8_NS_4lessIS7_EELb1EEENS5_IS8_EEE14__assign_multiINS_21__tree_const_iteratorIS8_PNS_11__tree_nodeIS8_PvEElEEEEvT_SM_, symObjAddr: 0x5328, symBinAddr: 0x100008C9C, symSize: 0x178 }
  - { offset: 0x3B334, size: 0x8, addend: 0x0, symName: __ZNKSt3__16__treeINS_12__value_typeINS_12basic_stringIcNS_11char_traitsIcEENS_9allocatorIcEEEES7_EENS_19__map_value_compareIS7_S8_NS_4lessIS7_EELb1EEENS5_IS8_EEE5beginB8ne180100Ev, symObjAddr: 0x54A0, symBinAddr: 0x100008E14, symSize: 0x34 }
  - { offset: 0x3B35A, size: 0x8, addend: 0x0, symName: __ZNKSt3__16__treeINS_12__value_typeINS_12basic_stringIcNS_11char_traitsIcEENS_9allocatorIcEEEES7_EENS_19__map_value_compareIS7_S8_NS_4lessIS7_EELb1EEENS5_IS8_EEE3endB8ne180100Ev, symObjAddr: 0x54D4, symBinAddr: 0x100008E48, symSize: 0x34 }
  - { offset: 0x3B380, size: 0x8, addend: 0x0, symName: __ZNKSt3__117__compressed_pairImNS_19__map_value_compareINS_12basic_stringIcNS_11char_traitsIcEENS_9allocatorIcEEEENS_12__value_typeIS7_S7_EENS_4lessIS7_EELb1EEEE6secondB8ne180100Ev, symObjAddr: 0x5508, symBinAddr: 0x100008E7C, symSize: 0x24 }
  - { offset: 0x3B3A6, size: 0x8, addend: 0x0, symName: __ZNKSt3__122__compressed_pair_elemINS_19__map_value_compareINS_12basic_stringIcNS_11char_traitsIcEENS_9allocatorIcEEEENS_12__value_typeIS7_S7_EENS_4lessIS7_EELb1EEELi1ELb1EE5__getB8ne180100Ev, symObjAddr: 0x552C, symBinAddr: 0x100008EA0, symSize: 0x14 }
  - { offset: 0x3B3CC, size: 0x8, addend: 0x0, symName: __ZNSt3__117__compressed_pairImNS_19__map_value_compareINS_12basic_stringIcNS_11char_traitsIcEENS_9allocatorIcEEEENS_12__value_typeIS7_S7_EENS_4lessIS7_EELb1EEEE6secondB8ne180100Ev, symObjAddr: 0x5540, symBinAddr: 0x100008EB4, symSize: 0x24 }
  - { offset: 0x3B3F2, size: 0x8, addend: 0x0, symName: __ZNSt3__122__compressed_pair_elemINS_19__map_value_compareINS_12basic_stringIcNS_11char_traitsIcEENS_9allocatorIcEEEENS_12__value_typeIS7_S7_EENS_4lessIS7_EELb1EEELi1ELb1EE5__getB8ne180100Ev, symObjAddr: 0x5564, symBinAddr: 0x100008ED8, symSize: 0x14 }
  - { offset: 0x3B418, size: 0x8, addend: 0x0, symName: __ZNSt3__16__treeINS_12__value_typeINS_12basic_stringIcNS_11char_traitsIcEENS_9allocatorIcEEEES7_EENS_19__map_value_compareIS7_S8_NS_4lessIS7_EELb1EEENS5_IS8_EEE19__copy_assign_allocB8ne180100ERKSE_NS_17integral_constantIbLb0EEE, symObjAddr: 0x5578, symBinAddr: 0x100008EEC, symSize: 0x14 }
  - { offset: 0x3B456, size: 0x8, addend: 0x0, symName: __ZNSt3__16__treeINS_12__value_typeINS_12basic_stringIcNS_11char_traitsIcEENS_9allocatorIcEEEES7_EENS_19__map_value_compareIS7_S8_NS_4lessIS7_EELb1EEENS5_IS8_EEE4sizeB8ne180100Ev, symObjAddr: 0x558C, symBinAddr: 0x100008F00, symSize: 0x28 }
  - { offset: 0x3B49A, size: 0x8, addend: 0x0, symName: __ZNSt3__16__treeINS_12__value_typeINS_12basic_stringIcNS_11char_traitsIcEENS_9allocatorIcEEEES7_EENS_19__map_value_compareIS7_S8_NS_4lessIS7_EELb1EEENS5_IS8_EEE18_DetachedTreeCacheC1B8ne180100EPSE_, symObjAddr: 0x55B4, symBinAddr: 0x100008F28, symSize: 0x34 }
  - { offset: 0x3B4D4, size: 0x8, addend: 0x0, symName: __ZNKSt3__16__treeINS_12__value_typeINS_12basic_stringIcNS_11char_traitsIcEENS_9allocatorIcEEEES7_EENS_19__map_value_compareIS7_S8_NS_4lessIS7_EELb1EEENS5_IS8_EEE18_DetachedTreeCache5__getB8ne180100Ev, symObjAddr: 0x55E8, symBinAddr: 0x100008F5C, symSize: 0x18 }
  - { offset: 0x3B4FA, size: 0x8, addend: 0x0, symName: __ZNKSt3__121__tree_const_iteratorINS_12__value_typeINS_12basic_stringIcNS_11char_traitsIcEENS_9allocatorIcEEEES7_EEPNS_11__tree_nodeIS8_PvEElEdeB8ne180100Ev, symObjAddr: 0x5634, symBinAddr: 0x100008FA8, symSize: 0x28 }
  - { offset: 0x3B520, size: 0x8, addend: 0x0, symName: __ZNSt3__112__value_typeINS_12basic_stringIcNS_11char_traitsIcEENS_9allocatorIcEEEES6_EaSB8ne180100ERKS7_, symObjAddr: 0x565C, symBinAddr: 0x100008FD0, symSize: 0x60 }
  - { offset: 0x3B556, size: 0x8, addend: 0x0, symName: __ZNSt3__16__treeINS_12__value_typeINS_12basic_stringIcNS_11char_traitsIcEENS_9allocatorIcEEEES7_EENS_19__map_value_compareIS7_S8_NS_4lessIS7_EELb1EEENS5_IS8_EEE19__node_insert_multiEPNS_11__tree_nodeIS8_PvEE, symObjAddr: 0x56BC, symBinAddr: 0x100009030, symSize: 0x70 }
  - { offset: 0x3B5AE, size: 0x8, addend: 0x0, symName: __ZNSt3__16__treeINS_12__value_typeINS_12basic_stringIcNS_11char_traitsIcEENS_9allocatorIcEEEES7_EENS_19__map_value_compareIS7_S8_NS_4lessIS7_EELb1EEENS5_IS8_EEE18_DetachedTreeCache9__advanceB8ne180100Ev, symObjAddr: 0x572C, symBinAddr: 0x1000090A0, symSize: 0x58 }
  - { offset: 0x3B5D4, size: 0x8, addend: 0x0, symName: __ZNSt3__121__tree_const_iteratorINS_12__value_typeINS_12basic_stringIcNS_11char_traitsIcEENS_9allocatorIcEEEES7_EEPNS_11__tree_nodeIS8_PvEElEppB8ne180100Ev, symObjAddr: 0x5784, symBinAddr: 0x1000090F8, symSize: 0x38 }
  - { offset: 0x3B5FA, size: 0x8, addend: 0x0, symName: __ZNSt3__16__treeINS_12__value_typeINS_12basic_stringIcNS_11char_traitsIcEENS_9allocatorIcEEEES7_EENS_19__map_value_compareIS7_S8_NS_4lessIS7_EELb1EEENS5_IS8_EEE18_DetachedTreeCacheD1B8ne180100Ev, symObjAddr: 0x57BC, symBinAddr: 0x100009130, symSize: 0x2C }
  - { offset: 0x3B624, size: 0x8, addend: 0x0, symName: __ZNSt3__16__treeINS_12__value_typeINS_12basic_stringIcNS_11char_traitsIcEENS_9allocatorIcEEEES7_EENS_19__map_value_compareIS7_S8_NS_4lessIS7_EELb1EEENS5_IS8_EEE14__insert_multiB8ne180100IRKNS_4pairIKS7_S7_EEEENS_15__tree_iteratorIS8_PNS_11__tree_nodeIS8_PvEElEEOT_, symObjAddr: 0x57E8, symBinAddr: 0x10000915C, symSize: 0x34 }
  - { offset: 0x3B663, size: 0x8, addend: 0x0, symName: __ZNSt3__122__tree_key_value_typesINS_12__value_typeINS_12basic_stringIcNS_11char_traitsIcEENS_9allocatorIcEEEES7_EEE11__get_valueB8ne180100ERKS8_, symObjAddr: 0x581C, symBinAddr: 0x100009190, symSize: 0x24 }
  - { offset: 0x3B688, size: 0x8, addend: 0x0, symName: __ZNSt3__117__compressed_pairImNS_19__map_value_compareINS_12basic_stringIcNS_11char_traitsIcEENS_9allocatorIcEEEENS_12__value_typeIS7_S7_EENS_4lessIS7_EELb1EEEE5firstB8ne180100Ev, symObjAddr: 0x5840, symBinAddr: 0x1000091B4, symSize: 0x24 }
  - { offset: 0x3B6AE, size: 0x8, addend: 0x0, symName: __ZNSt3__122__compressed_pair_elemImLi0ELb0EE5__getB8ne180100Ev, symObjAddr: 0x5864, symBinAddr: 0x1000091D8, symSize: 0x14 }
  - { offset: 0x3B6D4, size: 0x8, addend: 0x0, symName: __ZNSt3__16__treeINS_12__value_typeINS_12basic_stringIcNS_11char_traitsIcEENS_9allocatorIcEEEES7_EENS_19__map_value_compareIS7_S8_NS_4lessIS7_EELb1EEENS5_IS8_EEE18_DetachedTreeCacheC2B8ne180100EPSE_, symObjAddr: 0x5878, symBinAddr: 0x1000091EC, symSize: 0x4C }
  - { offset: 0x3B70E, size: 0x8, addend: 0x0, symName: __ZNSt3__16__treeINS_12__value_typeINS_12basic_stringIcNS_11char_traitsIcEENS_9allocatorIcEEEES7_EENS_19__map_value_compareIS7_S8_NS_4lessIS7_EELb1EEENS5_IS8_EEE18_DetachedTreeCache18__detach_from_treeEPSE_, symObjAddr: 0x58C4, symBinAddr: 0x100009238, symSize: 0xA0 }
  - { offset: 0x3B745, size: 0x8, addend: 0x0, symName: __ZNSt3__16__treeINS_12__value_typeINS_12basic_stringIcNS_11char_traitsIcEENS_9allocatorIcEEEES7_EENS_19__map_value_compareIS7_S8_NS_4lessIS7_EELb1EEENS5_IS8_EEE12__begin_nodeB8ne180100Ev, symObjAddr: 0x5964, symBinAddr: 0x1000092D8, symSize: 0x14 }
  - { offset: 0x3B76B, size: 0x8, addend: 0x0, symName: __ZNSt3__16__treeINS_12__value_typeINS_12basic_stringIcNS_11char_traitsIcEENS_9allocatorIcEEEES7_EENS_19__map_value_compareIS7_S8_NS_4lessIS7_EELb1EEENS5_IS8_EEE10__end_nodeB8ne180100Ev, symObjAddr: 0x5978, symBinAddr: 0x1000092EC, symSize: 0x2C }
  - { offset: 0x3B791, size: 0x8, addend: 0x0, symName: __ZNSt3__114pointer_traitsIPNS_15__tree_end_nodeIPNS_16__tree_node_baseIPvEEEEE10pointer_toB8ne180100ERS6_, symObjAddr: 0x59A4, symBinAddr: 0x100009318, symSize: 0x14 }
  - { offset: 0x3B7B4, size: 0x8, addend: 0x0, symName: __ZNSt3__117__compressed_pairINS_15__tree_end_nodeIPNS_16__tree_node_baseIPvEEEENS_9allocatorINS_11__tree_nodeINS_12__value_typeINS_12basic_stringIcNS_11char_traitsIcEENS7_IcEEEESE_EES3_EEEEE5firstB8ne180100Ev, symObjAddr: 0x59B8, symBinAddr: 0x10000932C, symSize: 0x24 }
  - { offset: 0x3B7DA, size: 0x8, addend: 0x0, symName: __ZNSt3__122__compressed_pair_elemINS_15__tree_end_nodeIPNS_16__tree_node_baseIPvEEEELi0ELb0EE5__getB8ne180100Ev, symObjAddr: 0x59DC, symBinAddr: 0x100009350, symSize: 0x14 }
  - { offset: 0x3B800, size: 0x8, addend: 0x0, symName: __ZNKSt3__121__tree_const_iteratorINS_12__value_typeINS_12basic_stringIcNS_11char_traitsIcEENS_9allocatorIcEEEES7_EEPNS_11__tree_nodeIS8_PvEElE8__get_npB8ne180100Ev, symObjAddr: 0x5A20, symBinAddr: 0x100009394, symSize: 0x18 }
  - { offset: 0x3B826, size: 0x8, addend: 0x0, symName: __ZNKSt3__112__value_typeINS_12basic_stringIcNS_11char_traitsIcEENS_9allocatorIcEEEES6_E11__get_valueB8ne180100Ev, symObjAddr: 0x5A38, symBinAddr: 0x1000093AC, symSize: 0x24 }
  - { offset: 0x3B84C, size: 0x8, addend: 0x0, symName: __ZNSt3__112__value_typeINS_12basic_stringIcNS_11char_traitsIcEENS_9allocatorIcEEEES6_E5__refB8ne180100Ev, symObjAddr: 0x5A5C, symBinAddr: 0x1000093D0, symSize: 0x44 }
  - { offset: 0x3B882, size: 0x8, addend: 0x0, symName: __ZNSt3__14pairIRNS_12basic_stringIcNS_11char_traitsIcEENS_9allocatorIcEEEES7_EaSB8ne180100IKS6_S6_LPv0EEERS8_RKNS0_IT_T0_EE, symObjAddr: 0x5AA0, symBinAddr: 0x100009414, symSize: 0x4C }
  - { offset: 0x3B8D0, size: 0x8, addend: 0x0, symName: __ZNSt3__112__value_typeINS_12basic_stringIcNS_11char_traitsIcEENS_9allocatorIcEEEES6_E11__get_valueB8ne180100Ev, symObjAddr: 0x5B24, symBinAddr: 0x100009498, symSize: 0x24 }
  - { offset: 0x3B8F6, size: 0x8, addend: 0x0, symName: __ZNSt3__14pairIRNS_12basic_stringIcNS_11char_traitsIcEENS_9allocatorIcEEEES7_EC1B8ne180100ILb1ELi0EEES7_S7_, symObjAddr: 0x5B48, symBinAddr: 0x1000094BC, symSize: 0x3C }
  - { offset: 0x3B94C, size: 0x8, addend: 0x0, symName: __ZNSt3__14pairIRNS_12basic_stringIcNS_11char_traitsIcEENS_9allocatorIcEEEES7_EC2B8ne180100ILb1ELi0EEES7_S7_, symObjAddr: 0x5BBC, symBinAddr: 0x100009530, symSize: 0x2C }
  - { offset: 0x3B9A2, size: 0x8, addend: 0x0, symName: __ZNSt3__16__treeINS_12__value_typeINS_12basic_stringIcNS_11char_traitsIcEENS_9allocatorIcEEEES7_EENS_19__map_value_compareIS7_S8_NS_4lessIS7_EELb1EEENS5_IS8_EEE16__find_leaf_highERPNS_15__tree_end_nodeIPNS_16__tree_node_baseIPvEEEERKS7_, symObjAddr: 0x5BE8, symBinAddr: 0x10000955C, symSize: 0x124 }
  - { offset: 0x3B9FA, size: 0x8, addend: 0x0, symName: __ZNSt3__122__tree_key_value_typesINS_12__value_typeINS_12basic_stringIcNS_11char_traitsIcEENS_9allocatorIcEEEES7_EEE9__get_keyB8ne180100ERKS8_, symObjAddr: 0x5D0C, symBinAddr: 0x100009680, symSize: 0x24 }
  - { offset: 0x3BA1F, size: 0x8, addend: 0x0, symName: __ZNSt3__16__treeINS_12__value_typeINS_12basic_stringIcNS_11char_traitsIcEENS_9allocatorIcEEEES7_EENS_19__map_value_compareIS7_S8_NS_4lessIS7_EELb1EEENS5_IS8_EEE16__insert_node_atEPNS_15__tree_end_nodeIPNS_16__tree_node_baseIPvEEEERSJ_SJ_, symObjAddr: 0x5D30, symBinAddr: 0x1000096A4, symSize: 0xCC }
  - { offset: 0x3BA77, size: 0x8, addend: 0x0, symName: __ZNSt3__115__tree_iteratorINS_12__value_typeINS_12basic_stringIcNS_11char_traitsIcEENS_9allocatorIcEEEES7_EEPNS_11__tree_nodeIS8_PvEElEC1B8ne180100ESC_, symObjAddr: 0x5DFC, symBinAddr: 0x100009770, symSize: 0x34 }
  - { offset: 0x3BAB1, size: 0x8, addend: 0x0, symName: __ZNKSt3__16__treeINS_12__value_typeINS_12basic_stringIcNS_11char_traitsIcEENS_9allocatorIcEEEES7_EENS_19__map_value_compareIS7_S8_NS_4lessIS7_EELb1EEENS5_IS8_EEE6__rootB8ne180100Ev, symObjAddr: 0x5E30, symBinAddr: 0x1000097A4, symSize: 0x28 }
  - { offset: 0x3BAD7, size: 0x8, addend: 0x0, symName: __ZNKSt3__119__map_value_compareINS_12basic_stringIcNS_11char_traitsIcEENS_9allocatorIcEEEENS_12__value_typeIS6_S6_EENS_4lessIS6_EELb1EEclB8ne180100ERKS6_RKS8_, symObjAddr: 0x5E58, symBinAddr: 0x1000097CC, symSize: 0x50 }
  - { offset: 0x3BB1D, size: 0x8, addend: 0x0, symName: __ZNKSt3__16__treeINS_12__value_typeINS_12basic_stringIcNS_11char_traitsIcEENS_9allocatorIcEEEES7_EENS_19__map_value_compareIS7_S8_NS_4lessIS7_EELb1EEENS5_IS8_EEE10__end_nodeB8ne180100Ev, symObjAddr: 0x5EA8, symBinAddr: 0x10000981C, symSize: 0x2C }
  - { offset: 0x3BB43, size: 0x8, addend: 0x0, symName: __ZNKSt3__117__compressed_pairINS_15__tree_end_nodeIPNS_16__tree_node_baseIPvEEEENS_9allocatorINS_11__tree_nodeINS_12__value_typeINS_12basic_stringIcNS_11char_traitsIcEENS7_IcEEEESE_EES3_EEEEE5firstB8ne180100Ev, symObjAddr: 0x5ED4, symBinAddr: 0x100009848, symSize: 0x24 }
  - { offset: 0x3BB69, size: 0x8, addend: 0x0, symName: __ZNKSt3__122__compressed_pair_elemINS_15__tree_end_nodeIPNS_16__tree_node_baseIPvEEEELi0ELb0EE5__getB8ne180100Ev, symObjAddr: 0x5EF8, symBinAddr: 0x10000986C, symSize: 0x14 }
  - { offset: 0x3BB8F, size: 0x8, addend: 0x0, symName: __ZNKSt3__14lessINS_12basic_stringIcNS_11char_traitsIcEENS_9allocatorIcEEEEEclB8ne180100ERKS6_S9_, symObjAddr: 0x5F0C, symBinAddr: 0x100009880, symSize: 0x34 }
  - { offset: 0x3BBD5, size: 0x8, addend: 0x0, symName: __ZNKSt3__112basic_stringIcNS_11char_traitsIcEENS_9allocatorIcEEE7compareB8ne180100ERKS5_, symObjAddr: 0x5F78, symBinAddr: 0x1000098EC, symSize: 0x4C }
  - { offset: 0x3BC0D, size: 0x8, addend: 0x0, symName: __ZNKSt3__112basic_stringIcNS_11char_traitsIcEENS_9allocatorIcEEE7compareINS_17basic_string_viewIcS2_EELi0EEEiRKT_, symObjAddr: 0x5FC4, symBinAddr: 0x100009938, symSize: 0x12C }
  - { offset: 0x3BC95, size: 0x8, addend: 0x0, symName: __ZNKSt3__112basic_stringIcNS_11char_traitsIcEENS_9allocatorIcEEEcvNS_17basic_string_viewIcS2_EEB8ne180100Ev, symObjAddr: 0x60F0, symBinAddr: 0x100009A64, symSize: 0x50 }
  - { offset: 0x3BCBB, size: 0x8, addend: 0x0, symName: __ZNKSt3__112basic_stringIcNS_11char_traitsIcEENS_9allocatorIcEEE4sizeB8ne180100Ev, symObjAddr: 0x6140, symBinAddr: 0x100009AB4, symSize: 0x54 }
  - { offset: 0x3BCE1, size: 0x8, addend: 0x0, symName: __ZNKSt3__117basic_string_viewIcNS_11char_traitsIcEEE4sizeB8ne180100Ev, symObjAddr: 0x6194, symBinAddr: 0x100009B08, symSize: 0x18 }
  - { offset: 0x3BD07, size: 0x8, addend: 0x0, symName: __ZNSt3__111char_traitsIcE7compareB8ne180100EPKcS3_m, symObjAddr: 0x61AC, symBinAddr: 0x100009B20, symSize: 0x34 }
  - { offset: 0x3BD46, size: 0x8, addend: 0x0, symName: __ZNKSt3__112basic_stringIcNS_11char_traitsIcEENS_9allocatorIcEEE4dataB8ne180100Ev, symObjAddr: 0x61E0, symBinAddr: 0x100009B54, symSize: 0x28 }
  - { offset: 0x3BD6C, size: 0x8, addend: 0x0, symName: __ZNKSt3__117basic_string_viewIcNS_11char_traitsIcEEE4dataB8ne180100Ev, symObjAddr: 0x6208, symBinAddr: 0x100009B7C, symSize: 0x18 }
  - { offset: 0x3BD92, size: 0x8, addend: 0x0, symName: __ZNKSt3__112basic_stringIcNS_11char_traitsIcEENS_9allocatorIcEEE9__is_longB8ne180100Ev, symObjAddr: 0x625C, symBinAddr: 0x100009BD0, symSize: 0x38 }
  - { offset: 0x3BDB8, size: 0x8, addend: 0x0, symName: __ZNKSt3__112basic_stringIcNS_11char_traitsIcEENS_9allocatorIcEEE15__get_long_sizeB8ne180100Ev, symObjAddr: 0x6294, symBinAddr: 0x100009C08, symSize: 0x28 }
  - { offset: 0x3BDDE, size: 0x8, addend: 0x0, symName: __ZNKSt3__112basic_stringIcNS_11char_traitsIcEENS_9allocatorIcEEE16__get_short_sizeB8ne180100Ev, symObjAddr: 0x62BC, symBinAddr: 0x100009C30, symSize: 0x34 }
  - { offset: 0x3BE04, size: 0x8, addend: 0x0, symName: __ZNKSt3__117__compressed_pairINS_12basic_stringIcNS_11char_traitsIcEENS_9allocatorIcEEE5__repES5_E5firstB8ne180100Ev, symObjAddr: 0x62F0, symBinAddr: 0x100009C64, symSize: 0x24 }
  - { offset: 0x3BE2A, size: 0x8, addend: 0x0, symName: __ZNKSt3__122__compressed_pair_elemINS_12basic_stringIcNS_11char_traitsIcEENS_9allocatorIcEEE5__repELi0ELb0EE5__getB8ne180100Ev, symObjAddr: 0x6314, symBinAddr: 0x100009C88, symSize: 0x14 }
  - { offset: 0x3BE50, size: 0x8, addend: 0x0, symName: __ZNKSt3__112basic_stringIcNS_11char_traitsIcEENS_9allocatorIcEEE13__get_pointerB8ne180100Ev, symObjAddr: 0x633C, symBinAddr: 0x100009CB0, symSize: 0x54 }
  - { offset: 0x3BE76, size: 0x8, addend: 0x0, symName: __ZNKSt3__112basic_stringIcNS_11char_traitsIcEENS_9allocatorIcEEE18__get_long_pointerB8ne180100Ev, symObjAddr: 0x6390, symBinAddr: 0x100009D04, symSize: 0x28 }
  - { offset: 0x3BE9C, size: 0x8, addend: 0x0, symName: __ZNKSt3__112basic_stringIcNS_11char_traitsIcEENS_9allocatorIcEEE19__get_short_pointerB8ne180100Ev, symObjAddr: 0x63B8, symBinAddr: 0x100009D2C, symSize: 0x28 }
  - { offset: 0x3BEC2, size: 0x8, addend: 0x0, symName: __ZNSt3__114pointer_traitsIPKcE10pointer_toB8ne180100ERS1_, symObjAddr: 0x63E0, symBinAddr: 0x100009D54, symSize: 0x14 }
  - { offset: 0x3BEEF, size: 0x8, addend: 0x0, symName: __ZNKSt3__16__lessIvvEclB8ne180100ImmEEbRKT_RKT0_, symObjAddr: 0x6448, symBinAddr: 0x100009DBC, symSize: 0x34 }
  - { offset: 0x3BF43, size: 0x8, addend: 0x0, symName: __ZNSt3__117basic_string_viewIcNS_11char_traitsIcEEEC1B8ne180100EPKcm, symObjAddr: 0x647C, symBinAddr: 0x100009DF0, symSize: 0x3C }
  - { offset: 0x3BF8D, size: 0x8, addend: 0x0, symName: __ZNSt3__117basic_string_viewIcNS_11char_traitsIcEEEC2B8ne180100EPKcm, symObjAddr: 0x64B8, symBinAddr: 0x100009E2C, symSize: 0x2C }
  - { offset: 0x3BFD7, size: 0x8, addend: 0x0, symName: __ZNKSt3__116__tree_node_baseIPvE15__parent_unsafeB8ne180100Ev, symObjAddr: 0x6810, symBinAddr: 0x10000A184, symSize: 0x18 }
  - { offset: 0x3BFFD, size: 0x8, addend: 0x0, symName: __ZNSt3__116__tree_node_baseIPvE12__set_parentB8ne180100EPS2_, symObjAddr: 0x69F8, symBinAddr: 0x10000A36C, symSize: 0x20 }
  - { offset: 0x3C033, size: 0x8, addend: 0x0, symName: __ZNSt3__115__tree_iteratorINS_12__value_typeINS_12basic_stringIcNS_11char_traitsIcEENS_9allocatorIcEEEES7_EEPNS_11__tree_nodeIS8_PvEElEC2B8ne180100ESC_, symObjAddr: 0x6A18, symBinAddr: 0x10000A38C, symSize: 0x20 }
  - { offset: 0x3C06D, size: 0x8, addend: 0x0, symName: __ZNSt3__16__treeINS_12__value_typeINS_12basic_stringIcNS_11char_traitsIcEENS_9allocatorIcEEEES7_EENS_19__map_value_compareIS7_S8_NS_4lessIS7_EELb1EEENS5_IS8_EEE18_DetachedTreeCache13__detach_nextEPNS_11__tree_nodeIS8_PvEE, symObjAddr: 0x6A38, symBinAddr: 0x10000A3AC, symSize: 0xF0 }
  - { offset: 0x3C094, size: 0x8, addend: 0x0, symName: __ZNSt3__16__treeINS_12__value_typeINS_12basic_stringIcNS_11char_traitsIcEENS_9allocatorIcEEEES7_EENS_19__map_value_compareIS7_S8_NS_4lessIS7_EELb1EEENS5_IS8_EEE18_DetachedTreeCacheD2B8ne180100Ev, symObjAddr: 0x6C58, symBinAddr: 0x10000A5CC, symSize: 0x9C }
  - { offset: 0x3C0BE, size: 0x8, addend: 0x0, symName: __ZNSt3__16__treeINS_12__value_typeINS_12basic_stringIcNS_11char_traitsIcEENS_9allocatorIcEEEES7_EENS_19__map_value_compareIS7_S8_NS_4lessIS7_EELb1EEENS5_IS8_EEE7destroyEPNS_11__tree_nodeIS8_PvEE, symObjAddr: 0x6CF4, symBinAddr: 0x10000A668, symSize: 0xAC }
  - { offset: 0x3C10D, size: 0x8, addend: 0x0, symName: __ZNSt3__16__treeINS_12__value_typeINS_12basic_stringIcNS_11char_traitsIcEENS_9allocatorIcEEEES7_EENS_19__map_value_compareIS7_S8_NS_4lessIS7_EELb1EEENS5_IS8_EEE12__node_allocB8ne180100Ev, symObjAddr: 0x6DA0, symBinAddr: 0x10000A714, symSize: 0x28 }
  - { offset: 0x3C133, size: 0x8, addend: 0x0, symName: __ZNSt3__116allocator_traitsINS_9allocatorINS_11__tree_nodeINS_12__value_typeINS_12basic_stringIcNS_11char_traitsIcEENS1_IcEEEES8_EEPvEEEEE7destroyB8ne180100INS_4pairIKS8_S8_EEvvEEvRSC_PT_, symObjAddr: 0x6DC8, symBinAddr: 0x10000A73C, symSize: 0x28 }
  - { offset: 0x3C16F, size: 0x8, addend: 0x0, symName: __ZNSt3__122__tree_key_value_typesINS_12__value_typeINS_12basic_stringIcNS_11char_traitsIcEENS_9allocatorIcEEEES7_EEE9__get_ptrB8ne180100ERS8_, symObjAddr: 0x6DF0, symBinAddr: 0x10000A764, symSize: 0x24 }
  - { offset: 0x3C194, size: 0x8, addend: 0x0, symName: __ZNSt3__116allocator_traitsINS_9allocatorINS_11__tree_nodeINS_12__value_typeINS_12basic_stringIcNS_11char_traitsIcEENS1_IcEEEES8_EEPvEEEEE10deallocateB8ne180100ERSC_PSB_m, symObjAddr: 0x6E14, symBinAddr: 0x10000A788, symSize: 0x34 }
  - { offset: 0x3C1D9, size: 0x8, addend: 0x0, symName: __ZNSt3__117__compressed_pairINS_15__tree_end_nodeIPNS_16__tree_node_baseIPvEEEENS_9allocatorINS_11__tree_nodeINS_12__value_typeINS_12basic_stringIcNS_11char_traitsIcEENS7_IcEEEESE_EES3_EEEEE6secondB8ne180100Ev, symObjAddr: 0x6E48, symBinAddr: 0x10000A7BC, symSize: 0x24 }
  - { offset: 0x3C1FF, size: 0x8, addend: 0x0, symName: __ZNSt3__122__compressed_pair_elemINS_9allocatorINS_11__tree_nodeINS_12__value_typeINS_12basic_stringIcNS_11char_traitsIcEENS1_IcEEEES8_EEPvEEEELi1ELb1EE5__getB8ne180100Ev, symObjAddr: 0x6E6C, symBinAddr: 0x10000A7E0, symSize: 0x14 }
  - { offset: 0x3C225, size: 0x8, addend: 0x0, symName: __ZNSt3__14pairIKNS_12basic_stringIcNS_11char_traitsIcEENS_9allocatorIcEEEES6_ED1Ev, symObjAddr: 0x6EA4, symBinAddr: 0x10000A818, symSize: 0x2C }
  - { offset: 0x3C251, size: 0x8, addend: 0x0, symName: __ZNSt3__14pairIKNS_12basic_stringIcNS_11char_traitsIcEENS_9allocatorIcEEEES6_ED2Ev, symObjAddr: 0x6ED0, symBinAddr: 0x10000A844, symSize: 0x38 }
  - { offset: 0x3C27D, size: 0x8, addend: 0x0, symName: __ZNSt3__19allocatorINS_11__tree_nodeINS_12__value_typeINS_12basic_stringIcNS_11char_traitsIcEENS0_IcEEEES7_EEPvEEE10deallocateB8ne180100EPSA_m, symObjAddr: 0x6F08, symBinAddr: 0x10000A87C, symSize: 0x44 }
  - { offset: 0x3C2BF, size: 0x8, addend: 0x0, symName: __ZNSt3__16__treeINS_12__value_typeINS_12basic_stringIcNS_11char_traitsIcEENS_9allocatorIcEEEES7_EENS_19__map_value_compareIS7_S8_NS_4lessIS7_EELb1EEENS5_IS8_EEE15__emplace_multiIJRKNS_4pairIKS7_S7_EEEEENS_15__tree_iteratorIS8_PNS_11__tree_nodeIS8_PvEElEEDpOT_, symObjAddr: 0x7074, symBinAddr: 0x10000A9E8, symSize: 0xD8 }
  - { offset: 0x3C333, size: 0x8, addend: 0x0, symName: __ZNSt3__16__treeINS_12__value_typeINS_12basic_stringIcNS_11char_traitsIcEENS_9allocatorIcEEEES7_EENS_19__map_value_compareIS7_S8_NS_4lessIS7_EELb1EEENS5_IS8_EEE16__construct_nodeIJRKNS_4pairIKS7_S7_EEEEENS_10unique_ptrINS_11__tree_nodeIS8_PvEENS_22__tree_node_destructorINS5_ISO_EEEEEEDpOT_, symObjAddr: 0x714C, symBinAddr: 0x10000AAC0, symSize: 0x108 }
  - { offset: 0x3C397, size: 0x8, addend: 0x0, symName: __ZNKSt3__110unique_ptrINS_11__tree_nodeINS_12__value_typeINS_12basic_stringIcNS_11char_traitsIcEENS_9allocatorIcEEEES8_EEPvEENS_22__tree_node_destructorINS6_ISB_EEEEEptB8ne180100Ev, symObjAddr: 0x7254, symBinAddr: 0x10000ABC8, symSize: 0x28 }
  - { offset: 0x3C3BD, size: 0x8, addend: 0x0, symName: __ZNKSt3__110unique_ptrINS_11__tree_nodeINS_12__value_typeINS_12basic_stringIcNS_11char_traitsIcEENS_9allocatorIcEEEES8_EEPvEENS_22__tree_node_destructorINS6_ISB_EEEEE3getB8ne180100Ev, symObjAddr: 0x727C, symBinAddr: 0x10000ABF0, symSize: 0x28 }
  - { offset: 0x3C3E3, size: 0x8, addend: 0x0, symName: __ZNSt3__110unique_ptrINS_11__tree_nodeINS_12__value_typeINS_12basic_stringIcNS_11char_traitsIcEENS_9allocatorIcEEEES8_EEPvEENS_22__tree_node_destructorINS6_ISB_EEEEE7releaseB8ne180100Ev, symObjAddr: 0x72A4, symBinAddr: 0x10000AC18, symSize: 0x44 }
  - { offset: 0x3C419, size: 0x8, addend: 0x0, symName: __ZNSt3__110unique_ptrINS_11__tree_nodeINS_12__value_typeINS_12basic_stringIcNS_11char_traitsIcEENS_9allocatorIcEEEES8_EEPvEENS_22__tree_node_destructorINS6_ISB_EEEEED1B8ne180100Ev, symObjAddr: 0x72E8, symBinAddr: 0x10000AC5C, symSize: 0x2C }
  - { offset: 0x3C443, size: 0x8, addend: 0x0, symName: __ZNSt3__116allocator_traitsINS_9allocatorINS_11__tree_nodeINS_12__value_typeINS_12basic_stringIcNS_11char_traitsIcEENS1_IcEEEES8_EEPvEEEEE8allocateB8ne180100ERSC_m, symObjAddr: 0x7314, symBinAddr: 0x10000AC88, symSize: 0x2C }
  - { offset: 0x3C478, size: 0x8, addend: 0x0, symName: __ZNSt3__122__tree_node_destructorINS_9allocatorINS_11__tree_nodeINS_12__value_typeINS_12basic_stringIcNS_11char_traitsIcEENS1_IcEEEES8_EEPvEEEEEC1B8ne180100ERSC_b, symObjAddr: 0x7340, symBinAddr: 0x10000ACB4, symSize: 0x48 }
  - { offset: 0x3C4C7, size: 0x8, addend: 0x0, symName: __ZNSt3__110unique_ptrINS_11__tree_nodeINS_12__value_typeINS_12basic_stringIcNS_11char_traitsIcEENS_9allocatorIcEEEES8_EEPvEENS_22__tree_node_destructorINS6_ISB_EEEEEC1B8ne180100ILb1EvEEPSB_NS_16__dependent_typeINS_27__unique_ptr_deleter_sfinaeISE_EEXT_EE20__good_rval_ref_typeE, symObjAddr: 0x7388, symBinAddr: 0x10000ACFC, symSize: 0x3C }
  - { offset: 0x3C518, size: 0x8, addend: 0x0, symName: __ZNSt3__116allocator_traitsINS_9allocatorINS_11__tree_nodeINS_12__value_typeINS_12basic_stringIcNS_11char_traitsIcEENS1_IcEEEES8_EEPvEEEEE9constructB8ne180100INS_4pairIKS8_S8_EEJRKSH_EvEEvRSC_PT_DpOT0_, symObjAddr: 0x73C4, symBinAddr: 0x10000AD38, symSize: 0x34 }
  - { offset: 0x3C572, size: 0x8, addend: 0x0, symName: __ZNSt3__110unique_ptrINS_11__tree_nodeINS_12__value_typeINS_12basic_stringIcNS_11char_traitsIcEENS_9allocatorIcEEEES8_EEPvEENS_22__tree_node_destructorINS6_ISB_EEEEE11get_deleterB8ne180100Ev, symObjAddr: 0x73F8, symBinAddr: 0x10000AD6C, symSize: 0x24 }
  - { offset: 0x3C598, size: 0x8, addend: 0x0, symName: __ZNSt3__19allocatorINS_11__tree_nodeINS_12__value_typeINS_12basic_stringIcNS_11char_traitsIcEENS0_IcEEEES7_EEPvEEE8allocateB8ne180100Em, symObjAddr: 0x741C, symBinAddr: 0x10000AD90, symSize: 0x5C }
  - { offset: 0x3C5D6, size: 0x8, addend: 0x0, symName: __ZNSt3__116allocator_traitsINS_9allocatorINS_11__tree_nodeINS_12__value_typeINS_12basic_stringIcNS_11char_traitsIcEENS1_IcEEEES8_EEPvEEEEE8max_sizeB8ne180100ISC_vEEmRKSC_, symObjAddr: 0x7478, symBinAddr: 0x10000ADEC, symSize: 0x24 }
  - { offset: 0x3C605, size: 0x8, addend: 0x0, symName: __ZNKSt3__19allocatorINS_11__tree_nodeINS_12__value_typeINS_12basic_stringIcNS_11char_traitsIcEENS0_IcEEEES7_EEPvEEE8max_sizeB8ne180100Ev, symObjAddr: 0x7530, symBinAddr: 0x10000AEA4, symSize: 0x18 }
  - { offset: 0x3C62B, size: 0x8, addend: 0x0, symName: __ZNSt3__122__tree_node_destructorINS_9allocatorINS_11__tree_nodeINS_12__value_typeINS_12basic_stringIcNS_11char_traitsIcEENS1_IcEEEES8_EEPvEEEEEC2B8ne180100ERSC_b, symObjAddr: 0x7598, symBinAddr: 0x10000AF0C, symSize: 0x38 }
  - { offset: 0x3C675, size: 0x8, addend: 0x0, symName: __ZNSt3__110unique_ptrINS_11__tree_nodeINS_12__value_typeINS_12basic_stringIcNS_11char_traitsIcEENS_9allocatorIcEEEES8_EEPvEENS_22__tree_node_destructorINS6_ISB_EEEEEC2B8ne180100ILb1EvEEPSB_NS_16__dependent_typeINS_27__unique_ptr_deleter_sfinaeISE_EEXT_EE20__good_rval_ref_typeE, symObjAddr: 0x75D0, symBinAddr: 0x10000AF44, symSize: 0x48 }
  - { offset: 0x3C6C6, size: 0x8, addend: 0x0, symName: __ZNSt3__117__compressed_pairIPNS_11__tree_nodeINS_12__value_typeINS_12basic_stringIcNS_11char_traitsIcEENS_9allocatorIcEEEES8_EEPvEENS_22__tree_node_destructorINS6_ISB_EEEEEC1B8ne180100IRSC_SF_EEOT_OT0_, symObjAddr: 0x7618, symBinAddr: 0x10000AF8C, symSize: 0x3C }
  - { offset: 0x3C71E, size: 0x8, addend: 0x0, symName: __ZNSt3__117__compressed_pairIPNS_11__tree_nodeINS_12__value_typeINS_12basic_stringIcNS_11char_traitsIcEENS_9allocatorIcEEEES8_EEPvEENS_22__tree_node_destructorINS6_ISB_EEEEEC2B8ne180100IRSC_SF_EEOT_OT0_, symObjAddr: 0x7654, symBinAddr: 0x10000AFC8, symSize: 0x48 }
  - { offset: 0x3C776, size: 0x8, addend: 0x0, symName: __ZNSt3__122__compressed_pair_elemIPNS_11__tree_nodeINS_12__value_typeINS_12basic_stringIcNS_11char_traitsIcEENS_9allocatorIcEEEES8_EEPvEELi0ELb0EEC2B8ne180100IRSC_vEEOT_, symObjAddr: 0x769C, symBinAddr: 0x10000B010, symSize: 0x24 }
  - { offset: 0x3C7B8, size: 0x8, addend: 0x0, symName: __ZNSt3__122__compressed_pair_elemINS_22__tree_node_destructorINS_9allocatorINS_11__tree_nodeINS_12__value_typeINS_12basic_stringIcNS_11char_traitsIcEENS2_IcEEEES9_EEPvEEEEEELi1ELb0EEC2B8ne180100ISE_vEEOT_, symObjAddr: 0x76C0, symBinAddr: 0x10000B034, symSize: 0x24 }
  - { offset: 0x3C7FA, size: 0x8, addend: 0x0, symName: __ZNSt3__19allocatorINS_11__tree_nodeINS_12__value_typeINS_12basic_stringIcNS_11char_traitsIcEENS0_IcEEEES7_EEPvEEE9constructB8ne180100INS_4pairIKS7_S7_EEJRKSF_EEEvPT_DpOT0_, symObjAddr: 0x76E4, symBinAddr: 0x10000B058, symSize: 0x30 }
  - { offset: 0x3C850, size: 0x8, addend: 0x0, symName: __ZNSt3__14pairIKNS_12basic_stringIcNS_11char_traitsIcEENS_9allocatorIcEEEES6_EC1B8ne180100ERKS8_, symObjAddr: 0x7714, symBinAddr: 0x10000B088, symSize: 0x34 }
  - { offset: 0x3C885, size: 0x8, addend: 0x0, symName: __ZNSt3__14pairIKNS_12basic_stringIcNS_11char_traitsIcEENS_9allocatorIcEEEES6_EC2B8ne180100ERKS8_, symObjAddr: 0x7748, symBinAddr: 0x10000B0BC, symSize: 0x70 }
  - { offset: 0x3C8BA, size: 0x8, addend: 0x0, symName: __ZNSt3__117__compressed_pairIPNS_11__tree_nodeINS_12__value_typeINS_12basic_stringIcNS_11char_traitsIcEENS_9allocatorIcEEEES8_EEPvEENS_22__tree_node_destructorINS6_ISB_EEEEE6secondB8ne180100Ev, symObjAddr: 0x77B8, symBinAddr: 0x10000B12C, symSize: 0x28 }
  - { offset: 0x3C8E0, size: 0x8, addend: 0x0, symName: __ZNSt3__122__compressed_pair_elemINS_22__tree_node_destructorINS_9allocatorINS_11__tree_nodeINS_12__value_typeINS_12basic_stringIcNS_11char_traitsIcEENS2_IcEEEES9_EEPvEEEEEELi1ELb0EE5__getB8ne180100Ev, symObjAddr: 0x77E0, symBinAddr: 0x10000B154, symSize: 0x14 }
  - { offset: 0x3C906, size: 0x8, addend: 0x0, symName: __ZNKSt3__117__compressed_pairIPNS_11__tree_nodeINS_12__value_typeINS_12basic_stringIcNS_11char_traitsIcEENS_9allocatorIcEEEES8_EEPvEENS_22__tree_node_destructorINS6_ISB_EEEEE5firstB8ne180100Ev, symObjAddr: 0x77F4, symBinAddr: 0x10000B168, symSize: 0x24 }
  - { offset: 0x3C92C, size: 0x8, addend: 0x0, symName: __ZNKSt3__122__compressed_pair_elemIPNS_11__tree_nodeINS_12__value_typeINS_12basic_stringIcNS_11char_traitsIcEENS_9allocatorIcEEEES8_EEPvEELi0ELb0EE5__getB8ne180100Ev, symObjAddr: 0x7818, symBinAddr: 0x10000B18C, symSize: 0x14 }
  - { offset: 0x3C952, size: 0x8, addend: 0x0, symName: __ZNSt3__117__compressed_pairIPNS_11__tree_nodeINS_12__value_typeINS_12basic_stringIcNS_11char_traitsIcEENS_9allocatorIcEEEES8_EEPvEENS_22__tree_node_destructorINS6_ISB_EEEEE5firstB8ne180100Ev, symObjAddr: 0x782C, symBinAddr: 0x10000B1A0, symSize: 0x24 }
  - { offset: 0x3C978, size: 0x8, addend: 0x0, symName: __ZNSt3__122__compressed_pair_elemIPNS_11__tree_nodeINS_12__value_typeINS_12basic_stringIcNS_11char_traitsIcEENS_9allocatorIcEEEES8_EEPvEELi0ELb0EE5__getB8ne180100Ev, symObjAddr: 0x7850, symBinAddr: 0x10000B1C4, symSize: 0x14 }
  - { offset: 0x3C99E, size: 0x8, addend: 0x0, symName: __ZNSt3__110unique_ptrINS_11__tree_nodeINS_12__value_typeINS_12basic_stringIcNS_11char_traitsIcEENS_9allocatorIcEEEES8_EEPvEENS_22__tree_node_destructorINS6_ISB_EEEEED2B8ne180100Ev, symObjAddr: 0x7864, symBinAddr: 0x10000B1D8, symSize: 0x30 }
  - { offset: 0x3C9C8, size: 0x8, addend: 0x0, symName: __ZNSt3__110unique_ptrINS_11__tree_nodeINS_12__value_typeINS_12basic_stringIcNS_11char_traitsIcEENS_9allocatorIcEEEES8_EEPvEENS_22__tree_node_destructorINS6_ISB_EEEEE5resetB8ne180100EPSB_, symObjAddr: 0x7894, symBinAddr: 0x10000B208, symSize: 0x78 }
  - { offset: 0x3CA0E, size: 0x8, addend: 0x0, symName: __ZNSt3__122__tree_node_destructorINS_9allocatorINS_11__tree_nodeINS_12__value_typeINS_12basic_stringIcNS_11char_traitsIcEENS1_IcEEEES8_EEPvEEEEEclB8ne180100EPSB_, symObjAddr: 0x790C, symBinAddr: 0x10000B280, symSize: 0x90 }
  - { offset: 0x3CA44, size: 0x8, addend: 0x0, symName: __ZNKSt3__16__treeINS_12__value_typeINS_12basic_stringIcNS_11char_traitsIcEENS_9allocatorIcEEEES7_EENS_19__map_value_compareIS7_S8_NS_4lessIS7_EELb1EEENS5_IS8_EEE12__begin_nodeB8ne180100Ev, symObjAddr: 0x799C, symBinAddr: 0x10000B310, symSize: 0x14 }
  - { offset: 0x3CA6A, size: 0x8, addend: 0x0, symName: __ZNSt3__121__tree_const_iteratorINS_12__value_typeINS_12basic_stringIcNS_11char_traitsIcEENS_9allocatorIcEEEES7_EEPNS_11__tree_nodeIS8_PvEElEC1B8ne180100EPNS_15__tree_end_nodeIPNS_16__tree_node_baseISA_EEEE, symObjAddr: 0x79B0, symBinAddr: 0x10000B324, symSize: 0x34 }
  - { offset: 0x3CAA4, size: 0x8, addend: 0x0, symName: __ZNSt3__121__tree_const_iteratorINS_12__value_typeINS_12basic_stringIcNS_11char_traitsIcEENS_9allocatorIcEEEES7_EEPNS_11__tree_nodeIS8_PvEElEC2B8ne180100EPNS_15__tree_end_nodeIPNS_16__tree_node_baseISA_EEEE, symObjAddr: 0x79E4, symBinAddr: 0x10000B358, symSize: 0x20 }
  - { offset: 0x3CADE, size: 0x8, addend: 0x0, symName: __ZNSt3__112__hash_tableINS_17__hash_value_typeINS_12basic_stringIcNS_11char_traitsIcEENS_9allocatorIcEEEENS_6vectorIS7_NS5_IS7_EEEEEENS_22__unordered_map_hasherIS7_SB_NS_4hashIS7_EENS_8equal_toIS7_EELb1EEENS_21__unordered_map_equalIS7_SB_SG_SE_Lb1EEENS5_ISB_EEEaSERKSL_, symObjAddr: 0x7A04, symBinAddr: 0x10000B378, symSize: 0xB8 }
  - { offset: 0x3CB16, size: 0x8, addend: 0x0, symName: __ZNSt3__112__hash_tableINS_17__hash_value_typeINS_12basic_stringIcNS_11char_traitsIcEENS_9allocatorIcEEEENS_6vectorIS7_NS5_IS7_EEEEEENS_22__unordered_map_hasherIS7_SB_NS_4hashIS7_EENS_8equal_toIS7_EELb1EEENS_21__unordered_map_equalIS7_SB_SG_SE_Lb1EEENS5_ISB_EEE19__copy_assign_allocB8ne180100ERKSL_, symObjAddr: 0x7ABC, symBinAddr: 0x10000B430, symSize: 0x2C }
  - { offset: 0x3CB4C, size: 0x8, addend: 0x0, symName: __ZNKSt3__112__hash_tableINS_17__hash_value_typeINS_12basic_stringIcNS_11char_traitsIcEENS_9allocatorIcEEEENS_6vectorIS7_NS5_IS7_EEEEEENS_22__unordered_map_hasherIS7_SB_NS_4hashIS7_EENS_8equal_toIS7_EELb1EEENS_21__unordered_map_equalIS7_SB_SG_SE_Lb1EEENS5_ISB_EEE13hash_functionB8ne180100Ev, symObjAddr: 0x7AE8, symBinAddr: 0x10000B45C, symSize: 0x28 }
  - { offset: 0x3CB72, size: 0x8, addend: 0x0, symName: __ZNSt3__112__hash_tableINS_17__hash_value_typeINS_12basic_stringIcNS_11char_traitsIcEENS_9allocatorIcEEEENS_6vectorIS7_NS5_IS7_EEEEEENS_22__unordered_map_hasherIS7_SB_NS_4hashIS7_EENS_8equal_toIS7_EELb1EEENS_21__unordered_map_equalIS7_SB_SG_SE_Lb1EEENS5_ISB_EEE13hash_functionB8ne180100Ev, symObjAddr: 0x7B10, symBinAddr: 0x10000B484, symSize: 0x28 }
  - { offset: 0x3CB98, size: 0x8, addend: 0x0, symName: __ZNKSt3__112__hash_tableINS_17__hash_value_typeINS_12basic_stringIcNS_11char_traitsIcEENS_9allocatorIcEEEENS_6vectorIS7_NS5_IS7_EEEEEENS_22__unordered_map_hasherIS7_SB_NS_4hashIS7_EENS_8equal_toIS7_EELb1EEENS_21__unordered_map_equalIS7_SB_SG_SE_Lb1EEENS5_ISB_EEE6key_eqB8ne180100Ev, symObjAddr: 0x7B38, symBinAddr: 0x10000B4AC, symSize: 0x28 }
  - { offset: 0x3CBBE, size: 0x8, addend: 0x0, symName: __ZNSt3__112__hash_tableINS_17__hash_value_typeINS_12basic_stringIcNS_11char_traitsIcEENS_9allocatorIcEEEENS_6vectorIS7_NS5_IS7_EEEEEENS_22__unordered_map_hasherIS7_SB_NS_4hashIS7_EENS_8equal_toIS7_EELb1EEENS_21__unordered_map_equalIS7_SB_SG_SE_Lb1EEENS5_ISB_EEE6key_eqB8ne180100Ev, symObjAddr: 0x7B60, symBinAddr: 0x10000B4D4, symSize: 0x28 }
  - { offset: 0x3CBE4, size: 0x8, addend: 0x0, symName: __ZNKSt3__112__hash_tableINS_17__hash_value_typeINS_12basic_stringIcNS_11char_traitsIcEENS_9allocatorIcEEEENS_6vectorIS7_NS5_IS7_EEEEEENS_22__unordered_map_hasherIS7_SB_NS_4hashIS7_EENS_8equal_toIS7_EELb1EEENS_21__unordered_map_equalIS7_SB_SG_SE_Lb1EEENS5_ISB_EEE15max_load_factorB8ne180100Ev, symObjAddr: 0x7B88, symBinAddr: 0x10000B4FC, symSize: 0x2C }
  - { offset: 0x3CC0A, size: 0x8, addend: 0x0, symName: __ZNSt3__112__hash_tableINS_17__hash_value_typeINS_12basic_stringIcNS_11char_traitsIcEENS_9allocatorIcEEEENS_6vectorIS7_NS5_IS7_EEEEEENS_22__unordered_map_hasherIS7_SB_NS_4hashIS7_EENS_8equal_toIS7_EELb1EEENS_21__unordered_map_equalIS7_SB_SG_SE_Lb1EEENS5_ISB_EEE15max_load_factorB8ne180100Ev, symObjAddr: 0x7BB4, symBinAddr: 0x10000B528, symSize: 0x28 }
  - { offset: 0x3CC30, size: 0x8, addend: 0x0, symName: __ZNSt3__112__hash_tableINS_17__hash_value_typeINS_12basic_stringIcNS_11char_traitsIcEENS_9allocatorIcEEEENS_6vectorIS7_NS5_IS7_EEEEEENS_22__unordered_map_hasherIS7_SB_NS_4hashIS7_EENS_8equal_toIS7_EELb1EEENS_21__unordered_map_equalIS7_SB_SG_SE_Lb1EEENS5_ISB_EEE14__assign_multiINS_21__hash_const_iteratorIPNS_11__hash_nodeISB_PvEEEEEEvT_ST_, symObjAddr: 0x7BDC, symBinAddr: 0x10000B550, symSize: 0x1C4 }
  - { offset: 0x3CCB7, size: 0x8, addend: 0x0, symName: __ZNKSt3__112__hash_tableINS_17__hash_value_typeINS_12basic_stringIcNS_11char_traitsIcEENS_9allocatorIcEEEENS_6vectorIS7_NS5_IS7_EEEEEENS_22__unordered_map_hasherIS7_SB_NS_4hashIS7_EENS_8equal_toIS7_EELb1EEENS_21__unordered_map_equalIS7_SB_SG_SE_Lb1EEENS5_ISB_EEE5beginEv, symObjAddr: 0x7DA0, symBinAddr: 0x10000B714, symSize: 0x38 }
  - { offset: 0x3CCDF, size: 0x8, addend: 0x0, symName: __ZNKSt3__112__hash_tableINS_17__hash_value_typeINS_12basic_stringIcNS_11char_traitsIcEENS_9allocatorIcEEEENS_6vectorIS7_NS5_IS7_EEEEEENS_22__unordered_map_hasherIS7_SB_NS_4hashIS7_EENS_8equal_toIS7_EELb1EEENS_21__unordered_map_equalIS7_SB_SG_SE_Lb1EEENS5_ISB_EEE3endEv, symObjAddr: 0x7DD8, symBinAddr: 0x10000B74C, symSize: 0x2C }
  - { offset: 0x3CD07, size: 0x8, addend: 0x0, symName: __ZNSt3__112__hash_tableINS_17__hash_value_typeINS_12basic_stringIcNS_11char_traitsIcEENS_9allocatorIcEEEENS_6vectorIS7_NS5_IS7_EEEEEENS_22__unordered_map_hasherIS7_SB_NS_4hashIS7_EENS_8equal_toIS7_EELb1EEENS_21__unordered_map_equalIS7_SB_SG_SE_Lb1EEENS5_ISB_EEE19__copy_assign_allocB8ne180100ERKSL_NS_17integral_constantIbLb0EEE, symObjAddr: 0x7E04, symBinAddr: 0x10000B778, symSize: 0x14 }
  - { offset: 0x3CD45, size: 0x8, addend: 0x0, symName: __ZNKSt3__117__compressed_pairImNS_22__unordered_map_hasherINS_12basic_stringIcNS_11char_traitsIcEENS_9allocatorIcEEEENS_17__hash_value_typeIS7_NS_6vectorIS7_NS5_IS7_EEEEEENS_4hashIS7_EENS_8equal_toIS7_EELb1EEEE6secondB8ne180100Ev, symObjAddr: 0x7E18, symBinAddr: 0x10000B78C, symSize: 0x24 }
  - { offset: 0x3CD6B, size: 0x8, addend: 0x0, symName: __ZNKSt3__122__compressed_pair_elemINS_22__unordered_map_hasherINS_12basic_stringIcNS_11char_traitsIcEENS_9allocatorIcEEEENS_17__hash_value_typeIS7_NS_6vectorIS7_NS5_IS7_EEEEEENS_4hashIS7_EENS_8equal_toIS7_EELb1EEELi1ELb1EE5__getB8ne180100Ev, symObjAddr: 0x7E3C, symBinAddr: 0x10000B7B0, symSize: 0x14 }
  - { offset: 0x3CD91, size: 0x8, addend: 0x0, symName: __ZNSt3__117__compressed_pairImNS_22__unordered_map_hasherINS_12basic_stringIcNS_11char_traitsIcEENS_9allocatorIcEEEENS_17__hash_value_typeIS7_NS_6vectorIS7_NS5_IS7_EEEEEENS_4hashIS7_EENS_8equal_toIS7_EELb1EEEE6secondB8ne180100Ev, symObjAddr: 0x7E50, symBinAddr: 0x10000B7C4, symSize: 0x24 }
  - { offset: 0x3CDB7, size: 0x8, addend: 0x0, symName: __ZNSt3__122__compressed_pair_elemINS_22__unordered_map_hasherINS_12basic_stringIcNS_11char_traitsIcEENS_9allocatorIcEEEENS_17__hash_value_typeIS7_NS_6vectorIS7_NS5_IS7_EEEEEENS_4hashIS7_EENS_8equal_toIS7_EELb1EEELi1ELb1EE5__getB8ne180100Ev, symObjAddr: 0x7E74, symBinAddr: 0x10000B7E8, symSize: 0x14 }
  - { offset: 0x3CDDD, size: 0x8, addend: 0x0, symName: __ZNKSt3__117__compressed_pairIfNS_21__unordered_map_equalINS_12basic_stringIcNS_11char_traitsIcEENS_9allocatorIcEEEENS_17__hash_value_typeIS7_NS_6vectorIS7_NS5_IS7_EEEEEENS_8equal_toIS7_EENS_4hashIS7_EELb1EEEE6secondB8ne180100Ev, symObjAddr: 0x7E88, symBinAddr: 0x10000B7FC, symSize: 0x24 }
  - { offset: 0x3CE03, size: 0x8, addend: 0x0, symName: __ZNKSt3__122__compressed_pair_elemINS_21__unordered_map_equalINS_12basic_stringIcNS_11char_traitsIcEENS_9allocatorIcEEEENS_17__hash_value_typeIS7_NS_6vectorIS7_NS5_IS7_EEEEEENS_8equal_toIS7_EENS_4hashIS7_EELb1EEELi1ELb1EE5__getB8ne180100Ev, symObjAddr: 0x7EAC, symBinAddr: 0x10000B820, symSize: 0x14 }
  - { offset: 0x3CE29, size: 0x8, addend: 0x0, symName: __ZNSt3__117__compressed_pairIfNS_21__unordered_map_equalINS_12basic_stringIcNS_11char_traitsIcEENS_9allocatorIcEEEENS_17__hash_value_typeIS7_NS_6vectorIS7_NS5_IS7_EEEEEENS_8equal_toIS7_EENS_4hashIS7_EELb1EEEE6secondB8ne180100Ev, symObjAddr: 0x7EC0, symBinAddr: 0x10000B834, symSize: 0x24 }
  - { offset: 0x3CE4F, size: 0x8, addend: 0x0, symName: __ZNSt3__122__compressed_pair_elemINS_21__unordered_map_equalINS_12basic_stringIcNS_11char_traitsIcEENS_9allocatorIcEEEENS_17__hash_value_typeIS7_NS_6vectorIS7_NS5_IS7_EEEEEENS_8equal_toIS7_EENS_4hashIS7_EELb1EEELi1ELb1EE5__getB8ne180100Ev, symObjAddr: 0x7EE4, symBinAddr: 0x10000B858, symSize: 0x14 }
  - { offset: 0x3CE75, size: 0x8, addend: 0x0, symName: __ZNKSt3__117__compressed_pairIfNS_21__unordered_map_equalINS_12basic_stringIcNS_11char_traitsIcEENS_9allocatorIcEEEENS_17__hash_value_typeIS7_NS_6vectorIS7_NS5_IS7_EEEEEENS_8equal_toIS7_EENS_4hashIS7_EELb1EEEE5firstB8ne180100Ev, symObjAddr: 0x7EF8, symBinAddr: 0x10000B86C, symSize: 0x24 }
  - { offset: 0x3CE9B, size: 0x8, addend: 0x0, symName: __ZNKSt3__122__compressed_pair_elemIfLi0ELb0EE5__getB8ne180100Ev, symObjAddr: 0x7F1C, symBinAddr: 0x10000B890, symSize: 0x14 }
  - { offset: 0x3CEC1, size: 0x8, addend: 0x0, symName: __ZNSt3__117__compressed_pairIfNS_21__unordered_map_equalINS_12basic_stringIcNS_11char_traitsIcEENS_9allocatorIcEEEENS_17__hash_value_typeIS7_NS_6vectorIS7_NS5_IS7_EEEEEENS_8equal_toIS7_EENS_4hashIS7_EELb1EEEE5firstB8ne180100Ev, symObjAddr: 0x7F30, symBinAddr: 0x10000B8A4, symSize: 0x24 }
  - { offset: 0x3CEE7, size: 0x8, addend: 0x0, symName: __ZNSt3__122__compressed_pair_elemIfLi0ELb0EE5__getB8ne180100Ev, symObjAddr: 0x7F54, symBinAddr: 0x10000B8C8, symSize: 0x14 }
  - { offset: 0x3CF0D, size: 0x8, addend: 0x0, symName: __ZNKSt3__112__hash_tableINS_17__hash_value_typeINS_12basic_stringIcNS_11char_traitsIcEENS_9allocatorIcEEEENS_6vectorIS7_NS5_IS7_EEEEEENS_22__unordered_map_hasherIS7_SB_NS_4hashIS7_EENS_8equal_toIS7_EELb1EEENS_21__unordered_map_equalIS7_SB_SG_SE_Lb1EEENS5_ISB_EEE12bucket_countB8ne180100Ev, symObjAddr: 0x7F68, symBinAddr: 0x10000B8DC, symSize: 0x28 }
  - { offset: 0x3CF33, size: 0x8, addend: 0x0, symName: __ZNSt3__112__hash_tableINS_17__hash_value_typeINS_12basic_stringIcNS_11char_traitsIcEENS_9allocatorIcEEEENS_6vectorIS7_NS5_IS7_EEEEEENS_22__unordered_map_hasherIS7_SB_NS_4hashIS7_EENS_8equal_toIS7_EELb1EEENS_21__unordered_map_equalIS7_SB_SG_SE_Lb1EEENS5_ISB_EEE8__detachEv, symObjAddr: 0x7F90, symBinAddr: 0x10000B904, symSize: 0xB4 }
  - { offset: 0x3CF92, size: 0x8, addend: 0x0, symName: __ZNKSt3__121__hash_const_iteratorIPNS_11__hash_nodeINS_17__hash_value_typeINS_12basic_stringIcNS_11char_traitsIcEENS_9allocatorIcEEEENS_6vectorIS8_NS6_IS8_EEEEEEPvEEEdeB8ne180100Ev, symObjAddr: 0x8078, symBinAddr: 0x10000B9EC, symSize: 0x2C }
  - { offset: 0x3CFB8, size: 0x8, addend: 0x0, symName: __ZNSt3__116__hash_node_baseIPNS_11__hash_nodeINS_17__hash_value_typeINS_12basic_stringIcNS_11char_traitsIcEENS_9allocatorIcEEEENS_6vectorIS8_NS6_IS8_EEEEEEPvEEE8__upcastB8ne180100Ev, symObjAddr: 0x80A4, symBinAddr: 0x10000BA18, symSize: 0x24 }
  - { offset: 0x3CFDE, size: 0x8, addend: 0x0, symName: __ZNSt3__111__hash_nodeINS_17__hash_value_typeINS_12basic_stringIcNS_11char_traitsIcEENS_9allocatorIcEEEENS_6vectorIS7_NS5_IS7_EEEEEEPvE11__get_valueB8ne180100Ev, symObjAddr: 0x80C8, symBinAddr: 0x10000BA3C, symSize: 0x18 }
  - { offset: 0x3D004, size: 0x8, addend: 0x0, symName: __ZNSt3__117__hash_value_typeINS_12basic_stringIcNS_11char_traitsIcEENS_9allocatorIcEEEENS_6vectorIS6_NS4_IS6_EEEEEaSB8ne180100ERKSA_, symObjAddr: 0x80E0, symBinAddr: 0x10000BA54, symSize: 0x60 }
  - { offset: 0x3D03A, size: 0x8, addend: 0x0, symName: __ZNSt3__112__hash_tableINS_17__hash_value_typeINS_12basic_stringIcNS_11char_traitsIcEENS_9allocatorIcEEEENS_6vectorIS7_NS5_IS7_EEEEEENS_22__unordered_map_hasherIS7_SB_NS_4hashIS7_EENS_8equal_toIS7_EELb1EEENS_21__unordered_map_equalIS7_SB_SG_SE_Lb1EEENS5_ISB_EEE19__node_insert_multiEPNS_11__hash_nodeISB_PvEE, symObjAddr: 0x8140, symBinAddr: 0x10000BAB4, symSize: 0xA0 }
  - { offset: 0x3D082, size: 0x8, addend: 0x0, symName: __ZNSt3__121__hash_const_iteratorIPNS_11__hash_nodeINS_17__hash_value_typeINS_12basic_stringIcNS_11char_traitsIcEENS_9allocatorIcEEEENS_6vectorIS8_NS6_IS8_EEEEEEPvEEEppB8ne180100Ev, symObjAddr: 0x81E0, symBinAddr: 0x10000BB54, symSize: 0x20 }
  - { offset: 0x3D0A8, size: 0x8, addend: 0x0, symName: __ZNSt3__112__hash_tableINS_17__hash_value_typeINS_12basic_stringIcNS_11char_traitsIcEENS_9allocatorIcEEEENS_6vectorIS7_NS5_IS7_EEEEEENS_22__unordered_map_hasherIS7_SB_NS_4hashIS7_EENS_8equal_toIS7_EELb1EEENS_21__unordered_map_equalIS7_SB_SG_SE_Lb1EEENS5_ISB_EEE17__deallocate_nodeEPNS_16__hash_node_baseIPNS_11__hash_nodeISB_PvEEEE, symObjAddr: 0x8200, symBinAddr: 0x10000BB74, symSize: 0xB4 }
  - { offset: 0x3D117, size: 0x8, addend: 0x0, symName: __ZNSt3__112__hash_tableINS_17__hash_value_typeINS_12basic_stringIcNS_11char_traitsIcEENS_9allocatorIcEEEENS_6vectorIS7_NS5_IS7_EEEEEENS_22__unordered_map_hasherIS7_SB_NS_4hashIS7_EENS_8equal_toIS7_EELb1EEENS_21__unordered_map_equalIS7_SB_SG_SE_Lb1EEENS5_ISB_EEE14__insert_multiB8ne180100IRKNS_4pairIKS7_SA_EEEENS_15__hash_iteratorIPNS_11__hash_nodeISB_PvEEEEOT_, symObjAddr: 0x82B4, symBinAddr: 0x10000BC28, symSize: 0x34 }
  - { offset: 0x3D156, size: 0x8, addend: 0x0, symName: __ZNSt3__122__hash_key_value_typesINS_17__hash_value_typeINS_12basic_stringIcNS_11char_traitsIcEENS_9allocatorIcEEEENS_6vectorIS7_NS5_IS7_EEEEEEE11__get_valueB8ne180100IKSB_Li0EEERKNS_4pairIKS7_SA_EERT_, symObjAddr: 0x82E8, symBinAddr: 0x10000BC5C, symSize: 0x24 }
  - { offset: 0x3D188, size: 0x8, addend: 0x0, symName: __ZNKSt3__110unique_ptrIA_PNS_16__hash_node_baseIPNS_11__hash_nodeINS_17__hash_value_typeINS_12basic_stringIcNS_11char_traitsIcEENS_9allocatorIcEEEENS_6vectorIS9_NS7_IS9_EEEEEEPvEEEENS_25__bucket_list_deallocatorINS7_ISI_EEEEE11get_deleterB8ne180100Ev, symObjAddr: 0x830C, symBinAddr: 0x10000BC80, symSize: 0x24 }
  - { offset: 0x3D1AE, size: 0x8, addend: 0x0, symName: __ZNKSt3__125__bucket_list_deallocatorINS_9allocatorIPNS_16__hash_node_baseIPNS_11__hash_nodeINS_17__hash_value_typeINS_12basic_stringIcNS_11char_traitsIcEENS1_IcEEEENS_6vectorIS9_NS1_IS9_EEEEEEPvEEEEEEE4sizeB8ne180100Ev, symObjAddr: 0x8330, symBinAddr: 0x10000BCA4, symSize: 0x28 }
  - { offset: 0x3D1D4, size: 0x8, addend: 0x0, symName: __ZNKSt3__117__compressed_pairIPPNS_16__hash_node_baseIPNS_11__hash_nodeINS_17__hash_value_typeINS_12basic_stringIcNS_11char_traitsIcEENS_9allocatorIcEEEENS_6vectorIS9_NS7_IS9_EEEEEEPvEEEENS_25__bucket_list_deallocatorINS7_ISI_EEEEE6secondB8ne180100Ev, symObjAddr: 0x8358, symBinAddr: 0x10000BCCC, symSize: 0x28 }
  - { offset: 0x3D1FA, size: 0x8, addend: 0x0, symName: __ZNKSt3__122__compressed_pair_elemINS_25__bucket_list_deallocatorINS_9allocatorIPNS_16__hash_node_baseIPNS_11__hash_nodeINS_17__hash_value_typeINS_12basic_stringIcNS_11char_traitsIcEENS2_IcEEEENS_6vectorISA_NS2_ISA_EEEEEEPvEEEEEEEELi1ELb0EE5__getB8ne180100Ev, symObjAddr: 0x8380, symBinAddr: 0x10000BCF4, symSize: 0x14 }
  - { offset: 0x3D220, size: 0x8, addend: 0x0, symName: __ZNKSt3__117__compressed_pairImNS_9allocatorIPNS_16__hash_node_baseIPNS_11__hash_nodeINS_17__hash_value_typeINS_12basic_stringIcNS_11char_traitsIcEENS1_IcEEEENS_6vectorIS9_NS1_IS9_EEEEEEPvEEEEEEE5firstB8ne180100Ev, symObjAddr: 0x8394, symBinAddr: 0x10000BD08, symSize: 0x24 }
  - { offset: 0x3D246, size: 0x8, addend: 0x0, symName: __ZNKSt3__122__compressed_pair_elemImLi0ELb0EE5__getB8ne180100Ev, symObjAddr: 0x83B8, symBinAddr: 0x10000BD2C, symSize: 0x14 }
  - { offset: 0x3D26C, size: 0x8, addend: 0x0, symName: __ZNKSt3__110unique_ptrIA_PNS_16__hash_node_baseIPNS_11__hash_nodeINS_17__hash_value_typeINS_12basic_stringIcNS_11char_traitsIcEENS_9allocatorIcEEEENS_6vectorIS9_NS7_IS9_EEEEEEPvEEEENS_25__bucket_list_deallocatorINS7_ISI_EEEEEixB8ne180100Em, symObjAddr: 0x83CC, symBinAddr: 0x10000BD40, symSize: 0x34 }
  - { offset: 0x3D2A2, size: 0x8, addend: 0x0, symName: __ZNSt3__112__hash_tableINS_17__hash_value_typeINS_12basic_stringIcNS_11char_traitsIcEENS_9allocatorIcEEEENS_6vectorIS7_NS5_IS7_EEEEEENS_22__unordered_map_hasherIS7_SB_NS_4hashIS7_EENS_8equal_toIS7_EELb1EEENS_21__unordered_map_equalIS7_SB_SG_SE_Lb1EEENS5_ISB_EEE4sizeB8ne180100Ev, symObjAddr: 0x8400, symBinAddr: 0x10000BD74, symSize: 0x28 }
  - { offset: 0x3D2C8, size: 0x8, addend: 0x0, symName: __ZNSt3__117__compressed_pairINS_16__hash_node_baseIPNS_11__hash_nodeINS_17__hash_value_typeINS_12basic_stringIcNS_11char_traitsIcEENS_9allocatorIcEEEENS_6vectorIS9_NS7_IS9_EEEEEEPvEEEENS7_ISF_EEE5firstB8ne180100Ev, symObjAddr: 0x8428, symBinAddr: 0x10000BD9C, symSize: 0x24 }
  - { offset: 0x3D2EE, size: 0x8, addend: 0x0, symName: __ZNKSt3__117__compressed_pairIPPNS_16__hash_node_baseIPNS_11__hash_nodeINS_17__hash_value_typeINS_12basic_stringIcNS_11char_traitsIcEENS_9allocatorIcEEEENS_6vectorIS9_NS7_IS9_EEEEEEPvEEEENS_25__bucket_list_deallocatorINS7_ISI_EEEEE5firstB8ne180100Ev, symObjAddr: 0x844C, symBinAddr: 0x10000BDC0, symSize: 0x24 }
  - { offset: 0x3D314, size: 0x8, addend: 0x0, symName: __ZNKSt3__122__compressed_pair_elemIPPNS_16__hash_node_baseIPNS_11__hash_nodeINS_17__hash_value_typeINS_12basic_stringIcNS_11char_traitsIcEENS_9allocatorIcEEEENS_6vectorIS9_NS7_IS9_EEEEEEPvEEEELi0ELb0EE5__getB8ne180100Ev, symObjAddr: 0x8470, symBinAddr: 0x10000BDE4, symSize: 0x14 }
  - { offset: 0x3D33A, size: 0x8, addend: 0x0, symName: __ZNSt3__117__compressed_pairImNS_22__unordered_map_hasherINS_12basic_stringIcNS_11char_traitsIcEENS_9allocatorIcEEEENS_17__hash_value_typeIS7_NS_6vectorIS7_NS5_IS7_EEEEEENS_4hashIS7_EENS_8equal_toIS7_EELb1EEEE5firstB8ne180100Ev, symObjAddr: 0x8484, symBinAddr: 0x10000BDF8, symSize: 0x24 }
  - { offset: 0x3D360, size: 0x8, addend: 0x0, symName: __ZNSt3__122__compressed_pair_elemINS_16__hash_node_baseIPNS_11__hash_nodeINS_17__hash_value_typeINS_12basic_stringIcNS_11char_traitsIcEENS_9allocatorIcEEEENS_6vectorIS9_NS7_IS9_EEEEEEPvEEEELi0ELb0EE5__getB8ne180100Ev, symObjAddr: 0x84A8, symBinAddr: 0x10000BE1C, symSize: 0x14 }
  - { offset: 0x3D386, size: 0x8, addend: 0x0, symName: __ZNSt3__114pointer_traitsIPNS_16__hash_node_baseIPNS_11__hash_nodeINS_17__hash_value_typeINS_12basic_stringIcNS_11char_traitsIcEENS_9allocatorIcEEEENS_6vectorIS9_NS7_IS9_EEEEEEPvEEEEE10pointer_toB8ne180100ERSH_, symObjAddr: 0x84EC, symBinAddr: 0x10000BE60, symSize: 0x14 }
  - { offset: 0x3D3A9, size: 0x8, addend: 0x0, symName: __ZNKSt3__117__hash_value_typeINS_12basic_stringIcNS_11char_traitsIcEENS_9allocatorIcEEEENS_6vectorIS6_NS4_IS6_EEEEE11__get_valueB8ne180100Ev, symObjAddr: 0x8500, symBinAddr: 0x10000BE74, symSize: 0x24 }
  - { offset: 0x3D3CF, size: 0x8, addend: 0x0, symName: __ZNSt3__117__hash_value_typeINS_12basic_stringIcNS_11char_traitsIcEENS_9allocatorIcEEEENS_6vectorIS6_NS4_IS6_EEEEE5__refB8ne180100Ev, symObjAddr: 0x8524, symBinAddr: 0x10000BE98, symSize: 0x44 }
  - { offset: 0x3D405, size: 0x8, addend: 0x0, symName: __ZNSt3__14pairIRNS_12basic_stringIcNS_11char_traitsIcEENS_9allocatorIcEEEERNS_6vectorIS6_NS4_IS6_EEEEEaSB8ne180100IKS6_SA_LPv0EEERSC_RKNS0_IT_T0_EE, symObjAddr: 0x8568, symBinAddr: 0x10000BEDC, symSize: 0x4C }
  - { offset: 0x3D453, size: 0x8, addend: 0x0, symName: __ZNSt3__117__hash_value_typeINS_12basic_stringIcNS_11char_traitsIcEENS_9allocatorIcEEEENS_6vectorIS6_NS4_IS6_EEEEE11__get_valueB8ne180100Ev, symObjAddr: 0x85EC, symBinAddr: 0x10000BF60, symSize: 0x24 }
  - { offset: 0x3D479, size: 0x8, addend: 0x0, symName: __ZNSt3__14pairIRNS_12basic_stringIcNS_11char_traitsIcEENS_9allocatorIcEEEERNS_6vectorIS6_NS4_IS6_EEEEEC1B8ne180100ILb1ELi0EEES7_SB_, symObjAddr: 0x8610, symBinAddr: 0x10000BF84, symSize: 0x3C }
  - { offset: 0x3D4CF, size: 0x8, addend: 0x0, symName: __ZNSt3__14pairIRNS_12basic_stringIcNS_11char_traitsIcEENS_9allocatorIcEEEERNS_6vectorIS6_NS4_IS6_EEEEEC2B8ne180100ILb1ELi0EEES7_SB_, symObjAddr: 0x8684, symBinAddr: 0x10000BFF8, symSize: 0x2C }
  - { offset: 0x3D525, size: 0x8, addend: 0x0, symName: __ZNSt3__16vectorINS_12basic_stringIcNS_11char_traitsIcEENS_9allocatorIcEEEENS4_IS6_EEEaSB8ne180100ERKS8_, symObjAddr: 0x86B0, symBinAddr: 0x10000C024, symSize: 0x68 }
  - { offset: 0x3D55D, size: 0x8, addend: 0x0, symName: __ZNSt3__16vectorINS_12basic_stringIcNS_11char_traitsIcEENS_9allocatorIcEEEENS4_IS6_EEE19__copy_assign_allocB8ne180100ERKS8_, symObjAddr: 0x8718, symBinAddr: 0x10000C08C, symSize: 0x2C }
  - { offset: 0x3D593, size: 0x8, addend: 0x0, symName: __ZNSt3__16vectorINS_12basic_stringIcNS_11char_traitsIcEENS_9allocatorIcEEEENS4_IS6_EEE6assignIPS6_Li0EEEvT_SB_, symObjAddr: 0x8744, symBinAddr: 0x10000C0B8, symSize: 0x5C }
  - { offset: 0x3D5EA, size: 0x8, addend: 0x0, symName: __ZNSt3__16vectorINS_12basic_stringIcNS_11char_traitsIcEENS_9allocatorIcEEEENS4_IS6_EEE19__copy_assign_allocB8ne180100ERKS8_NS_17integral_constantIbLb0EEE, symObjAddr: 0x87A0, symBinAddr: 0x10000C114, symSize: 0x14 }
  - { offset: 0x3D628, size: 0x8, addend: 0x0, symName: __ZNSt3__16vectorINS_12basic_stringIcNS_11char_traitsIcEENS_9allocatorIcEEEENS4_IS6_EEE18__assign_with_sizeB8ne180100IPS6_SA_EEvT_T0_l, symObjAddr: 0x87B4, symBinAddr: 0x10000C128, symSize: 0x164 }
  - { offset: 0x3D6E0, size: 0x8, addend: 0x0, symName: __ZNKSt3__16vectorINS_12basic_stringIcNS_11char_traitsIcEENS_9allocatorIcEEEENS4_IS6_EEE8capacityB8ne180100Ev, symObjAddr: 0x8944, symBinAddr: 0x10000C2B8, symSize: 0x40 }
  - { offset: 0x3D706, size: 0x8, addend: 0x0, symName: __ZNKSt3__16vectorINS_12basic_stringIcNS_11char_traitsIcEENS_9allocatorIcEEEENS4_IS6_EEE4sizeB8ne180100Ev, symObjAddr: 0x8984, symBinAddr: 0x10000C2F8, symSize: 0x28 }
  - { offset: 0x3D72C, size: 0x8, addend: 0x0, symName: __ZNSt3__16vectorINS_12basic_stringIcNS_11char_traitsIcEENS_9allocatorIcEEEENS4_IS6_EEE18__construct_at_endIPS6_SA_EEvT_T0_m, symObjAddr: 0x8A20, symBinAddr: 0x10000C394, symSize: 0x8C }
  - { offset: 0x3D7A6, size: 0x8, addend: 0x0, symName: __ZNSt3__16vectorINS_12basic_stringIcNS_11char_traitsIcEENS_9allocatorIcEEEENS4_IS6_EEE17__destruct_at_endB8ne180100EPS6_, symObjAddr: 0x8AF0, symBinAddr: 0x10000C464, symSize: 0x4C }
  - { offset: 0x3D7EC, size: 0x8, addend: 0x0, symName: __ZNSt3__16vectorINS_12basic_stringIcNS_11char_traitsIcEENS_9allocatorIcEEEENS4_IS6_EEE13__vdeallocateEv, symObjAddr: 0x8B3C, symBinAddr: 0x10000C4B0, symSize: 0x94 }
  - { offset: 0x3D814, size: 0x8, addend: 0x0, symName: __ZNSt3__16vectorINS_12basic_stringIcNS_11char_traitsIcEENS_9allocatorIcEEEENS4_IS6_EEE11__vallocateB8ne180100Em, symObjAddr: 0x8BD0, symBinAddr: 0x10000C544, symSize: 0xB4 }
  - { offset: 0x3D85A, size: 0x8, addend: 0x0, symName: __ZNKSt3__16vectorINS_12basic_stringIcNS_11char_traitsIcEENS_9allocatorIcEEEENS4_IS6_EEE11__recommendB8ne180100Em, symObjAddr: 0x8C84, symBinAddr: 0x10000C5F8, symSize: 0xB4 }
  - { offset: 0x3D8B2, size: 0x8, addend: 0x0, symName: __ZNKSt3__16vectorINS_12basic_stringIcNS_11char_traitsIcEENS_9allocatorIcEEEENS4_IS6_EEE9__end_capB8ne180100Ev, symObjAddr: 0x8D38, symBinAddr: 0x10000C6AC, symSize: 0x28 }
  - { offset: 0x3D8D8, size: 0x8, addend: 0x0, symName: __ZNKSt3__117__compressed_pairIPNS_12basic_stringIcNS_11char_traitsIcEENS_9allocatorIcEEEENS4_IS6_EEE5firstB8ne180100Ev, symObjAddr: 0x8D60, symBinAddr: 0x10000C6D4, symSize: 0x24 }
  - { offset: 0x3D8FE, size: 0x8, addend: 0x0, symName: __ZNKSt3__122__compressed_pair_elemIPNS_12basic_stringIcNS_11char_traitsIcEENS_9allocatorIcEEEELi0ELb0EE5__getB8ne180100Ev, symObjAddr: 0x8D84, symBinAddr: 0x10000C6F8, symSize: 0x14 }
  - { offset: 0x3D93D, size: 0x8, addend: 0x0, symName: __ZNSt3__16vectorINS_12basic_stringIcNS_11char_traitsIcEENS_9allocatorIcEEEENS4_IS6_EEE21_ConstructTransactionC1B8ne180100ERS8_m, symObjAddr: 0x8E14, symBinAddr: 0x10000C788, symSize: 0x3C }
  - { offset: 0x3D987, size: 0x8, addend: 0x0, symName: __ZNSt3__16vectorINS_12basic_stringIcNS_11char_traitsIcEENS_9allocatorIcEEEENS4_IS6_EEE7__allocB8ne180100Ev, symObjAddr: 0x8ED0, symBinAddr: 0x10000C844, symSize: 0x28 }
  - { offset: 0x3D9AD, size: 0x8, addend: 0x0, symName: __ZNSt3__16vectorINS_12basic_stringIcNS_11char_traitsIcEENS_9allocatorIcEEEENS4_IS6_EEE21_ConstructTransactionD1B8ne180100Ev, symObjAddr: 0x8EF8, symBinAddr: 0x10000C86C, symSize: 0x2C }
  - { offset: 0x3D9D7, size: 0x8, addend: 0x0, symName: __ZNSt3__16vectorINS_12basic_stringIcNS_11char_traitsIcEENS_9allocatorIcEEEENS4_IS6_EEE21_ConstructTransactionC2B8ne180100ERS8_m, symObjAddr: 0x8F24, symBinAddr: 0x10000C898, symSize: 0x4C }
  - { offset: 0x3DA3F, size: 0x8, addend: 0x0, symName: __ZNSt3__14pairIPNS_12basic_stringIcNS_11char_traitsIcEENS_9allocatorIcEEEES7_EC1B8ne180100IS7_S7_Li0EEEOT_OT0_, symObjAddr: 0x915C, symBinAddr: 0x10000CAD0, symSize: 0x3C }
  - { offset: 0x3DA9D, size: 0x8, addend: 0x0, symName: __ZNSt3__14pairIPNS_12basic_stringIcNS_11char_traitsIcEENS_9allocatorIcEEEES7_EC2B8ne180100IS7_S7_Li0EEEOT_OT0_, symObjAddr: 0x9198, symBinAddr: 0x10000CB0C, symSize: 0x34 }
  - { offset: 0x3DAFB, size: 0x8, addend: 0x0, symName: __ZNSt3__129_AllocatorDestroyRangeReverseINS_9allocatorINS_12basic_stringIcNS_11char_traitsIcEENS1_IcEEEEEEPS6_EC1B8ne180100ERS7_RS8_SB_, symObjAddr: 0x9218, symBinAddr: 0x10000CB8C, symSize: 0x44 }
  - { offset: 0x3DB55, size: 0x8, addend: 0x0, symName: __ZNSt3__116allocator_traitsINS_9allocatorINS_12basic_stringIcNS_11char_traitsIcEENS1_IcEEEEEEE9constructB8ne180100IS6_JRS6_EvEEvRS7_PT_DpOT0_, symObjAddr: 0x925C, symBinAddr: 0x10000CBD0, symSize: 0x34 }
  - { offset: 0x3DBAF, size: 0x8, addend: 0x0, symName: __ZNSt3__128__exception_guard_exceptionsINS_29_AllocatorDestroyRangeReverseINS_9allocatorINS_12basic_stringIcNS_11char_traitsIcEENS2_IcEEEEEEPS7_EEE10__completeB8ne180100Ev, symObjAddr: 0x92A4, symBinAddr: 0x10000CC18, symSize: 0x1C }
  - { offset: 0x3DBD5, size: 0x8, addend: 0x0, symName: __ZNSt3__128__exception_guard_exceptionsINS_29_AllocatorDestroyRangeReverseINS_9allocatorINS_12basic_stringIcNS_11char_traitsIcEENS2_IcEEEEEEPS7_EEED1B8ne180100Ev, symObjAddr: 0x92C0, symBinAddr: 0x10000CC34, symSize: 0x2C }
  - { offset: 0x3DBFF, size: 0x8, addend: 0x0, symName: __ZNSt3__128__exception_guard_exceptionsINS_29_AllocatorDestroyRangeReverseINS_9allocatorINS_12basic_stringIcNS_11char_traitsIcEENS2_IcEEEEEEPS7_EEEC1B8ne180100ESA_, symObjAddr: 0x92EC, symBinAddr: 0x10000CC60, symSize: 0x34 }
  - { offset: 0x3DC38, size: 0x8, addend: 0x0, symName: __ZNSt3__128__exception_guard_exceptionsINS_29_AllocatorDestroyRangeReverseINS_9allocatorINS_12basic_stringIcNS_11char_traitsIcEENS2_IcEEEEEEPS7_EEEC2B8ne180100ESA_, symObjAddr: 0x9320, symBinAddr: 0x10000CC94, symSize: 0x30 }
  - { offset: 0x3DC71, size: 0x8, addend: 0x0, symName: __ZNSt3__129_AllocatorDestroyRangeReverseINS_9allocatorINS_12basic_stringIcNS_11char_traitsIcEENS1_IcEEEEEEPS6_EC2B8ne180100ERS7_RS8_SB_, symObjAddr: 0x9350, symBinAddr: 0x10000CCC4, symSize: 0x38 }
  - { offset: 0x3DCCB, size: 0x8, addend: 0x0, symName: __ZNSt3__19allocatorINS_12basic_stringIcNS_11char_traitsIcEENS0_IcEEEEE9constructB8ne180100IS5_JRS5_EEEvPT_DpOT0_, symObjAddr: 0x9388, symBinAddr: 0x10000CCFC, symSize: 0x30 }
  - { offset: 0x3DD21, size: 0x8, addend: 0x0, symName: __ZNSt3__128__exception_guard_exceptionsINS_29_AllocatorDestroyRangeReverseINS_9allocatorINS_12basic_stringIcNS_11char_traitsIcEENS2_IcEEEEEEPS7_EEED2B8ne180100Ev, symObjAddr: 0x93B8, symBinAddr: 0x10000CD2C, symSize: 0x50 }
  - { offset: 0x3DD4B, size: 0x8, addend: 0x0, symName: __ZNKSt3__129_AllocatorDestroyRangeReverseINS_9allocatorINS_12basic_stringIcNS_11char_traitsIcEENS1_IcEEEEEEPS6_EclB8ne180100Ev, symObjAddr: 0x9408, symBinAddr: 0x10000CD7C, symSize: 0x68 }
  - { offset: 0x3DD71, size: 0x8, addend: 0x0, symName: __ZNSt3__116reverse_iteratorIPNS_12basic_stringIcNS_11char_traitsIcEENS_9allocatorIcEEEEEC1B8ne180100ES7_, symObjAddr: 0x94E0, symBinAddr: 0x10000CE54, symSize: 0x34 }
  - { offset: 0x3DDA9, size: 0x8, addend: 0x0, symName: __ZNSt3__116allocator_traitsINS_9allocatorINS_12basic_stringIcNS_11char_traitsIcEENS1_IcEEEEEEE7destroyB8ne180100IS6_vEEvRS7_PT_, symObjAddr: 0x955C, symBinAddr: 0x10000CED0, symSize: 0x2C }
  - { offset: 0x3DDE8, size: 0x8, addend: 0x0, symName: __ZNSt3__116reverse_iteratorIPNS_12basic_stringIcNS_11char_traitsIcEENS_9allocatorIcEEEEEppB8ne180100Ev, symObjAddr: 0x95AC, symBinAddr: 0x10000CF20, symSize: 0x20 }
  - { offset: 0x3DE0E, size: 0x8, addend: 0x0, symName: __ZNKSt3__116reverse_iteratorIPNS_12basic_stringIcNS_11char_traitsIcEENS_9allocatorIcEEEEE4baseB8ne180100Ev, symObjAddr: 0x95CC, symBinAddr: 0x10000CF40, symSize: 0x18 }
  - { offset: 0x3DE34, size: 0x8, addend: 0x0, symName: __ZNSt3__19allocatorINS_12basic_stringIcNS_11char_traitsIcEENS0_IcEEEEE7destroyB8ne180100EPS5_, symObjAddr: 0x95E4, symBinAddr: 0x10000CF58, symSize: 0x28 }
  - { offset: 0x3DE6D, size: 0x8, addend: 0x0, symName: __ZNSt3__119__to_address_helperINS_16reverse_iteratorIPNS_12basic_stringIcNS_11char_traitsIcEENS_9allocatorIcEEEEEEvE6__callB8ne180100ERKS9_, symObjAddr: 0x960C, symBinAddr: 0x10000CF80, symSize: 0x38 }
  - { offset: 0x3DE90, size: 0x8, addend: 0x0, symName: __ZNKSt3__116reverse_iteratorIPNS_12basic_stringIcNS_11char_traitsIcEENS_9allocatorIcEEEEEptB8ne180100Ev, symObjAddr: 0x9644, symBinAddr: 0x10000CFB8, symSize: 0x24 }
  - { offset: 0x3DEB6, size: 0x8, addend: 0x0, symName: __ZNKSt3__116reverse_iteratorIPNS_12basic_stringIcNS_11char_traitsIcEENS_9allocatorIcEEEEEdeB8ne180100Ev, symObjAddr: 0x9668, symBinAddr: 0x10000CFDC, symSize: 0x28 }
  - { offset: 0x3DEEA, size: 0x8, addend: 0x0, symName: __ZNSt3__116reverse_iteratorIPNS_12basic_stringIcNS_11char_traitsIcEENS_9allocatorIcEEEEEC2B8ne180100ES7_, symObjAddr: 0x9690, symBinAddr: 0x10000D004, symSize: 0x28 }
  - { offset: 0x3DF22, size: 0x8, addend: 0x0, symName: __ZNSt3__118__unwrap_iter_implIPNS_12basic_stringIcNS_11char_traitsIcEENS_9allocatorIcEEEELb1EE8__unwrapB8ne180100ES7_, symObjAddr: 0x96B8, symBinAddr: 0x10000D02C, symSize: 0x24 }
  - { offset: 0x3DF45, size: 0x8, addend: 0x0, symName: __ZNSt3__118__unwrap_iter_implIPNS_12basic_stringIcNS_11char_traitsIcEENS_9allocatorIcEEEELb1EE8__rewrapB8ne180100ES7_S7_, symObjAddr: 0x96DC, symBinAddr: 0x10000D050, symSize: 0x58 }
  - { offset: 0x3DF76, size: 0x8, addend: 0x0, symName: __ZNSt3__117__compressed_pairIPNS_12basic_stringIcNS_11char_traitsIcEENS_9allocatorIcEEEENS4_IS6_EEE6secondB8ne180100Ev, symObjAddr: 0x9734, symBinAddr: 0x10000D0A8, symSize: 0x24 }
  - { offset: 0x3DF9C, size: 0x8, addend: 0x0, symName: __ZNSt3__122__compressed_pair_elemINS_9allocatorINS_12basic_stringIcNS_11char_traitsIcEENS1_IcEEEEEELi1ELb1EE5__getB8ne180100Ev, symObjAddr: 0x9758, symBinAddr: 0x10000D0CC, symSize: 0x14 }
  - { offset: 0x3DFC2, size: 0x8, addend: 0x0, symName: __ZNSt3__16vectorINS_12basic_stringIcNS_11char_traitsIcEENS_9allocatorIcEEEENS4_IS6_EEE21_ConstructTransactionD2B8ne180100Ev, symObjAddr: 0x976C, symBinAddr: 0x10000D0E0, symSize: 0x20 }
  - { offset: 0x3DFF6, size: 0x8, addend: 0x0, symName: __ZNKSt3__111__copy_loopINS_17_ClassicAlgPolicyEEclB8ne180100IPNS_12basic_stringIcNS_11char_traitsIcEENS_9allocatorIcEEEESA_SA_EENS_4pairIT_T1_EESC_T0_SD_, symObjAddr: 0x9884, symBinAddr: 0x10000D1F8, symSize: 0x88 }
  - { offset: 0x3E061, size: 0x8, addend: 0x0, symName: __ZNSt3__16vectorINS_12basic_stringIcNS_11char_traitsIcEENS_9allocatorIcEEEENS4_IS6_EEE22__base_destruct_at_endB8ne180100EPS6_, symObjAddr: 0x9938, symBinAddr: 0x10000D2AC, symSize: 0x8C }
  - { offset: 0x3E0A7, size: 0x8, addend: 0x0, symName: __ZNKSt3__16vectorINS_12basic_stringIcNS_11char_traitsIcEENS_9allocatorIcEEEENS4_IS6_EEE17__annotate_shrinkB8ne180100Em, symObjAddr: 0x99C4, symBinAddr: 0x10000D338, symSize: 0x14 }
  - { offset: 0x3E0DD, size: 0x8, addend: 0x0, symName: __ZNSt3__16vectorINS_12basic_stringIcNS_11char_traitsIcEENS_9allocatorIcEEEENS4_IS6_EEE5clearB8ne180100Ev, symObjAddr: 0x99D8, symBinAddr: 0x10000D34C, symSize: 0x44 }
  - { offset: 0x3E113, size: 0x8, addend: 0x0, symName: __ZNKSt3__16vectorINS_12basic_stringIcNS_11char_traitsIcEENS_9allocatorIcEEEENS4_IS6_EEE17__annotate_deleteB8ne180100Ev, symObjAddr: 0x9A1C, symBinAddr: 0x10000D390, symSize: 0x10 }
  - { offset: 0x3E139, size: 0x8, addend: 0x0, symName: __ZNSt3__116allocator_traitsINS_9allocatorINS_12basic_stringIcNS_11char_traitsIcEENS1_IcEEEEEEE10deallocateB8ne180100ERS7_PS6_m, symObjAddr: 0x9A2C, symBinAddr: 0x10000D3A0, symSize: 0x34 }
  - { offset: 0x3E17E, size: 0x8, addend: 0x0, symName: __ZNSt3__16vectorINS_12basic_stringIcNS_11char_traitsIcEENS_9allocatorIcEEEENS4_IS6_EEE9__end_capB8ne180100Ev, symObjAddr: 0x9A60, symBinAddr: 0x10000D3D4, symSize: 0x28 }
  - { offset: 0x3E1A4, size: 0x8, addend: 0x0, symName: __ZNSt3__16vectorINS_12basic_stringIcNS_11char_traitsIcEENS_9allocatorIcEEEENS4_IS6_EEE7__clearB8ne180100Ev, symObjAddr: 0x9A88, symBinAddr: 0x10000D3FC, symSize: 0x28 }
  - { offset: 0x3E1CA, size: 0x8, addend: 0x0, symName: __ZNSt3__19allocatorINS_12basic_stringIcNS_11char_traitsIcEENS0_IcEEEEE10deallocateB8ne180100EPS5_m, symObjAddr: 0x9AB0, symBinAddr: 0x10000D424, symSize: 0x44 }
  - { offset: 0x3E20C, size: 0x8, addend: 0x0, symName: __ZNSt3__117__compressed_pairIPNS_12basic_stringIcNS_11char_traitsIcEENS_9allocatorIcEEEENS4_IS6_EEE5firstB8ne180100Ev, symObjAddr: 0x9AF4, symBinAddr: 0x10000D468, symSize: 0x24 }
  - { offset: 0x3E232, size: 0x8, addend: 0x0, symName: __ZNSt3__122__compressed_pair_elemIPNS_12basic_stringIcNS_11char_traitsIcEENS_9allocatorIcEEEELi0ELb0EE5__getB8ne180100Ev, symObjAddr: 0x9B18, symBinAddr: 0x10000D48C, symSize: 0x14 }
  - { offset: 0x3E258, size: 0x8, addend: 0x0, symName: __ZNKSt3__16vectorINS_12basic_stringIcNS_11char_traitsIcEENS_9allocatorIcEEEENS4_IS6_EEE8max_sizeEv, symObjAddr: 0x9B2C, symBinAddr: 0x10000D4A0, symSize: 0x60 }
  - { offset: 0x3E280, size: 0x8, addend: 0x0, symName: __ZNKSt3__16vectorINS_12basic_stringIcNS_11char_traitsIcEENS_9allocatorIcEEEENS4_IS6_EEE20__throw_length_errorB8ne180100Ev, symObjAddr: 0x9B8C, symBinAddr: 0x10000D500, symSize: 0x1C }
  - { offset: 0x3E2A6, size: 0x8, addend: 0x0, symName: __ZNKSt3__16vectorINS_12basic_stringIcNS_11char_traitsIcEENS_9allocatorIcEEEENS4_IS6_EEE14__annotate_newB8ne180100Em, symObjAddr: 0x9BE8, symBinAddr: 0x10000D55C, symSize: 0x14 }
  - { offset: 0x3E2E6, size: 0x8, addend: 0x0, symName: __ZNSt3__116allocator_traitsINS_9allocatorINS_12basic_stringIcNS_11char_traitsIcEENS1_IcEEEEEEE8max_sizeB8ne180100IS7_vEEmRKS7_, symObjAddr: 0x9BFC, symBinAddr: 0x10000D570, symSize: 0x24 }
  - { offset: 0x3E315, size: 0x8, addend: 0x0, symName: __ZNKSt3__16vectorINS_12basic_stringIcNS_11char_traitsIcEENS_9allocatorIcEEEENS4_IS6_EEE7__allocB8ne180100Ev, symObjAddr: 0x9C20, symBinAddr: 0x10000D594, symSize: 0x28 }
  - { offset: 0x3E33B, size: 0x8, addend: 0x0, symName: __ZNSt3__114numeric_limitsIlE3maxB8ne180100Ev, symObjAddr: 0x9C48, symBinAddr: 0x10000D5BC, symSize: 0x14 }
  - { offset: 0x3E34F, size: 0x8, addend: 0x0, symName: __ZNKSt3__19allocatorINS_12basic_stringIcNS_11char_traitsIcEENS0_IcEEEEE8max_sizeB8ne180100Ev, symObjAddr: 0x9C5C, symBinAddr: 0x10000D5D0, symSize: 0x18 }
  - { offset: 0x3E375, size: 0x8, addend: 0x0, symName: __ZNKSt3__117__compressed_pairIPNS_12basic_stringIcNS_11char_traitsIcEENS_9allocatorIcEEEENS4_IS6_EEE6secondB8ne180100Ev, symObjAddr: 0x9C74, symBinAddr: 0x10000D5E8, symSize: 0x24 }
  - { offset: 0x3E39B, size: 0x8, addend: 0x0, symName: __ZNKSt3__122__compressed_pair_elemINS_9allocatorINS_12basic_stringIcNS_11char_traitsIcEENS1_IcEEEEEELi1ELb1EE5__getB8ne180100Ev, symObjAddr: 0x9C98, symBinAddr: 0x10000D60C, symSize: 0x14 }
  - { offset: 0x3E3C1, size: 0x8, addend: 0x0, symName: __ZNSt3__123__libcpp_numeric_limitsIlLb1EE3maxB8ne180100Ev, symObjAddr: 0x9CAC, symBinAddr: 0x10000D620, symSize: 0x8 }
  - { offset: 0x3E3D5, size: 0x8, addend: 0x0, symName: __ZNSt12length_errorC1B8ne180100EPKc, symObjAddr: 0x9D18, symBinAddr: 0x10000D68C, symSize: 0x34 }
  - { offset: 0x3E40D, size: 0x8, addend: 0x0, symName: __ZNSt12length_errorC2B8ne180100EPKc, symObjAddr: 0x9D4C, symBinAddr: 0x10000D6C0, symSize: 0x44 }
  - { offset: 0x3E445, size: 0x8, addend: 0x0, symName: __ZNSt3__19allocatorINS_12basic_stringIcNS_11char_traitsIcEENS0_IcEEEEE8allocateB8ne180100Em, symObjAddr: 0x9D90, symBinAddr: 0x10000D704, symSize: 0x5C }
  - { offset: 0x3E479, size: 0x8, addend: 0x0, symName: __ZNKSt3__122__unordered_map_hasherINS_12basic_stringIcNS_11char_traitsIcEENS_9allocatorIcEEEENS_17__hash_value_typeIS6_NS_6vectorIS6_NS4_IS6_EEEEEENS_4hashIS6_EENS_8equal_toIS6_EELb1EEclB8ne180100ERKSB_, symObjAddr: 0x9E94, symBinAddr: 0x10000D808, symSize: 0x3C }
  - { offset: 0x3E4AF, size: 0x8, addend: 0x0, symName: __ZNSt3__112__hash_tableINS_17__hash_value_typeINS_12basic_stringIcNS_11char_traitsIcEENS_9allocatorIcEEEENS_6vectorIS7_NS5_IS7_EEEEEENS_22__unordered_map_hasherIS7_SB_NS_4hashIS7_EENS_8equal_toIS7_EELb1EEENS_21__unordered_map_equalIS7_SB_SG_SE_Lb1EEENS5_ISB_EEE27__node_insert_multi_prepareEmRSB_, symObjAddr: 0x9ED0, symBinAddr: 0x10000D844, symSize: 0x29C }
  - { offset: 0x3E547, size: 0x8, addend: 0x0, symName: __ZNKSt3__116__hash_node_baseIPNS_11__hash_nodeINS_17__hash_value_typeINS_12basic_stringIcNS_11char_traitsIcEENS_9allocatorIcEEEENS_6vectorIS8_NS6_IS8_EEEEEEPvEEE6__hashB8ne180100Ev, symObjAddr: 0xA16C, symBinAddr: 0x10000DAE0, symSize: 0x18 }
  - { offset: 0x3E56D, size: 0x8, addend: 0x0, symName: __ZNSt3__112__hash_tableINS_17__hash_value_typeINS_12basic_stringIcNS_11char_traitsIcEENS_9allocatorIcEEEENS_6vectorIS7_NS5_IS7_EEEEEENS_22__unordered_map_hasherIS7_SB_NS_4hashIS7_EENS_8equal_toIS7_EELb1EEENS_21__unordered_map_equalIS7_SB_SG_SE_Lb1EEENS5_ISB_EEE27__node_insert_multi_performEPNS_11__hash_nodeISB_PvEEPNS_16__hash_node_baseISP_EE, symObjAddr: 0xA184, symBinAddr: 0x10000DAF8, symSize: 0x1B8 }
  - { offset: 0x3E5F4, size: 0x8, addend: 0x0, symName: __ZNSt3__116__hash_node_baseIPNS_11__hash_nodeINS_17__hash_value_typeINS_12basic_stringIcNS_11char_traitsIcEENS_9allocatorIcEEEENS_6vectorIS8_NS6_IS8_EEEEEEPvEEE5__ptrB8ne180100Ev, symObjAddr: 0xA33C, symBinAddr: 0x10000DCB0, symSize: 0x24 }
  - { offset: 0x3E61A, size: 0x8, addend: 0x0, symName: __ZNSt3__115__hash_iteratorIPNS_11__hash_nodeINS_17__hash_value_typeINS_12basic_stringIcNS_11char_traitsIcEENS_9allocatorIcEEEENS_6vectorIS8_NS6_IS8_EEEEEEPvEEEC1B8ne180100EPNS_16__hash_node_baseISF_EE, symObjAddr: 0xA360, symBinAddr: 0x10000DCD4, symSize: 0x34 }
  - { offset: 0x3E654, size: 0x8, addend: 0x0, symName: __ZNKSt3__113__string_hashIcNS_9allocatorIcEEEclB8ne180100ERKNS_12basic_stringIcNS_11char_traitsIcEES2_EE, symObjAddr: 0xA394, symBinAddr: 0x10000DD08, symSize: 0x64 }
  - { offset: 0x3E68A, size: 0x8, addend: 0x0, symName: __ZNKSt3__121__murmur2_or_cityhashImLm64EEclB8ne180100EPKvm, symObjAddr: 0xA434, symBinAddr: 0x10000DDA8, symSize: 0x410 }
  - { offset: 0x3E724, size: 0x8, addend: 0x0, symName: __ZNSt3__121__murmur2_or_cityhashImLm64EE18__hash_len_0_to_16B8ne180100EPKcm, symObjAddr: 0xA844, symBinAddr: 0x10000E1B8, symSize: 0x1C8 }
  - { offset: 0x3E800, size: 0x8, addend: 0x0, symName: __ZNSt3__121__murmur2_or_cityhashImLm64EE19__hash_len_17_to_32B8ne180100EPKcm, symObjAddr: 0xAA0C, symBinAddr: 0x10000E380, symSize: 0x130 }
  - { offset: 0x3E869, size: 0x8, addend: 0x0, symName: __ZNSt3__121__murmur2_or_cityhashImLm64EE19__hash_len_33_to_64B8ne180100EPKcm, symObjAddr: 0xAB3C, symBinAddr: 0x10000E4B0, symSize: 0x2B8 }
  - { offset: 0x3E91B, size: 0x8, addend: 0x0, symName: __ZNSt3__121__murmur2_or_cityhashImLm64EE13__hash_len_16B8ne180100Emm, symObjAddr: 0xAE14, symBinAddr: 0x10000E788, symSize: 0x80 }
  - { offset: 0x3E976, size: 0x8, addend: 0x0, symName: __ZNSt3__121__murmur2_or_cityhashImLm64EE29__weak_hash_len_32_with_seedsB8ne180100EPKcmm, symObjAddr: 0xAE94, symBinAddr: 0x10000E808, symSize: 0x88 }
  - { offset: 0x3E9B5, size: 0x8, addend: 0x0, symName: __ZNSt3__121__murmur2_or_cityhashImLm64EE8__rotateB8ne180100Emi, symObjAddr: 0xAF1C, symBinAddr: 0x10000E890, symSize: 0x64 }
  - { offset: 0x3E9E6, size: 0x8, addend: 0x0, symName: __ZNSt3__14pairImmEaSB8ne180100EOS1_, symObjAddr: 0xAF80, symBinAddr: 0x10000E8F4, symSize: 0x30 }
  - { offset: 0x3EA1C, size: 0x8, addend: 0x0, symName: __ZNSt3__121__murmur2_or_cityhashImLm64EE11__shift_mixB8ne180100Em, symObjAddr: 0xAFEC, symBinAddr: 0x10000E960, symSize: 0x1C }
  - { offset: 0x3EA3F, size: 0x8, addend: 0x0, symName: __ZNSt3__121__murmur2_or_cityhashImLm64EE22__rotate_by_at_least_1B8ne180100Emi, symObjAddr: 0xB008, symBinAddr: 0x10000E97C, symSize: 0x38 }
  - { offset: 0x3EA70, size: 0x8, addend: 0x0, symName: __ZNSt3__121__murmur2_or_cityhashImLm64EE29__weak_hash_len_32_with_seedsB8ne180100Emmmmmm, symObjAddr: 0xB060, symBinAddr: 0x10000E9D4, symSize: 0xD8 }
  - { offset: 0x3EAEC, size: 0x8, addend: 0x0, symName: __ZNSt3__14pairImmEC1B8ne180100ImmLi0EEEOT_OT0_, symObjAddr: 0xB138, symBinAddr: 0x10000EAAC, symSize: 0x3C }
  - { offset: 0x3EB4A, size: 0x8, addend: 0x0, symName: __ZNSt3__14pairImmEC2B8ne180100ImmLi0EEEOT_OT0_, symObjAddr: 0xB174, symBinAddr: 0x10000EAE8, symSize: 0x34 }
  - { offset: 0x3EBA8, size: 0x8, addend: 0x0, symName: __ZNSt3__112__hash_tableINS_17__hash_value_typeINS_12basic_stringIcNS_11char_traitsIcEENS_9allocatorIcEEEENS_6vectorIS7_NS5_IS7_EEEEEENS_22__unordered_map_hasherIS7_SB_NS_4hashIS7_EENS_8equal_toIS7_EELb1EEENS_21__unordered_map_equalIS7_SB_SG_SE_Lb1EEENS5_ISB_EEE14__rehash_multiB8ne180100Em, symObjAddr: 0xB1A8, symBinAddr: 0x10000EB1C, symSize: 0x2C }
  - { offset: 0x3EBDE, size: 0x8, addend: 0x0, symName: __ZNKSt3__121__unordered_map_equalINS_12basic_stringIcNS_11char_traitsIcEENS_9allocatorIcEEEENS_17__hash_value_typeIS6_NS_6vectorIS6_NS4_IS6_EEEEEENS_8equal_toIS6_EENS_4hashIS6_EELb1EEclB8ne180100ERKSB_SI_, symObjAddr: 0xB2D4, symBinAddr: 0x10000EC48, symSize: 0x54 }
  - { offset: 0x3EC24, size: 0x8, addend: 0x0, symName: __ZNSt3__112__hash_tableINS_17__hash_value_typeINS_12basic_stringIcNS_11char_traitsIcEENS_9allocatorIcEEEENS_6vectorIS7_NS5_IS7_EEEEEENS_22__unordered_map_hasherIS7_SB_NS_4hashIS7_EENS_8equal_toIS7_EELb1EEENS_21__unordered_map_equalIS7_SB_SG_SE_Lb1EEENS5_ISB_EEE8__rehashILb0EEEvm, symObjAddr: 0xB328, symBinAddr: 0x10000EC9C, symSize: 0x1A8 }
  - { offset: 0x3EC76, size: 0x8, addend: 0x0, symName: __ZNSt3__112__hash_tableINS_17__hash_value_typeINS_12basic_stringIcNS_11char_traitsIcEENS_9allocatorIcEEEENS_6vectorIS7_NS5_IS7_EEEEEENS_22__unordered_map_hasherIS7_SB_NS_4hashIS7_EENS_8equal_toIS7_EELb1EEENS_21__unordered_map_equalIS7_SB_SG_SE_Lb1EEENS5_ISB_EEE11__do_rehashILb0EEEvm, symObjAddr: 0xB4D0, symBinAddr: 0x10000EE44, symSize: 0x310 }
  - { offset: 0x3ED65, size: 0x8, addend: 0x0, symName: __ZNSt3__110unique_ptrIA_PNS_16__hash_node_baseIPNS_11__hash_nodeINS_17__hash_value_typeINS_12basic_stringIcNS_11char_traitsIcEENS_9allocatorIcEEEENS_6vectorIS9_NS7_IS9_EEEEEEPvEEEENS_25__bucket_list_deallocatorINS7_ISI_EEEEE11get_deleterB8ne180100Ev, symObjAddr: 0xB84C, symBinAddr: 0x10000F1C0, symSize: 0x24 }
  - { offset: 0x3ED8B, size: 0x8, addend: 0x0, symName: __ZNSt3__125__bucket_list_deallocatorINS_9allocatorIPNS_16__hash_node_baseIPNS_11__hash_nodeINS_17__hash_value_typeINS_12basic_stringIcNS_11char_traitsIcEENS1_IcEEEENS_6vectorIS9_NS1_IS9_EEEEEEPvEEEEEEE7__allocB8ne180100Ev, symObjAddr: 0xB870, symBinAddr: 0x10000F1E4, symSize: 0x24 }
  - { offset: 0x3EDB1, size: 0x8, addend: 0x0, symName: __ZNSt3__110unique_ptrIA_PNS_16__hash_node_baseIPNS_11__hash_nodeINS_17__hash_value_typeINS_12basic_stringIcNS_11char_traitsIcEENS_9allocatorIcEEEENS_6vectorIS9_NS7_IS9_EEEEEEPvEEEENS_25__bucket_list_deallocatorINS7_ISI_EEEEE5resetB8ne180100IPSI_Li0EEEvT_, symObjAddr: 0xB894, symBinAddr: 0x10000F208, symSize: 0x78 }
  - { offset: 0x3EE06, size: 0x8, addend: 0x0, symName: __ZNSt3__116allocator_traitsINS_9allocatorIPNS_16__hash_node_baseIPNS_11__hash_nodeINS_17__hash_value_typeINS_12basic_stringIcNS_11char_traitsIcEENS1_IcEEEENS_6vectorIS9_NS1_IS9_EEEEEEPvEEEEEEE8allocateB8ne180100ERSJ_m, symObjAddr: 0xB90C, symBinAddr: 0x10000F280, symSize: 0x2C }
  - { offset: 0x3EE3B, size: 0x8, addend: 0x0, symName: __ZNSt3__125__bucket_list_deallocatorINS_9allocatorIPNS_16__hash_node_baseIPNS_11__hash_nodeINS_17__hash_value_typeINS_12basic_stringIcNS_11char_traitsIcEENS1_IcEEEENS_6vectorIS9_NS1_IS9_EEEEEEPvEEEEEEE4sizeB8ne180100Ev, symObjAddr: 0xB938, symBinAddr: 0x10000F2AC, symSize: 0x24 }
  - { offset: 0x3EE61, size: 0x8, addend: 0x0, symName: __ZNSt3__117__compressed_pairIPPNS_16__hash_node_baseIPNS_11__hash_nodeINS_17__hash_value_typeINS_12basic_stringIcNS_11char_traitsIcEENS_9allocatorIcEEEENS_6vectorIS9_NS7_IS9_EEEEEEPvEEEENS_25__bucket_list_deallocatorINS7_ISI_EEEEE6secondB8ne180100Ev, symObjAddr: 0xB95C, symBinAddr: 0x10000F2D0, symSize: 0x28 }
  - { offset: 0x3EE87, size: 0x8, addend: 0x0, symName: __ZNSt3__122__compressed_pair_elemINS_25__bucket_list_deallocatorINS_9allocatorIPNS_16__hash_node_baseIPNS_11__hash_nodeINS_17__hash_value_typeINS_12basic_stringIcNS_11char_traitsIcEENS2_IcEEEENS_6vectorISA_NS2_ISA_EEEEEEPvEEEEEEEELi1ELb0EE5__getB8ne180100Ev, symObjAddr: 0xB984, symBinAddr: 0x10000F2F8, symSize: 0x14 }
  - { offset: 0x3EEAD, size: 0x8, addend: 0x0, symName: __ZNSt3__117__compressed_pairImNS_9allocatorIPNS_16__hash_node_baseIPNS_11__hash_nodeINS_17__hash_value_typeINS_12basic_stringIcNS_11char_traitsIcEENS1_IcEEEENS_6vectorIS9_NS1_IS9_EEEEEEPvEEEEEEE6secondB8ne180100Ev, symObjAddr: 0xB998, symBinAddr: 0x10000F30C, symSize: 0x24 }
  - { offset: 0x3EED3, size: 0x8, addend: 0x0, symName: __ZNSt3__122__compressed_pair_elemINS_9allocatorIPNS_16__hash_node_baseIPNS_11__hash_nodeINS_17__hash_value_typeINS_12basic_stringIcNS_11char_traitsIcEENS1_IcEEEENS_6vectorIS9_NS1_IS9_EEEEEEPvEEEEEELi1ELb1EE5__getB8ne180100Ev, symObjAddr: 0xB9BC, symBinAddr: 0x10000F330, symSize: 0x14 }
  - { offset: 0x3EEF9, size: 0x8, addend: 0x0, symName: __ZNSt3__117__compressed_pairIPPNS_16__hash_node_baseIPNS_11__hash_nodeINS_17__hash_value_typeINS_12basic_stringIcNS_11char_traitsIcEENS_9allocatorIcEEEENS_6vectorIS9_NS7_IS9_EEEEEEPvEEEENS_25__bucket_list_deallocatorINS7_ISI_EEEEE5firstB8ne180100Ev, symObjAddr: 0xB9D0, symBinAddr: 0x10000F344, symSize: 0x24 }
  - { offset: 0x3EF1F, size: 0x8, addend: 0x0, symName: __ZNSt3__125__bucket_list_deallocatorINS_9allocatorIPNS_16__hash_node_baseIPNS_11__hash_nodeINS_17__hash_value_typeINS_12basic_stringIcNS_11char_traitsIcEENS1_IcEEEENS_6vectorIS9_NS1_IS9_EEEEEEPvEEEEEEEclB8ne180100EPSI_, symObjAddr: 0xB9F4, symBinAddr: 0x10000F368, symSize: 0x58 }
  - { offset: 0x3EF55, size: 0x8, addend: 0x0, symName: __ZNSt3__122__compressed_pair_elemIPPNS_16__hash_node_baseIPNS_11__hash_nodeINS_17__hash_value_typeINS_12basic_stringIcNS_11char_traitsIcEENS_9allocatorIcEEEENS_6vectorIS9_NS7_IS9_EEEEEEPvEEEELi0ELb0EE5__getB8ne180100Ev, symObjAddr: 0xBA4C, symBinAddr: 0x10000F3C0, symSize: 0x14 }
  - { offset: 0x3EF7B, size: 0x8, addend: 0x0, symName: __ZNSt3__116allocator_traitsINS_9allocatorIPNS_16__hash_node_baseIPNS_11__hash_nodeINS_17__hash_value_typeINS_12basic_stringIcNS_11char_traitsIcEENS1_IcEEEENS_6vectorIS9_NS1_IS9_EEEEEEPvEEEEEEE10deallocateB8ne180100ERSJ_PSI_m, symObjAddr: 0xBA60, symBinAddr: 0x10000F3D4, symSize: 0x34 }
  - { offset: 0x3EFC0, size: 0x8, addend: 0x0, symName: __ZNSt3__19allocatorIPNS_16__hash_node_baseIPNS_11__hash_nodeINS_17__hash_value_typeINS_12basic_stringIcNS_11char_traitsIcEENS0_IcEEEENS_6vectorIS8_NS0_IS8_EEEEEEPvEEEEE10deallocateB8ne180100EPSH_m, symObjAddr: 0xBA94, symBinAddr: 0x10000F408, symSize: 0x40 }
  - { offset: 0x3F002, size: 0x8, addend: 0x0, symName: __ZNSt3__19allocatorIPNS_16__hash_node_baseIPNS_11__hash_nodeINS_17__hash_value_typeINS_12basic_stringIcNS_11char_traitsIcEENS0_IcEEEENS_6vectorIS8_NS0_IS8_EEEEEEPvEEEEE8allocateB8ne180100Em, symObjAddr: 0xBAD4, symBinAddr: 0x10000F448, symSize: 0x58 }
  - { offset: 0x3F040, size: 0x8, addend: 0x0, symName: __ZNSt3__116allocator_traitsINS_9allocatorIPNS_16__hash_node_baseIPNS_11__hash_nodeINS_17__hash_value_typeINS_12basic_stringIcNS_11char_traitsIcEENS1_IcEEEENS_6vectorIS9_NS1_IS9_EEEEEEPvEEEEEEE8max_sizeB8ne180100ISJ_vEEmRKSJ_, symObjAddr: 0xBB2C, symBinAddr: 0x10000F4A0, symSize: 0x24 }
  - { offset: 0x3F06F, size: 0x8, addend: 0x0, symName: __ZNKSt3__19allocatorIPNS_16__hash_node_baseIPNS_11__hash_nodeINS_17__hash_value_typeINS_12basic_stringIcNS_11char_traitsIcEENS0_IcEEEENS_6vectorIS8_NS0_IS8_EEEEEEPvEEEEE8max_sizeB8ne180100Ev, symObjAddr: 0xBB50, symBinAddr: 0x10000F4C4, symSize: 0x14 }
  - { offset: 0x3F095, size: 0x8, addend: 0x0, symName: __ZNSt3__117__compressed_pairImNS_9allocatorIPNS_16__hash_node_baseIPNS_11__hash_nodeINS_17__hash_value_typeINS_12basic_stringIcNS_11char_traitsIcEENS1_IcEEEENS_6vectorIS9_NS1_IS9_EEEEEEPvEEEEEEE5firstB8ne180100Ev, symObjAddr: 0xBB64, symBinAddr: 0x10000F4D8, symSize: 0x24 }
  - { offset: 0x3F0BB, size: 0x8, addend: 0x0, symName: __ZNKSt3__18equal_toINS_12basic_stringIcNS_11char_traitsIcEENS_9allocatorIcEEEEEclB8ne180100ERKS6_S9_, symObjAddr: 0xBBA4, symBinAddr: 0x10000F518, symSize: 0x34 }
  - { offset: 0x3F101, size: 0x8, addend: 0x0, symName: __ZNSt3__115__hash_iteratorIPNS_11__hash_nodeINS_17__hash_value_typeINS_12basic_stringIcNS_11char_traitsIcEENS_9allocatorIcEEEENS_6vectorIS8_NS6_IS8_EEEEEEPvEEEC2B8ne180100EPNS_16__hash_node_baseISF_EE, symObjAddr: 0xBD20, symBinAddr: 0x10000F694, symSize: 0x20 }
  - { offset: 0x3F13B, size: 0x8, addend: 0x0, symName: __ZNSt3__112__hash_tableINS_17__hash_value_typeINS_12basic_stringIcNS_11char_traitsIcEENS_9allocatorIcEEEENS_6vectorIS7_NS5_IS7_EEEEEENS_22__unordered_map_hasherIS7_SB_NS_4hashIS7_EENS_8equal_toIS7_EELb1EEENS_21__unordered_map_equalIS7_SB_SG_SE_Lb1EEENS5_ISB_EEE12__node_allocB8ne180100Ev, symObjAddr: 0xBD40, symBinAddr: 0x10000F6B4, symSize: 0x28 }
  - { offset: 0x3F161, size: 0x8, addend: 0x0, symName: __ZNSt3__116allocator_traitsINS_9allocatorINS_11__hash_nodeINS_17__hash_value_typeINS_12basic_stringIcNS_11char_traitsIcEENS1_IcEEEENS_6vectorIS8_NS1_IS8_EEEEEEPvEEEEE7destroyB8ne180100INS_4pairIKS8_SB_EEvvEEvRSF_PT_, symObjAddr: 0xBD68, symBinAddr: 0x10000F6DC, symSize: 0x28 }
  - { offset: 0x3F19D, size: 0x8, addend: 0x0, symName: __ZNSt3__122__hash_key_value_typesINS_17__hash_value_typeINS_12basic_stringIcNS_11char_traitsIcEENS_9allocatorIcEEEENS_6vectorIS7_NS5_IS7_EEEEEEE9__get_ptrB8ne180100ERSB_, symObjAddr: 0xBD90, symBinAddr: 0x10000F704, symSize: 0x24 }
  - { offset: 0x3F1C0, size: 0x8, addend: 0x0, symName: __ZNSt3__116allocator_traitsINS_9allocatorINS_11__hash_nodeINS_17__hash_value_typeINS_12basic_stringIcNS_11char_traitsIcEENS1_IcEEEENS_6vectorIS8_NS1_IS8_EEEEEEPvEEEEE10deallocateB8ne180100ERSF_PSE_m, symObjAddr: 0xBDD8, symBinAddr: 0x10000F74C, symSize: 0x34 }
  - { offset: 0x3F205, size: 0x8, addend: 0x0, symName: __ZNSt3__117__compressed_pairINS_16__hash_node_baseIPNS_11__hash_nodeINS_17__hash_value_typeINS_12basic_stringIcNS_11char_traitsIcEENS_9allocatorIcEEEENS_6vectorIS9_NS7_IS9_EEEEEEPvEEEENS7_ISF_EEE6secondB8ne180100Ev, symObjAddr: 0xBE0C, symBinAddr: 0x10000F780, symSize: 0x24 }
  - { offset: 0x3F22B, size: 0x8, addend: 0x0, symName: __ZNSt3__122__compressed_pair_elemINS_9allocatorINS_11__hash_nodeINS_17__hash_value_typeINS_12basic_stringIcNS_11char_traitsIcEENS1_IcEEEENS_6vectorIS8_NS1_IS8_EEEEEEPvEEEELi1ELb1EE5__getB8ne180100Ev, symObjAddr: 0xBE30, symBinAddr: 0x10000F7A4, symSize: 0x14 }
  - { offset: 0x3F251, size: 0x8, addend: 0x0, symName: __ZNSt3__14pairIKNS_12basic_stringIcNS_11char_traitsIcEENS_9allocatorIcEEEENS_6vectorIS6_NS4_IS6_EEEEED1Ev, symObjAddr: 0xBE68, symBinAddr: 0x10000F7DC, symSize: 0x2C }
  - { offset: 0x3F27D, size: 0x8, addend: 0x0, symName: __ZNSt3__14pairIKNS_12basic_stringIcNS_11char_traitsIcEENS_9allocatorIcEEEENS_6vectorIS6_NS4_IS6_EEEEED2Ev, symObjAddr: 0xBE94, symBinAddr: 0x10000F808, symSize: 0x38 }
  - { offset: 0x3F2A9, size: 0x8, addend: 0x0, symName: __ZNSt3__111__hash_nodeINS_17__hash_value_typeINS_12basic_stringIcNS_11char_traitsIcEENS_9allocatorIcEEEENS_6vectorIS7_NS5_IS7_EEEEEEPvED1B8ne180100Ev, symObjAddr: 0xBECC, symBinAddr: 0x10000F840, symSize: 0x2C }
  - { offset: 0x3F2D3, size: 0x8, addend: 0x0, symName: __ZNSt3__111__hash_nodeINS_17__hash_value_typeINS_12basic_stringIcNS_11char_traitsIcEENS_9allocatorIcEEEENS_6vectorIS7_NS5_IS7_EEEEEEPvED2B8ne180100Ev, symObjAddr: 0xBEF8, symBinAddr: 0x10000F86C, symSize: 0x14 }
  - { offset: 0x3F2FD, size: 0x8, addend: 0x0, symName: __ZNSt3__19allocatorINS_11__hash_nodeINS_17__hash_value_typeINS_12basic_stringIcNS_11char_traitsIcEENS0_IcEEEENS_6vectorIS7_NS0_IS7_EEEEEEPvEEE10deallocateB8ne180100EPSD_m, symObjAddr: 0xBF0C, symBinAddr: 0x10000F880, symSize: 0x40 }
  - { offset: 0x3F33F, size: 0x8, addend: 0x0, symName: __ZNSt3__112__hash_tableINS_17__hash_value_typeINS_12basic_stringIcNS_11char_traitsIcEENS_9allocatorIcEEEENS_6vectorIS7_NS5_IS7_EEEEEENS_22__unordered_map_hasherIS7_SB_NS_4hashIS7_EENS_8equal_toIS7_EELb1EEENS_21__unordered_map_equalIS7_SB_SG_SE_Lb1EEENS5_ISB_EEE15__emplace_multiIJRKNS_4pairIKS7_SA_EEEEENS_15__hash_iteratorIPNS_11__hash_nodeISB_PvEEEEDpOT_, symObjAddr: 0xBF4C, symBinAddr: 0x10000F8C0, symSize: 0x94 }
  - { offset: 0x3F3A2, size: 0x8, addend: 0x0, symName: __ZNSt3__112__hash_tableINS_17__hash_value_typeINS_12basic_stringIcNS_11char_traitsIcEENS_9allocatorIcEEEENS_6vectorIS7_NS5_IS7_EEEEEENS_22__unordered_map_hasherIS7_SB_NS_4hashIS7_EENS_8equal_toIS7_EELb1EEENS_21__unordered_map_equalIS7_SB_SG_SE_Lb1EEENS5_ISB_EEE16__construct_nodeIJRKNS_4pairIKS7_SA_EEEEENS_10unique_ptrINS_11__hash_nodeISB_PvEENS_22__hash_node_destructorINS5_ISV_EEEEEEDpOT_, symObjAddr: 0xBFE0, symBinAddr: 0x10000F954, symSize: 0x180 }
  - { offset: 0x3F406, size: 0x8, addend: 0x0, symName: __ZNKSt3__110unique_ptrINS_11__hash_nodeINS_17__hash_value_typeINS_12basic_stringIcNS_11char_traitsIcEENS_9allocatorIcEEEENS_6vectorIS8_NS6_IS8_EEEEEEPvEENS_22__hash_node_destructorINS6_ISE_EEEEE3getB8ne180100Ev, symObjAddr: 0xC160, symBinAddr: 0x10000FAD4, symSize: 0x28 }
  - { offset: 0x3F42C, size: 0x8, addend: 0x0, symName: __ZNSt3__110unique_ptrINS_11__hash_nodeINS_17__hash_value_typeINS_12basic_stringIcNS_11char_traitsIcEENS_9allocatorIcEEEENS_6vectorIS8_NS6_IS8_EEEEEEPvEENS_22__hash_node_destructorINS6_ISE_EEEEE7releaseB8ne180100Ev, symObjAddr: 0xC188, symBinAddr: 0x10000FAFC, symSize: 0x44 }
  - { offset: 0x3F462, size: 0x8, addend: 0x0, symName: __ZNSt3__110unique_ptrINS_11__hash_nodeINS_17__hash_value_typeINS_12basic_stringIcNS_11char_traitsIcEENS_9allocatorIcEEEENS_6vectorIS8_NS6_IS8_EEEEEEPvEENS_22__hash_node_destructorINS6_ISE_EEEEED1B8ne180100Ev, symObjAddr: 0xC1CC, symBinAddr: 0x10000FB40, symSize: 0x2C }
  - { offset: 0x3F48C, size: 0x8, addend: 0x0, symName: __ZNSt3__116allocator_traitsINS_9allocatorINS_11__hash_nodeINS_17__hash_value_typeINS_12basic_stringIcNS_11char_traitsIcEENS1_IcEEEENS_6vectorIS8_NS1_IS8_EEEEEEPvEEEEE8allocateB8ne180100ERSF_m, symObjAddr: 0xC1F8, symBinAddr: 0x10000FB6C, symSize: 0x2C }
  - { offset: 0x3F4C1, size: 0x8, addend: 0x0, symName: __ZNSt3__122__hash_node_destructorINS_9allocatorINS_11__hash_nodeINS_17__hash_value_typeINS_12basic_stringIcNS_11char_traitsIcEENS1_IcEEEENS_6vectorIS8_NS1_IS8_EEEEEEPvEEEEEC1B8ne180100ERSF_b, symObjAddr: 0xC224, symBinAddr: 0x10000FB98, symSize: 0x48 }
  - { offset: 0x3F510, size: 0x8, addend: 0x0, symName: __ZNSt3__110unique_ptrINS_11__hash_nodeINS_17__hash_value_typeINS_12basic_stringIcNS_11char_traitsIcEENS_9allocatorIcEEEENS_6vectorIS8_NS6_IS8_EEEEEEPvEENS_22__hash_node_destructorINS6_ISE_EEEEEC1B8ne180100ILb1EvEEPSE_NS_16__dependent_typeINS_27__unique_ptr_deleter_sfinaeISH_EEXT_EE20__good_rval_ref_typeE, symObjAddr: 0xC26C, symBinAddr: 0x10000FBE0, symSize: 0x3C }
  - { offset: 0x3F561, size: 0x8, addend: 0x0, symName: __ZNKSt3__110unique_ptrINS_11__hash_nodeINS_17__hash_value_typeINS_12basic_stringIcNS_11char_traitsIcEENS_9allocatorIcEEEENS_6vectorIS8_NS6_IS8_EEEEEEPvEENS_22__hash_node_destructorINS6_ISE_EEEEEdeB8ne180100Ev, symObjAddr: 0xC2E8, symBinAddr: 0x10000FC5C, symSize: 0x28 }
  - { offset: 0x3F587, size: 0x8, addend: 0x0, symName: __ZNSt3__116allocator_traitsINS_9allocatorINS_11__hash_nodeINS_17__hash_value_typeINS_12basic_stringIcNS_11char_traitsIcEENS1_IcEEEENS_6vectorIS8_NS1_IS8_EEEEEEPvEEEEE9constructB8ne180100INS_4pairIKS8_SB_EEJRKSK_EvEEvRSF_PT_DpOT0_, symObjAddr: 0xC310, symBinAddr: 0x10000FC84, symSize: 0x34 }
  - { offset: 0x3F5E1, size: 0x8, addend: 0x0, symName: __ZNKSt3__110unique_ptrINS_11__hash_nodeINS_17__hash_value_typeINS_12basic_stringIcNS_11char_traitsIcEENS_9allocatorIcEEEENS_6vectorIS8_NS6_IS8_EEEEEEPvEENS_22__hash_node_destructorINS6_ISE_EEEEEptB8ne180100Ev, symObjAddr: 0xC344, symBinAddr: 0x10000FCB8, symSize: 0x28 }
  - { offset: 0x3F607, size: 0x8, addend: 0x0, symName: __ZNSt3__110unique_ptrINS_11__hash_nodeINS_17__hash_value_typeINS_12basic_stringIcNS_11char_traitsIcEENS_9allocatorIcEEEENS_6vectorIS8_NS6_IS8_EEEEEEPvEENS_22__hash_node_destructorINS6_ISE_EEEEE11get_deleterB8ne180100Ev, symObjAddr: 0xC36C, symBinAddr: 0x10000FCE0, symSize: 0x24 }
  - { offset: 0x3F62D, size: 0x8, addend: 0x0, symName: __ZNSt3__19allocatorINS_11__hash_nodeINS_17__hash_value_typeINS_12basic_stringIcNS_11char_traitsIcEENS0_IcEEEENS_6vectorIS7_NS0_IS7_EEEEEEPvEEE8allocateB8ne180100Em, symObjAddr: 0xC390, symBinAddr: 0x10000FD04, symSize: 0x58 }
  - { offset: 0x3F66B, size: 0x8, addend: 0x0, symName: __ZNSt3__116allocator_traitsINS_9allocatorINS_11__hash_nodeINS_17__hash_value_typeINS_12basic_stringIcNS_11char_traitsIcEENS1_IcEEEENS_6vectorIS8_NS1_IS8_EEEEEEPvEEEEE8max_sizeB8ne180100ISF_vEEmRKSF_, symObjAddr: 0xC3E8, symBinAddr: 0x10000FD5C, symSize: 0x24 }
  - { offset: 0x3F69A, size: 0x8, addend: 0x0, symName: __ZNKSt3__19allocatorINS_11__hash_nodeINS_17__hash_value_typeINS_12basic_stringIcNS_11char_traitsIcEENS0_IcEEEENS_6vectorIS7_NS0_IS7_EEEEEEPvEEE8max_sizeB8ne180100Ev, symObjAddr: 0xC40C, symBinAddr: 0x10000FD80, symSize: 0x14 }
  - { offset: 0x3F6C0, size: 0x8, addend: 0x0, symName: __ZNSt3__122__hash_node_destructorINS_9allocatorINS_11__hash_nodeINS_17__hash_value_typeINS_12basic_stringIcNS_11char_traitsIcEENS1_IcEEEENS_6vectorIS8_NS1_IS8_EEEEEEPvEEEEEC2B8ne180100ERSF_b, symObjAddr: 0xC420, symBinAddr: 0x10000FD94, symSize: 0x38 }
  - { offset: 0x3F70A, size: 0x8, addend: 0x0, symName: __ZNSt3__110unique_ptrINS_11__hash_nodeINS_17__hash_value_typeINS_12basic_stringIcNS_11char_traitsIcEENS_9allocatorIcEEEENS_6vectorIS8_NS6_IS8_EEEEEEPvEENS_22__hash_node_destructorINS6_ISE_EEEEEC2B8ne180100ILb1EvEEPSE_NS_16__dependent_typeINS_27__unique_ptr_deleter_sfinaeISH_EEXT_EE20__good_rval_ref_typeE, symObjAddr: 0xC458, symBinAddr: 0x10000FDCC, symSize: 0x48 }
  - { offset: 0x3F75B, size: 0x8, addend: 0x0, symName: __ZNSt3__117__compressed_pairIPNS_11__hash_nodeINS_17__hash_value_typeINS_12basic_stringIcNS_11char_traitsIcEENS_9allocatorIcEEEENS_6vectorIS8_NS6_IS8_EEEEEEPvEENS_22__hash_node_destructorINS6_ISE_EEEEEC1B8ne180100IRSF_SI_EEOT_OT0_, symObjAddr: 0xC4A0, symBinAddr: 0x10000FE14, symSize: 0x3C }
  - { offset: 0x3F7B3, size: 0x8, addend: 0x0, symName: __ZNSt3__117__compressed_pairIPNS_11__hash_nodeINS_17__hash_value_typeINS_12basic_stringIcNS_11char_traitsIcEENS_9allocatorIcEEEENS_6vectorIS8_NS6_IS8_EEEEEEPvEENS_22__hash_node_destructorINS6_ISE_EEEEEC2B8ne180100IRSF_SI_EEOT_OT0_, symObjAddr: 0xC4DC, symBinAddr: 0x10000FE50, symSize: 0x48 }
  - { offset: 0x3F80B, size: 0x8, addend: 0x0, symName: __ZNSt3__122__compressed_pair_elemIPNS_11__hash_nodeINS_17__hash_value_typeINS_12basic_stringIcNS_11char_traitsIcEENS_9allocatorIcEEEENS_6vectorIS8_NS6_IS8_EEEEEEPvEELi0ELb0EEC2B8ne180100IRSF_vEEOT_, symObjAddr: 0xC524, symBinAddr: 0x10000FE98, symSize: 0x24 }
  - { offset: 0x3F84D, size: 0x8, addend: 0x0, symName: __ZNSt3__122__compressed_pair_elemINS_22__hash_node_destructorINS_9allocatorINS_11__hash_nodeINS_17__hash_value_typeINS_12basic_stringIcNS_11char_traitsIcEENS2_IcEEEENS_6vectorIS9_NS2_IS9_EEEEEEPvEEEEEELi1ELb0EEC2B8ne180100ISH_vEEOT_, symObjAddr: 0xC548, symBinAddr: 0x10000FEBC, symSize: 0x24 }
  - { offset: 0x3F88F, size: 0x8, addend: 0x0, symName: __ZNSt3__111__hash_nodeINS_17__hash_value_typeINS_12basic_stringIcNS_11char_traitsIcEENS_9allocatorIcEEEENS_6vectorIS7_NS5_IS7_EEEEEEPvEC1B8ne180100EPNS_16__hash_node_baseIPSD_EEm, symObjAddr: 0xC56C, symBinAddr: 0x10000FEE0, symSize: 0x3C }
  - { offset: 0x3F8D5, size: 0x8, addend: 0x0, symName: __ZNSt3__111__hash_nodeINS_17__hash_value_typeINS_12basic_stringIcNS_11char_traitsIcEENS_9allocatorIcEEEENS_6vectorIS7_NS5_IS7_EEEEEEPvEC2B8ne180100EPNS_16__hash_node_baseIPSD_EEm, symObjAddr: 0xC5A8, symBinAddr: 0x10000FF1C, symSize: 0x40 }
  - { offset: 0x3F91B, size: 0x8, addend: 0x0, symName: __ZNSt3__116__hash_node_baseIPNS_11__hash_nodeINS_17__hash_value_typeINS_12basic_stringIcNS_11char_traitsIcEENS_9allocatorIcEEEENS_6vectorIS8_NS6_IS8_EEEEEEPvEEEC2B8ne180100EPSG_, symObjAddr: 0xC5E8, symBinAddr: 0x10000FF5C, symSize: 0x20 }
  - { offset: 0x3F953, size: 0x8, addend: 0x0, symName: __ZNKSt3__117__compressed_pairIPNS_11__hash_nodeINS_17__hash_value_typeINS_12basic_stringIcNS_11char_traitsIcEENS_9allocatorIcEEEENS_6vectorIS8_NS6_IS8_EEEEEEPvEENS_22__hash_node_destructorINS6_ISE_EEEEE5firstB8ne180100Ev, symObjAddr: 0xC608, symBinAddr: 0x10000FF7C, symSize: 0x24 }
  - { offset: 0x3F979, size: 0x8, addend: 0x0, symName: __ZNKSt3__122__compressed_pair_elemIPNS_11__hash_nodeINS_17__hash_value_typeINS_12basic_stringIcNS_11char_traitsIcEENS_9allocatorIcEEEENS_6vectorIS8_NS6_IS8_EEEEEEPvEELi0ELb0EE5__getB8ne180100Ev, symObjAddr: 0xC62C, symBinAddr: 0x10000FFA0, symSize: 0x14 }
  - { offset: 0x3F99F, size: 0x8, addend: 0x0, symName: __ZNSt3__19allocatorINS_11__hash_nodeINS_17__hash_value_typeINS_12basic_stringIcNS_11char_traitsIcEENS0_IcEEEENS_6vectorIS7_NS0_IS7_EEEEEEPvEEE9constructB8ne180100INS_4pairIKS7_SA_EEJRKSI_EEEvPT_DpOT0_, symObjAddr: 0xC640, symBinAddr: 0x10000FFB4, symSize: 0x30 }
  - { offset: 0x3F9F5, size: 0x8, addend: 0x0, symName: __ZNSt3__14pairIKNS_12basic_stringIcNS_11char_traitsIcEENS_9allocatorIcEEEENS_6vectorIS6_NS4_IS6_EEEEEC1B8ne180100ERKSB_, symObjAddr: 0xC670, symBinAddr: 0x10000FFE4, symSize: 0x34 }
  - { offset: 0x3FA2A, size: 0x8, addend: 0x0, symName: __ZNSt3__14pairIKNS_12basic_stringIcNS_11char_traitsIcEENS_9allocatorIcEEEENS_6vectorIS6_NS4_IS6_EEEEEC2B8ne180100ERKSB_, symObjAddr: 0xC6A4, symBinAddr: 0x100010018, symSize: 0x70 }
  - { offset: 0x3FA5F, size: 0x8, addend: 0x0, symName: __ZNSt3__16vectorINS_12basic_stringIcNS_11char_traitsIcEENS_9allocatorIcEEEENS4_IS6_EEEC1ERKS8_, symObjAddr: 0xC714, symBinAddr: 0x100010088, symSize: 0x34 }
  - { offset: 0x3FA9B, size: 0x8, addend: 0x0, symName: __ZNSt3__16vectorINS_12basic_stringIcNS_11char_traitsIcEENS_9allocatorIcEEEENS4_IS6_EEEC2ERKS8_, symObjAddr: 0xC748, symBinAddr: 0x1000100BC, symSize: 0x94 }
  - { offset: 0x3FAD7, size: 0x8, addend: 0x0, symName: __ZNSt3__116allocator_traitsINS_9allocatorINS_12basic_stringIcNS_11char_traitsIcEENS1_IcEEEEEEE37select_on_container_copy_constructionB8ne180100IS7_vvEES7_RKS7_, symObjAddr: 0xC7DC, symBinAddr: 0x100010150, symSize: 0x10 }
  - { offset: 0x3FB11, size: 0x8, addend: 0x0, symName: __ZNSt3__117__compressed_pairIPNS_12basic_stringIcNS_11char_traitsIcEENS_9allocatorIcEEEENS4_IS6_EEEC1B8ne180100IDnS8_EEOT_OT0_, symObjAddr: 0xC7EC, symBinAddr: 0x100010160, symSize: 0x3C }
  - { offset: 0x3FB69, size: 0x8, addend: 0x0, symName: __ZNSt3__16vectorINS_12basic_stringIcNS_11char_traitsIcEENS_9allocatorIcEEEENS4_IS6_EEE16__init_with_sizeB8ne180100IPS6_SA_EEvT_T0_m, symObjAddr: 0xC828, symBinAddr: 0x10001019C, symSize: 0xB8 }
  - { offset: 0x3FBE1, size: 0x8, addend: 0x0, symName: __ZNSt3__117__compressed_pairIPNS_12basic_stringIcNS_11char_traitsIcEENS_9allocatorIcEEEENS4_IS6_EEEC2B8ne180100IDnS8_EEOT_OT0_, symObjAddr: 0xC8E0, symBinAddr: 0x100010254, symSize: 0x44 }
  - { offset: 0x3FC39, size: 0x8, addend: 0x0, symName: __ZNSt3__122__compressed_pair_elemIPNS_12basic_stringIcNS_11char_traitsIcEENS_9allocatorIcEEEELi0ELb0EEC2B8ne180100IDnvEEOT_, symObjAddr: 0xC924, symBinAddr: 0x100010298, symSize: 0x1C }
  - { offset: 0x3FC7B, size: 0x8, addend: 0x0, symName: __ZNSt3__122__compressed_pair_elemINS_9allocatorINS_12basic_stringIcNS_11char_traitsIcEENS1_IcEEEEEELi1ELb1EEC2B8ne180100IS7_vEEOT_, symObjAddr: 0xC940, symBinAddr: 0x1000102B4, symSize: 0x18 }
  - { offset: 0x3FCBD, size: 0x8, addend: 0x0, symName: __ZNSt3__16vectorINS_12basic_stringIcNS_11char_traitsIcEENS_9allocatorIcEEEENS4_IS6_EEE16__destroy_vectorC1B8ne180100ERS8_, symObjAddr: 0xC998, symBinAddr: 0x10001030C, symSize: 0x34 }
  - { offset: 0x3FCF7, size: 0x8, addend: 0x0, symName: __ZNSt3__128__exception_guard_exceptionsINS_6vectorINS_12basic_stringIcNS_11char_traitsIcEENS_9allocatorIcEEEENS5_IS7_EEE16__destroy_vectorEE10__completeB8ne180100Ev, symObjAddr: 0xC9CC, symBinAddr: 0x100010340, symSize: 0x1C }
  - { offset: 0x3FD1D, size: 0x8, addend: 0x0, symName: __ZNSt3__128__exception_guard_exceptionsINS_6vectorINS_12basic_stringIcNS_11char_traitsIcEENS_9allocatorIcEEEENS5_IS7_EEE16__destroy_vectorEED1B8ne180100Ev, symObjAddr: 0xC9E8, symBinAddr: 0x10001035C, symSize: 0x2C }
  - { offset: 0x3FD47, size: 0x8, addend: 0x0, symName: __ZNSt3__128__exception_guard_exceptionsINS_6vectorINS_12basic_stringIcNS_11char_traitsIcEENS_9allocatorIcEEEENS5_IS7_EEE16__destroy_vectorEEC1B8ne180100ESA_, symObjAddr: 0xCA14, symBinAddr: 0x100010388, symSize: 0x34 }
  - { offset: 0x3FD7F, size: 0x8, addend: 0x0, symName: __ZNSt3__128__exception_guard_exceptionsINS_6vectorINS_12basic_stringIcNS_11char_traitsIcEENS_9allocatorIcEEEENS5_IS7_EEE16__destroy_vectorEEC2B8ne180100ESA_, symObjAddr: 0xCA48, symBinAddr: 0x1000103BC, symSize: 0x24 }
  - { offset: 0x3FDB7, size: 0x8, addend: 0x0, symName: __ZNSt3__16vectorINS_12basic_stringIcNS_11char_traitsIcEENS_9allocatorIcEEEENS4_IS6_EEE16__destroy_vectorC2B8ne180100ERS8_, symObjAddr: 0xCA6C, symBinAddr: 0x1000103E0, symSize: 0x20 }
  - { offset: 0x3FDF1, size: 0x8, addend: 0x0, symName: __ZNSt3__128__exception_guard_exceptionsINS_6vectorINS_12basic_stringIcNS_11char_traitsIcEENS_9allocatorIcEEEENS5_IS7_EEE16__destroy_vectorEED2B8ne180100Ev, symObjAddr: 0xCA8C, symBinAddr: 0x100010400, symSize: 0x50 }
  - { offset: 0x3FE1B, size: 0x8, addend: 0x0, symName: __ZNSt3__16vectorINS_12basic_stringIcNS_11char_traitsIcEENS_9allocatorIcEEEENS4_IS6_EEE16__destroy_vectorclB8ne180100Ev, symObjAddr: 0xCADC, symBinAddr: 0x100010450, symSize: 0x90 }
  - { offset: 0x3FE41, size: 0x8, addend: 0x0, symName: __ZNSt3__117__compressed_pairIPNS_11__hash_nodeINS_17__hash_value_typeINS_12basic_stringIcNS_11char_traitsIcEENS_9allocatorIcEEEENS_6vectorIS8_NS6_IS8_EEEEEEPvEENS_22__hash_node_destructorINS6_ISE_EEEEE6secondB8ne180100Ev, symObjAddr: 0xCB6C, symBinAddr: 0x1000104E0, symSize: 0x28 }
  - { offset: 0x3FE67, size: 0x8, addend: 0x0, symName: __ZNSt3__122__compressed_pair_elemINS_22__hash_node_destructorINS_9allocatorINS_11__hash_nodeINS_17__hash_value_typeINS_12basic_stringIcNS_11char_traitsIcEENS2_IcEEEENS_6vectorIS9_NS2_IS9_EEEEEEPvEEEEEELi1ELb0EE5__getB8ne180100Ev, symObjAddr: 0xCB94, symBinAddr: 0x100010508, symSize: 0x14 }
  - { offset: 0x3FE8D, size: 0x8, addend: 0x0, symName: __ZNSt3__117__compressed_pairIPNS_11__hash_nodeINS_17__hash_value_typeINS_12basic_stringIcNS_11char_traitsIcEENS_9allocatorIcEEEENS_6vectorIS8_NS6_IS8_EEEEEEPvEENS_22__hash_node_destructorINS6_ISE_EEEEE5firstB8ne180100Ev, symObjAddr: 0xCBA8, symBinAddr: 0x10001051C, symSize: 0x24 }
  - { offset: 0x3FEB3, size: 0x8, addend: 0x0, symName: __ZNSt3__122__compressed_pair_elemIPNS_11__hash_nodeINS_17__hash_value_typeINS_12basic_stringIcNS_11char_traitsIcEENS_9allocatorIcEEEENS_6vectorIS8_NS6_IS8_EEEEEEPvEELi0ELb0EE5__getB8ne180100Ev, symObjAddr: 0xCBCC, symBinAddr: 0x100010540, symSize: 0x14 }
  - { offset: 0x3FED9, size: 0x8, addend: 0x0, symName: __ZNSt3__110unique_ptrINS_11__hash_nodeINS_17__hash_value_typeINS_12basic_stringIcNS_11char_traitsIcEENS_9allocatorIcEEEENS_6vectorIS8_NS6_IS8_EEEEEEPvEENS_22__hash_node_destructorINS6_ISE_EEEEED2B8ne180100Ev, symObjAddr: 0xCBE0, symBinAddr: 0x100010554, symSize: 0x30 }
  - { offset: 0x3FF03, size: 0x8, addend: 0x0, symName: __ZNSt3__110unique_ptrINS_11__hash_nodeINS_17__hash_value_typeINS_12basic_stringIcNS_11char_traitsIcEENS_9allocatorIcEEEENS_6vectorIS8_NS6_IS8_EEEEEEPvEENS_22__hash_node_destructorINS6_ISE_EEEEE5resetB8ne180100EPSE_, symObjAddr: 0xCC10, symBinAddr: 0x100010584, symSize: 0x78 }
  - { offset: 0x3FF49, size: 0x8, addend: 0x0, symName: __ZNSt3__122__hash_node_destructorINS_9allocatorINS_11__hash_nodeINS_17__hash_value_typeINS_12basic_stringIcNS_11char_traitsIcEENS1_IcEEEENS_6vectorIS8_NS1_IS8_EEEEEEPvEEEEEclB8ne180100EPSE_, symObjAddr: 0xCC88, symBinAddr: 0x1000105FC, symSize: 0x98 }
  - { offset: 0x3FF7F, size: 0x8, addend: 0x0, symName: __ZNKSt3__117__compressed_pairINS_16__hash_node_baseIPNS_11__hash_nodeINS_17__hash_value_typeINS_12basic_stringIcNS_11char_traitsIcEENS_9allocatorIcEEEENS_6vectorIS9_NS7_IS9_EEEEEEPvEEEENS7_ISF_EEE5firstB8ne180100Ev, symObjAddr: 0xCD20, symBinAddr: 0x100010694, symSize: 0x24 }
  - { offset: 0x3FFA5, size: 0x8, addend: 0x0, symName: __ZNSt3__121__hash_const_iteratorIPNS_11__hash_nodeINS_17__hash_value_typeINS_12basic_stringIcNS_11char_traitsIcEENS_9allocatorIcEEEENS_6vectorIS8_NS6_IS8_EEEEEEPvEEEC1B8ne180100EPNS_16__hash_node_baseISF_EE, symObjAddr: 0xCD44, symBinAddr: 0x1000106B8, symSize: 0x34 }
  - { offset: 0x3FFDF, size: 0x8, addend: 0x0, symName: __ZNKSt3__122__compressed_pair_elemINS_16__hash_node_baseIPNS_11__hash_nodeINS_17__hash_value_typeINS_12basic_stringIcNS_11char_traitsIcEENS_9allocatorIcEEEENS_6vectorIS9_NS7_IS9_EEEEEEPvEEEELi0ELb0EE5__getB8ne180100Ev, symObjAddr: 0xCD78, symBinAddr: 0x1000106EC, symSize: 0x14 }
  - { offset: 0x40005, size: 0x8, addend: 0x0, symName: __ZNSt3__121__hash_const_iteratorIPNS_11__hash_nodeINS_17__hash_value_typeINS_12basic_stringIcNS_11char_traitsIcEENS_9allocatorIcEEEENS_6vectorIS8_NS6_IS8_EEEEEEPvEEEC2B8ne180100EPNS_16__hash_node_baseISF_EE, symObjAddr: 0xCD8C, symBinAddr: 0x100010700, symSize: 0x20 }
  - { offset: 0x4003F, size: 0x8, addend: 0x0, symName: __ZNSt3__112__hash_tableINS_17__hash_value_typeINS_12basic_stringIcNS_11char_traitsIcEENS_9allocatorIcEEEEbEENS_22__unordered_map_hasherIS7_S8_NS_4hashIS7_EENS_8equal_toIS7_EELb1EEENS_21__unordered_map_equalIS7_S8_SD_SB_Lb1EEENS5_IS8_EEEaSERKSI_, symObjAddr: 0xCDAC, symBinAddr: 0x100010720, symSize: 0xB8 }
  - { offset: 0x40077, size: 0x8, addend: 0x0, symName: __ZNSt3__112__hash_tableINS_17__hash_value_typeINS_12basic_stringIcNS_11char_traitsIcEENS_9allocatorIcEEEEbEENS_22__unordered_map_hasherIS7_S8_NS_4hashIS7_EENS_8equal_toIS7_EELb1EEENS_21__unordered_map_equalIS7_S8_SD_SB_Lb1EEENS5_IS8_EEE19__copy_assign_allocB8ne180100ERKSI_, symObjAddr: 0xCE64, symBinAddr: 0x1000107D8, symSize: 0x2C }
  - { offset: 0x400AD, size: 0x8, addend: 0x0, symName: __ZNKSt3__112__hash_tableINS_17__hash_value_typeINS_12basic_stringIcNS_11char_traitsIcEENS_9allocatorIcEEEEbEENS_22__unordered_map_hasherIS7_S8_NS_4hashIS7_EENS_8equal_toIS7_EELb1EEENS_21__unordered_map_equalIS7_S8_SD_SB_Lb1EEENS5_IS8_EEE13hash_functionB8ne180100Ev, symObjAddr: 0xCE90, symBinAddr: 0x100010804, symSize: 0x28 }
  - { offset: 0x400D3, size: 0x8, addend: 0x0, symName: __ZNSt3__112__hash_tableINS_17__hash_value_typeINS_12basic_stringIcNS_11char_traitsIcEENS_9allocatorIcEEEEbEENS_22__unordered_map_hasherIS7_S8_NS_4hashIS7_EENS_8equal_toIS7_EELb1EEENS_21__unordered_map_equalIS7_S8_SD_SB_Lb1EEENS5_IS8_EEE13hash_functionB8ne180100Ev, symObjAddr: 0xCEB8, symBinAddr: 0x10001082C, symSize: 0x28 }
  - { offset: 0x400F9, size: 0x8, addend: 0x0, symName: __ZNKSt3__112__hash_tableINS_17__hash_value_typeINS_12basic_stringIcNS_11char_traitsIcEENS_9allocatorIcEEEEbEENS_22__unordered_map_hasherIS7_S8_NS_4hashIS7_EENS_8equal_toIS7_EELb1EEENS_21__unordered_map_equalIS7_S8_SD_SB_Lb1EEENS5_IS8_EEE6key_eqB8ne180100Ev, symObjAddr: 0xCEE0, symBinAddr: 0x100010854, symSize: 0x28 }
  - { offset: 0x4011F, size: 0x8, addend: 0x0, symName: __ZNSt3__112__hash_tableINS_17__hash_value_typeINS_12basic_stringIcNS_11char_traitsIcEENS_9allocatorIcEEEEbEENS_22__unordered_map_hasherIS7_S8_NS_4hashIS7_EENS_8equal_toIS7_EELb1EEENS_21__unordered_map_equalIS7_S8_SD_SB_Lb1EEENS5_IS8_EEE6key_eqB8ne180100Ev, symObjAddr: 0xCF08, symBinAddr: 0x10001087C, symSize: 0x28 }
  - { offset: 0x40145, size: 0x8, addend: 0x0, symName: __ZNKSt3__112__hash_tableINS_17__hash_value_typeINS_12basic_stringIcNS_11char_traitsIcEENS_9allocatorIcEEEEbEENS_22__unordered_map_hasherIS7_S8_NS_4hashIS7_EENS_8equal_toIS7_EELb1EEENS_21__unordered_map_equalIS7_S8_SD_SB_Lb1EEENS5_IS8_EEE15max_load_factorB8ne180100Ev, symObjAddr: 0xCF30, symBinAddr: 0x1000108A4, symSize: 0x2C }
  - { offset: 0x4016B, size: 0x8, addend: 0x0, symName: __ZNSt3__112__hash_tableINS_17__hash_value_typeINS_12basic_stringIcNS_11char_traitsIcEENS_9allocatorIcEEEEbEENS_22__unordered_map_hasherIS7_S8_NS_4hashIS7_EENS_8equal_toIS7_EELb1EEENS_21__unordered_map_equalIS7_S8_SD_SB_Lb1EEENS5_IS8_EEE15max_load_factorB8ne180100Ev, symObjAddr: 0xCF5C, symBinAddr: 0x1000108D0, symSize: 0x28 }
  - { offset: 0x40191, size: 0x8, addend: 0x0, symName: __ZNSt3__112__hash_tableINS_17__hash_value_typeINS_12basic_stringIcNS_11char_traitsIcEENS_9allocatorIcEEEEbEENS_22__unordered_map_hasherIS7_S8_NS_4hashIS7_EENS_8equal_toIS7_EELb1EEENS_21__unordered_map_equalIS7_S8_SD_SB_Lb1EEENS5_IS8_EEE14__assign_multiINS_21__hash_const_iteratorIPNS_11__hash_nodeIS8_PvEEEEEEvT_SQ_, symObjAddr: 0xCF84, symBinAddr: 0x1000108F8, symSize: 0x1C4 }
  - { offset: 0x40218, size: 0x8, addend: 0x0, symName: __ZNKSt3__112__hash_tableINS_17__hash_value_typeINS_12basic_stringIcNS_11char_traitsIcEENS_9allocatorIcEEEEbEENS_22__unordered_map_hasherIS7_S8_NS_4hashIS7_EENS_8equal_toIS7_EELb1EEENS_21__unordered_map_equalIS7_S8_SD_SB_Lb1EEENS5_IS8_EEE5beginEv, symObjAddr: 0xD148, symBinAddr: 0x100010ABC, symSize: 0x38 }
  - { offset: 0x40240, size: 0x8, addend: 0x0, symName: __ZNKSt3__112__hash_tableINS_17__hash_value_typeINS_12basic_stringIcNS_11char_traitsIcEENS_9allocatorIcEEEEbEENS_22__unordered_map_hasherIS7_S8_NS_4hashIS7_EENS_8equal_toIS7_EELb1EEENS_21__unordered_map_equalIS7_S8_SD_SB_Lb1EEENS5_IS8_EEE3endEv, symObjAddr: 0xD180, symBinAddr: 0x100010AF4, symSize: 0x2C }
  - { offset: 0x40268, size: 0x8, addend: 0x0, symName: __ZNSt3__112__hash_tableINS_17__hash_value_typeINS_12basic_stringIcNS_11char_traitsIcEENS_9allocatorIcEEEEbEENS_22__unordered_map_hasherIS7_S8_NS_4hashIS7_EENS_8equal_toIS7_EELb1EEENS_21__unordered_map_equalIS7_S8_SD_SB_Lb1EEENS5_IS8_EEE19__copy_assign_allocB8ne180100ERKSI_NS_17integral_constantIbLb0EEE, symObjAddr: 0xD1AC, symBinAddr: 0x100010B20, symSize: 0x14 }
  - { offset: 0x402A6, size: 0x8, addend: 0x0, symName: __ZNKSt3__117__compressed_pairImNS_22__unordered_map_hasherINS_12basic_stringIcNS_11char_traitsIcEENS_9allocatorIcEEEENS_17__hash_value_typeIS7_bEENS_4hashIS7_EENS_8equal_toIS7_EELb1EEEE6secondB8ne180100Ev, symObjAddr: 0xD1C0, symBinAddr: 0x100010B34, symSize: 0x24 }
  - { offset: 0x402CC, size: 0x8, addend: 0x0, symName: __ZNKSt3__122__compressed_pair_elemINS_22__unordered_map_hasherINS_12basic_stringIcNS_11char_traitsIcEENS_9allocatorIcEEEENS_17__hash_value_typeIS7_bEENS_4hashIS7_EENS_8equal_toIS7_EELb1EEELi1ELb1EE5__getB8ne180100Ev, symObjAddr: 0xD1E4, symBinAddr: 0x100010B58, symSize: 0x14 }
  - { offset: 0x402F2, size: 0x8, addend: 0x0, symName: __ZNSt3__117__compressed_pairImNS_22__unordered_map_hasherINS_12basic_stringIcNS_11char_traitsIcEENS_9allocatorIcEEEENS_17__hash_value_typeIS7_bEENS_4hashIS7_EENS_8equal_toIS7_EELb1EEEE6secondB8ne180100Ev, symObjAddr: 0xD1F8, symBinAddr: 0x100010B6C, symSize: 0x24 }
  - { offset: 0x40318, size: 0x8, addend: 0x0, symName: __ZNSt3__122__compressed_pair_elemINS_22__unordered_map_hasherINS_12basic_stringIcNS_11char_traitsIcEENS_9allocatorIcEEEENS_17__hash_value_typeIS7_bEENS_4hashIS7_EENS_8equal_toIS7_EELb1EEELi1ELb1EE5__getB8ne180100Ev, symObjAddr: 0xD21C, symBinAddr: 0x100010B90, symSize: 0x14 }
  - { offset: 0x4033E, size: 0x8, addend: 0x0, symName: __ZNKSt3__117__compressed_pairIfNS_21__unordered_map_equalINS_12basic_stringIcNS_11char_traitsIcEENS_9allocatorIcEEEENS_17__hash_value_typeIS7_bEENS_8equal_toIS7_EENS_4hashIS7_EELb1EEEE6secondB8ne180100Ev, symObjAddr: 0xD230, symBinAddr: 0x100010BA4, symSize: 0x24 }
  - { offset: 0x40364, size: 0x8, addend: 0x0, symName: __ZNKSt3__122__compressed_pair_elemINS_21__unordered_map_equalINS_12basic_stringIcNS_11char_traitsIcEENS_9allocatorIcEEEENS_17__hash_value_typeIS7_bEENS_8equal_toIS7_EENS_4hashIS7_EELb1EEELi1ELb1EE5__getB8ne180100Ev, symObjAddr: 0xD254, symBinAddr: 0x100010BC8, symSize: 0x14 }
  - { offset: 0x4038A, size: 0x8, addend: 0x0, symName: __ZNSt3__117__compressed_pairIfNS_21__unordered_map_equalINS_12basic_stringIcNS_11char_traitsIcEENS_9allocatorIcEEEENS_17__hash_value_typeIS7_bEENS_8equal_toIS7_EENS_4hashIS7_EELb1EEEE6secondB8ne180100Ev, symObjAddr: 0xD268, symBinAddr: 0x100010BDC, symSize: 0x24 }
  - { offset: 0x403B0, size: 0x8, addend: 0x0, symName: __ZNSt3__122__compressed_pair_elemINS_21__unordered_map_equalINS_12basic_stringIcNS_11char_traitsIcEENS_9allocatorIcEEEENS_17__hash_value_typeIS7_bEENS_8equal_toIS7_EENS_4hashIS7_EELb1EEELi1ELb1EE5__getB8ne180100Ev, symObjAddr: 0xD28C, symBinAddr: 0x100010C00, symSize: 0x14 }
  - { offset: 0x403D6, size: 0x8, addend: 0x0, symName: __ZNKSt3__117__compressed_pairIfNS_21__unordered_map_equalINS_12basic_stringIcNS_11char_traitsIcEENS_9allocatorIcEEEENS_17__hash_value_typeIS7_bEENS_8equal_toIS7_EENS_4hashIS7_EELb1EEEE5firstB8ne180100Ev, symObjAddr: 0xD2A0, symBinAddr: 0x100010C14, symSize: 0x24 }
  - { offset: 0x403FC, size: 0x8, addend: 0x0, symName: __ZNSt3__117__compressed_pairIfNS_21__unordered_map_equalINS_12basic_stringIcNS_11char_traitsIcEENS_9allocatorIcEEEENS_17__hash_value_typeIS7_bEENS_8equal_toIS7_EENS_4hashIS7_EELb1EEEE5firstB8ne180100Ev, symObjAddr: 0xD2C4, symBinAddr: 0x100010C38, symSize: 0x24 }
  - { offset: 0x40422, size: 0x8, addend: 0x0, symName: __ZNKSt3__112__hash_tableINS_17__hash_value_typeINS_12basic_stringIcNS_11char_traitsIcEENS_9allocatorIcEEEEbEENS_22__unordered_map_hasherIS7_S8_NS_4hashIS7_EENS_8equal_toIS7_EELb1EEENS_21__unordered_map_equalIS7_S8_SD_SB_Lb1EEENS5_IS8_EEE12bucket_countB8ne180100Ev, symObjAddr: 0xD2E8, symBinAddr: 0x100010C5C, symSize: 0x28 }
  - { offset: 0x40448, size: 0x8, addend: 0x0, symName: __ZNSt3__112__hash_tableINS_17__hash_value_typeINS_12basic_stringIcNS_11char_traitsIcEENS_9allocatorIcEEEEbEENS_22__unordered_map_hasherIS7_S8_NS_4hashIS7_EENS_8equal_toIS7_EELb1EEENS_21__unordered_map_equalIS7_S8_SD_SB_Lb1EEENS5_IS8_EEE8__detachEv, symObjAddr: 0xD310, symBinAddr: 0x100010C84, symSize: 0xB4 }
  - { offset: 0x404A7, size: 0x8, addend: 0x0, symName: __ZNKSt3__121__hash_const_iteratorIPNS_11__hash_nodeINS_17__hash_value_typeINS_12basic_stringIcNS_11char_traitsIcEENS_9allocatorIcEEEEbEEPvEEEdeB8ne180100Ev, symObjAddr: 0xD3F8, symBinAddr: 0x100010D6C, symSize: 0x2C }
  - { offset: 0x404CD, size: 0x8, addend: 0x0, symName: __ZNSt3__116__hash_node_baseIPNS_11__hash_nodeINS_17__hash_value_typeINS_12basic_stringIcNS_11char_traitsIcEENS_9allocatorIcEEEEbEEPvEEE8__upcastB8ne180100Ev, symObjAddr: 0xD424, symBinAddr: 0x100010D98, symSize: 0x24 }
  - { offset: 0x404F3, size: 0x8, addend: 0x0, symName: __ZNSt3__111__hash_nodeINS_17__hash_value_typeINS_12basic_stringIcNS_11char_traitsIcEENS_9allocatorIcEEEEbEEPvE11__get_valueB8ne180100Ev, symObjAddr: 0xD448, symBinAddr: 0x100010DBC, symSize: 0x18 }
  - { offset: 0x40519, size: 0x8, addend: 0x0, symName: __ZNSt3__117__hash_value_typeINS_12basic_stringIcNS_11char_traitsIcEENS_9allocatorIcEEEEbEaSB8ne180100ERKS7_, symObjAddr: 0xD460, symBinAddr: 0x100010DD4, symSize: 0x60 }
  - { offset: 0x4054F, size: 0x8, addend: 0x0, symName: __ZNSt3__112__hash_tableINS_17__hash_value_typeINS_12basic_stringIcNS_11char_traitsIcEENS_9allocatorIcEEEEbEENS_22__unordered_map_hasherIS7_S8_NS_4hashIS7_EENS_8equal_toIS7_EELb1EEENS_21__unordered_map_equalIS7_S8_SD_SB_Lb1EEENS5_IS8_EEE19__node_insert_multiEPNS_11__hash_nodeIS8_PvEE, symObjAddr: 0xD4C0, symBinAddr: 0x100010E34, symSize: 0xA0 }
  - { offset: 0x40597, size: 0x8, addend: 0x0, symName: __ZNSt3__121__hash_const_iteratorIPNS_11__hash_nodeINS_17__hash_value_typeINS_12basic_stringIcNS_11char_traitsIcEENS_9allocatorIcEEEEbEEPvEEEppB8ne180100Ev, symObjAddr: 0xD560, symBinAddr: 0x100010ED4, symSize: 0x20 }
  - { offset: 0x405BD, size: 0x8, addend: 0x0, symName: __ZNSt3__112__hash_tableINS_17__hash_value_typeINS_12basic_stringIcNS_11char_traitsIcEENS_9allocatorIcEEEEbEENS_22__unordered_map_hasherIS7_S8_NS_4hashIS7_EENS_8equal_toIS7_EELb1EEENS_21__unordered_map_equalIS7_S8_SD_SB_Lb1EEENS5_IS8_EEE17__deallocate_nodeEPNS_16__hash_node_baseIPNS_11__hash_nodeIS8_PvEEEE, symObjAddr: 0xD580, symBinAddr: 0x100010EF4, symSize: 0xB4 }
  - { offset: 0x4062C, size: 0x8, addend: 0x0, symName: __ZNSt3__112__hash_tableINS_17__hash_value_typeINS_12basic_stringIcNS_11char_traitsIcEENS_9allocatorIcEEEEbEENS_22__unordered_map_hasherIS7_S8_NS_4hashIS7_EENS_8equal_toIS7_EELb1EEENS_21__unordered_map_equalIS7_S8_SD_SB_Lb1EEENS5_IS8_EEE14__insert_multiB8ne180100IRKNS_4pairIKS7_bEEEENS_15__hash_iteratorIPNS_11__hash_nodeIS8_PvEEEEOT_, symObjAddr: 0xD634, symBinAddr: 0x100010FA8, symSize: 0x34 }
  - { offset: 0x4066B, size: 0x8, addend: 0x0, symName: __ZNSt3__122__hash_key_value_typesINS_17__hash_value_typeINS_12basic_stringIcNS_11char_traitsIcEENS_9allocatorIcEEEEbEEE11__get_valueB8ne180100IKS8_Li0EEERKNS_4pairIKS7_bEERT_, symObjAddr: 0xD668, symBinAddr: 0x100010FDC, symSize: 0x24 }
  - { offset: 0x4069D, size: 0x8, addend: 0x0, symName: __ZNKSt3__110unique_ptrIA_PNS_16__hash_node_baseIPNS_11__hash_nodeINS_17__hash_value_typeINS_12basic_stringIcNS_11char_traitsIcEENS_9allocatorIcEEEEbEEPvEEEENS_25__bucket_list_deallocatorINS7_ISF_EEEEE11get_deleterB8ne180100Ev, symObjAddr: 0xD68C, symBinAddr: 0x100011000, symSize: 0x24 }
  - { offset: 0x406C3, size: 0x8, addend: 0x0, symName: __ZNKSt3__125__bucket_list_deallocatorINS_9allocatorIPNS_16__hash_node_baseIPNS_11__hash_nodeINS_17__hash_value_typeINS_12basic_stringIcNS_11char_traitsIcEENS1_IcEEEEbEEPvEEEEEEE4sizeB8ne180100Ev, symObjAddr: 0xD6B0, symBinAddr: 0x100011024, symSize: 0x28 }
  - { offset: 0x406E9, size: 0x8, addend: 0x0, symName: __ZNKSt3__117__compressed_pairIPPNS_16__hash_node_baseIPNS_11__hash_nodeINS_17__hash_value_typeINS_12basic_stringIcNS_11char_traitsIcEENS_9allocatorIcEEEEbEEPvEEEENS_25__bucket_list_deallocatorINS7_ISF_EEEEE6secondB8ne180100Ev, symObjAddr: 0xD6D8, symBinAddr: 0x10001104C, symSize: 0x28 }
  - { offset: 0x4070F, size: 0x8, addend: 0x0, symName: __ZNKSt3__122__compressed_pair_elemINS_25__bucket_list_deallocatorINS_9allocatorIPNS_16__hash_node_baseIPNS_11__hash_nodeINS_17__hash_value_typeINS_12basic_stringIcNS_11char_traitsIcEENS2_IcEEEEbEEPvEEEEEEEELi1ELb0EE5__getB8ne180100Ev, symObjAddr: 0xD700, symBinAddr: 0x100011074, symSize: 0x14 }
  - { offset: 0x40735, size: 0x8, addend: 0x0, symName: __ZNKSt3__117__compressed_pairImNS_9allocatorIPNS_16__hash_node_baseIPNS_11__hash_nodeINS_17__hash_value_typeINS_12basic_stringIcNS_11char_traitsIcEENS1_IcEEEEbEEPvEEEEEEE5firstB8ne180100Ev, symObjAddr: 0xD714, symBinAddr: 0x100011088, symSize: 0x24 }
  - { offset: 0x4075B, size: 0x8, addend: 0x0, symName: __ZNKSt3__110unique_ptrIA_PNS_16__hash_node_baseIPNS_11__hash_nodeINS_17__hash_value_typeINS_12basic_stringIcNS_11char_traitsIcEENS_9allocatorIcEEEEbEEPvEEEENS_25__bucket_list_deallocatorINS7_ISF_EEEEEixB8ne180100Em, symObjAddr: 0xD738, symBinAddr: 0x1000110AC, symSize: 0x34 }
  - { offset: 0x40791, size: 0x8, addend: 0x0, symName: __ZNSt3__112__hash_tableINS_17__hash_value_typeINS_12basic_stringIcNS_11char_traitsIcEENS_9allocatorIcEEEEbEENS_22__unordered_map_hasherIS7_S8_NS_4hashIS7_EENS_8equal_toIS7_EELb1EEENS_21__unordered_map_equalIS7_S8_SD_SB_Lb1EEENS5_IS8_EEE4sizeB8ne180100Ev, symObjAddr: 0xD76C, symBinAddr: 0x1000110E0, symSize: 0x28 }
  - { offset: 0x407B7, size: 0x8, addend: 0x0, symName: __ZNSt3__117__compressed_pairINS_16__hash_node_baseIPNS_11__hash_nodeINS_17__hash_value_typeINS_12basic_stringIcNS_11char_traitsIcEENS_9allocatorIcEEEEbEEPvEEEENS7_ISC_EEE5firstB8ne180100Ev, symObjAddr: 0xD794, symBinAddr: 0x100011108, symSize: 0x24 }
  - { offset: 0x407DD, size: 0x8, addend: 0x0, symName: __ZNKSt3__117__compressed_pairIPPNS_16__hash_node_baseIPNS_11__hash_nodeINS_17__hash_value_typeINS_12basic_stringIcNS_11char_traitsIcEENS_9allocatorIcEEEEbEEPvEEEENS_25__bucket_list_deallocatorINS7_ISF_EEEEE5firstB8ne180100Ev, symObjAddr: 0xD7B8, symBinAddr: 0x10001112C, symSize: 0x24 }
  - { offset: 0x40803, size: 0x8, addend: 0x0, symName: __ZNKSt3__122__compressed_pair_elemIPPNS_16__hash_node_baseIPNS_11__hash_nodeINS_17__hash_value_typeINS_12basic_stringIcNS_11char_traitsIcEENS_9allocatorIcEEEEbEEPvEEEELi0ELb0EE5__getB8ne180100Ev, symObjAddr: 0xD7DC, symBinAddr: 0x100011150, symSize: 0x14 }
  - { offset: 0x40829, size: 0x8, addend: 0x0, symName: __ZNSt3__117__compressed_pairImNS_22__unordered_map_hasherINS_12basic_stringIcNS_11char_traitsIcEENS_9allocatorIcEEEENS_17__hash_value_typeIS7_bEENS_4hashIS7_EENS_8equal_toIS7_EELb1EEEE5firstB8ne180100Ev, symObjAddr: 0xD7F0, symBinAddr: 0x100011164, symSize: 0x24 }
  - { offset: 0x4084F, size: 0x8, addend: 0x0, symName: __ZNSt3__122__compressed_pair_elemINS_16__hash_node_baseIPNS_11__hash_nodeINS_17__hash_value_typeINS_12basic_stringIcNS_11char_traitsIcEENS_9allocatorIcEEEEbEEPvEEEELi0ELb0EE5__getB8ne180100Ev, symObjAddr: 0xD814, symBinAddr: 0x100011188, symSize: 0x14 }
  - { offset: 0x40875, size: 0x8, addend: 0x0, symName: __ZNSt3__114pointer_traitsIPNS_16__hash_node_baseIPNS_11__hash_nodeINS_17__hash_value_typeINS_12basic_stringIcNS_11char_traitsIcEENS_9allocatorIcEEEEbEEPvEEEEE10pointer_toB8ne180100ERSE_, symObjAddr: 0xD858, symBinAddr: 0x1000111CC, symSize: 0x14 }
  - { offset: 0x40898, size: 0x8, addend: 0x0, symName: __ZNKSt3__117__hash_value_typeINS_12basic_stringIcNS_11char_traitsIcEENS_9allocatorIcEEEEbE11__get_valueB8ne180100Ev, symObjAddr: 0xD86C, symBinAddr: 0x1000111E0, symSize: 0x24 }
  - { offset: 0x408BE, size: 0x8, addend: 0x0, symName: __ZNSt3__117__hash_value_typeINS_12basic_stringIcNS_11char_traitsIcEENS_9allocatorIcEEEEbE5__refB8ne180100Ev, symObjAddr: 0xD890, symBinAddr: 0x100011204, symSize: 0x44 }
  - { offset: 0x408F4, size: 0x8, addend: 0x0, symName: __ZNSt3__14pairIRNS_12basic_stringIcNS_11char_traitsIcEENS_9allocatorIcEEEERbEaSB8ne180100IKS6_bLPv0EEERS9_RKNS0_IT_T0_EE, symObjAddr: 0xD8D4, symBinAddr: 0x100011248, symSize: 0x4C }
  - { offset: 0x40942, size: 0x8, addend: 0x0, symName: __ZNSt3__117__hash_value_typeINS_12basic_stringIcNS_11char_traitsIcEENS_9allocatorIcEEEEbE11__get_valueB8ne180100Ev, symObjAddr: 0xD958, symBinAddr: 0x1000112CC, symSize: 0x24 }
  - { offset: 0x40968, size: 0x8, addend: 0x0, symName: __ZNSt3__14pairIRNS_12basic_stringIcNS_11char_traitsIcEENS_9allocatorIcEEEERbEC1B8ne180100ILb1ELi0EEES7_S8_, symObjAddr: 0xD97C, symBinAddr: 0x1000112F0, symSize: 0x3C }
  - { offset: 0x409BE, size: 0x8, addend: 0x0, symName: __ZNSt3__14pairIRNS_12basic_stringIcNS_11char_traitsIcEENS_9allocatorIcEEEERbEC2B8ne180100ILb1ELi0EEES7_S8_, symObjAddr: 0xD9F0, symBinAddr: 0x100011364, symSize: 0x2C }
  - { offset: 0x40A14, size: 0x8, addend: 0x0, symName: __ZNKSt3__122__unordered_map_hasherINS_12basic_stringIcNS_11char_traitsIcEENS_9allocatorIcEEEENS_17__hash_value_typeIS6_bEENS_4hashIS6_EENS_8equal_toIS6_EELb1EEclB8ne180100ERKS8_, symObjAddr: 0xDA1C, symBinAddr: 0x100011390, symSize: 0x3C }
  - { offset: 0x40A4A, size: 0x8, addend: 0x0, symName: __ZNSt3__112__hash_tableINS_17__hash_value_typeINS_12basic_stringIcNS_11char_traitsIcEENS_9allocatorIcEEEEbEENS_22__unordered_map_hasherIS7_S8_NS_4hashIS7_EENS_8equal_toIS7_EELb1EEENS_21__unordered_map_equalIS7_S8_SD_SB_Lb1EEENS5_IS8_EEE27__node_insert_multi_prepareEmRS8_, symObjAddr: 0xDA58, symBinAddr: 0x1000113CC, symSize: 0x29C }
  - { offset: 0x40AE2, size: 0x8, addend: 0x0, symName: __ZNKSt3__116__hash_node_baseIPNS_11__hash_nodeINS_17__hash_value_typeINS_12basic_stringIcNS_11char_traitsIcEENS_9allocatorIcEEEEbEEPvEEE6__hashB8ne180100Ev, symObjAddr: 0xDCF4, symBinAddr: 0x100011668, symSize: 0x18 }
  - { offset: 0x40B08, size: 0x8, addend: 0x0, symName: __ZNSt3__112__hash_tableINS_17__hash_value_typeINS_12basic_stringIcNS_11char_traitsIcEENS_9allocatorIcEEEEbEENS_22__unordered_map_hasherIS7_S8_NS_4hashIS7_EENS_8equal_toIS7_EELb1EEENS_21__unordered_map_equalIS7_S8_SD_SB_Lb1EEENS5_IS8_EEE27__node_insert_multi_performEPNS_11__hash_nodeIS8_PvEEPNS_16__hash_node_baseISM_EE, symObjAddr: 0xDD0C, symBinAddr: 0x100011680, symSize: 0x1B8 }
  - { offset: 0x40B8F, size: 0x8, addend: 0x0, symName: __ZNSt3__116__hash_node_baseIPNS_11__hash_nodeINS_17__hash_value_typeINS_12basic_stringIcNS_11char_traitsIcEENS_9allocatorIcEEEEbEEPvEEE5__ptrB8ne180100Ev, symObjAddr: 0xDEC4, symBinAddr: 0x100011838, symSize: 0x24 }
  - { offset: 0x40BB5, size: 0x8, addend: 0x0, symName: __ZNSt3__115__hash_iteratorIPNS_11__hash_nodeINS_17__hash_value_typeINS_12basic_stringIcNS_11char_traitsIcEENS_9allocatorIcEEEEbEEPvEEEC1B8ne180100EPNS_16__hash_node_baseISC_EE, symObjAddr: 0xDEE8, symBinAddr: 0x10001185C, symSize: 0x34 }
  - { offset: 0x40BEF, size: 0x8, addend: 0x0, symName: __ZNSt3__112__hash_tableINS_17__hash_value_typeINS_12basic_stringIcNS_11char_traitsIcEENS_9allocatorIcEEEEbEENS_22__unordered_map_hasherIS7_S8_NS_4hashIS7_EENS_8equal_toIS7_EELb1EEENS_21__unordered_map_equalIS7_S8_SD_SB_Lb1EEENS5_IS8_EEE14__rehash_multiB8ne180100Em, symObjAddr: 0xDF1C, symBinAddr: 0x100011890, symSize: 0x2C }
  - { offset: 0x40C25, size: 0x8, addend: 0x0, symName: __ZNKSt3__121__unordered_map_equalINS_12basic_stringIcNS_11char_traitsIcEENS_9allocatorIcEEEENS_17__hash_value_typeIS6_bEENS_8equal_toIS6_EENS_4hashIS6_EELb1EEclB8ne180100ERKS8_SF_, symObjAddr: 0xDF48, symBinAddr: 0x1000118BC, symSize: 0x54 }
  - { offset: 0x40C6B, size: 0x8, addend: 0x0, symName: __ZNSt3__112__hash_tableINS_17__hash_value_typeINS_12basic_stringIcNS_11char_traitsIcEENS_9allocatorIcEEEEbEENS_22__unordered_map_hasherIS7_S8_NS_4hashIS7_EENS_8equal_toIS7_EELb1EEENS_21__unordered_map_equalIS7_S8_SD_SB_Lb1EEENS5_IS8_EEE8__rehashILb0EEEvm, symObjAddr: 0xDF9C, symBinAddr: 0x100011910, symSize: 0x1A8 }
  - { offset: 0x40CBD, size: 0x8, addend: 0x0, symName: __ZNSt3__112__hash_tableINS_17__hash_value_typeINS_12basic_stringIcNS_11char_traitsIcEENS_9allocatorIcEEEEbEENS_22__unordered_map_hasherIS7_S8_NS_4hashIS7_EENS_8equal_toIS7_EELb1EEENS_21__unordered_map_equalIS7_S8_SD_SB_Lb1EEENS5_IS8_EEE11__do_rehashILb0EEEvm, symObjAddr: 0xE144, symBinAddr: 0x100011AB8, symSize: 0x310 }
  - { offset: 0x40DAC, size: 0x8, addend: 0x0, symName: __ZNSt3__110unique_ptrIA_PNS_16__hash_node_baseIPNS_11__hash_nodeINS_17__hash_value_typeINS_12basic_stringIcNS_11char_traitsIcEENS_9allocatorIcEEEEbEEPvEEEENS_25__bucket_list_deallocatorINS7_ISF_EEEEE11get_deleterB8ne180100Ev, symObjAddr: 0xE454, symBinAddr: 0x100011DC8, symSize: 0x24 }
  - { offset: 0x40DD2, size: 0x8, addend: 0x0, symName: __ZNSt3__125__bucket_list_deallocatorINS_9allocatorIPNS_16__hash_node_baseIPNS_11__hash_nodeINS_17__hash_value_typeINS_12basic_stringIcNS_11char_traitsIcEENS1_IcEEEEbEEPvEEEEEEE7__allocB8ne180100Ev, symObjAddr: 0xE478, symBinAddr: 0x100011DEC, symSize: 0x24 }
  - { offset: 0x40DF8, size: 0x8, addend: 0x0, symName: __ZNSt3__110unique_ptrIA_PNS_16__hash_node_baseIPNS_11__hash_nodeINS_17__hash_value_typeINS_12basic_stringIcNS_11char_traitsIcEENS_9allocatorIcEEEEbEEPvEEEENS_25__bucket_list_deallocatorINS7_ISF_EEEEE5resetB8ne180100IPSF_Li0EEEvT_, symObjAddr: 0xE49C, symBinAddr: 0x100011E10, symSize: 0x78 }
  - { offset: 0x40E4D, size: 0x8, addend: 0x0, symName: __ZNSt3__116allocator_traitsINS_9allocatorIPNS_16__hash_node_baseIPNS_11__hash_nodeINS_17__hash_value_typeINS_12basic_stringIcNS_11char_traitsIcEENS1_IcEEEEbEEPvEEEEEEE8allocateB8ne180100ERSG_m, symObjAddr: 0xE514, symBinAddr: 0x100011E88, symSize: 0x2C }
  - { offset: 0x40E82, size: 0x8, addend: 0x0, symName: __ZNSt3__125__bucket_list_deallocatorINS_9allocatorIPNS_16__hash_node_baseIPNS_11__hash_nodeINS_17__hash_value_typeINS_12basic_stringIcNS_11char_traitsIcEENS1_IcEEEEbEEPvEEEEEEE4sizeB8ne180100Ev, symObjAddr: 0xE540, symBinAddr: 0x100011EB4, symSize: 0x24 }
  - { offset: 0x40EA8, size: 0x8, addend: 0x0, symName: __ZNSt3__117__compressed_pairIPPNS_16__hash_node_baseIPNS_11__hash_nodeINS_17__hash_value_typeINS_12basic_stringIcNS_11char_traitsIcEENS_9allocatorIcEEEEbEEPvEEEENS_25__bucket_list_deallocatorINS7_ISF_EEEEE6secondB8ne180100Ev, symObjAddr: 0xE564, symBinAddr: 0x100011ED8, symSize: 0x28 }
  - { offset: 0x40ECE, size: 0x8, addend: 0x0, symName: __ZNSt3__122__compressed_pair_elemINS_25__bucket_list_deallocatorINS_9allocatorIPNS_16__hash_node_baseIPNS_11__hash_nodeINS_17__hash_value_typeINS_12basic_stringIcNS_11char_traitsIcEENS2_IcEEEEbEEPvEEEEEEEELi1ELb0EE5__getB8ne180100Ev, symObjAddr: 0xE58C, symBinAddr: 0x100011F00, symSize: 0x14 }
  - { offset: 0x40EF4, size: 0x8, addend: 0x0, symName: __ZNSt3__117__compressed_pairImNS_9allocatorIPNS_16__hash_node_baseIPNS_11__hash_nodeINS_17__hash_value_typeINS_12basic_stringIcNS_11char_traitsIcEENS1_IcEEEEbEEPvEEEEEEE6secondB8ne180100Ev, symObjAddr: 0xE5A0, symBinAddr: 0x100011F14, symSize: 0x24 }
  - { offset: 0x40F1A, size: 0x8, addend: 0x0, symName: __ZNSt3__122__compressed_pair_elemINS_9allocatorIPNS_16__hash_node_baseIPNS_11__hash_nodeINS_17__hash_value_typeINS_12basic_stringIcNS_11char_traitsIcEENS1_IcEEEEbEEPvEEEEEELi1ELb1EE5__getB8ne180100Ev, symObjAddr: 0xE5C4, symBinAddr: 0x100011F38, symSize: 0x14 }
  - { offset: 0x40F40, size: 0x8, addend: 0x0, symName: __ZNSt3__117__compressed_pairIPPNS_16__hash_node_baseIPNS_11__hash_nodeINS_17__hash_value_typeINS_12basic_stringIcNS_11char_traitsIcEENS_9allocatorIcEEEEbEEPvEEEENS_25__bucket_list_deallocatorINS7_ISF_EEEEE5firstB8ne180100Ev, symObjAddr: 0xE5D8, symBinAddr: 0x100011F4C, symSize: 0x24 }
  - { offset: 0x40F66, size: 0x8, addend: 0x0, symName: __ZNSt3__125__bucket_list_deallocatorINS_9allocatorIPNS_16__hash_node_baseIPNS_11__hash_nodeINS_17__hash_value_typeINS_12basic_stringIcNS_11char_traitsIcEENS1_IcEEEEbEEPvEEEEEEEclB8ne180100EPSF_, symObjAddr: 0xE5FC, symBinAddr: 0x100011F70, symSize: 0x58 }
  - { offset: 0x40F9C, size: 0x8, addend: 0x0, symName: __ZNSt3__122__compressed_pair_elemIPPNS_16__hash_node_baseIPNS_11__hash_nodeINS_17__hash_value_typeINS_12basic_stringIcNS_11char_traitsIcEENS_9allocatorIcEEEEbEEPvEEEELi0ELb0EE5__getB8ne180100Ev, symObjAddr: 0xE654, symBinAddr: 0x100011FC8, symSize: 0x14 }
  - { offset: 0x40FC2, size: 0x8, addend: 0x0, symName: __ZNSt3__116allocator_traitsINS_9allocatorIPNS_16__hash_node_baseIPNS_11__hash_nodeINS_17__hash_value_typeINS_12basic_stringIcNS_11char_traitsIcEENS1_IcEEEEbEEPvEEEEEEE10deallocateB8ne180100ERSG_PSF_m, symObjAddr: 0xE668, symBinAddr: 0x100011FDC, symSize: 0x34 }
  - { offset: 0x41007, size: 0x8, addend: 0x0, symName: __ZNSt3__19allocatorIPNS_16__hash_node_baseIPNS_11__hash_nodeINS_17__hash_value_typeINS_12basic_stringIcNS_11char_traitsIcEENS0_IcEEEEbEEPvEEEEE10deallocateB8ne180100EPSE_m, symObjAddr: 0xE69C, symBinAddr: 0x100012010, symSize: 0x40 }
  - { offset: 0x41049, size: 0x8, addend: 0x0, symName: __ZNSt3__19allocatorIPNS_16__hash_node_baseIPNS_11__hash_nodeINS_17__hash_value_typeINS_12basic_stringIcNS_11char_traitsIcEENS0_IcEEEEbEEPvEEEEE8allocateB8ne180100Em, symObjAddr: 0xE6DC, symBinAddr: 0x100012050, symSize: 0x58 }
  - { offset: 0x41087, size: 0x8, addend: 0x0, symName: __ZNSt3__116allocator_traitsINS_9allocatorIPNS_16__hash_node_baseIPNS_11__hash_nodeINS_17__hash_value_typeINS_12basic_stringIcNS_11char_traitsIcEENS1_IcEEEEbEEPvEEEEEEE8max_sizeB8ne180100ISG_vEEmRKSG_, symObjAddr: 0xE734, symBinAddr: 0x1000120A8, symSize: 0x24 }
  - { offset: 0x410B6, size: 0x8, addend: 0x0, symName: __ZNKSt3__19allocatorIPNS_16__hash_node_baseIPNS_11__hash_nodeINS_17__hash_value_typeINS_12basic_stringIcNS_11char_traitsIcEENS0_IcEEEEbEEPvEEEEE8max_sizeB8ne180100Ev, symObjAddr: 0xE758, symBinAddr: 0x1000120CC, symSize: 0x14 }
  - { offset: 0x410DC, size: 0x8, addend: 0x0, symName: __ZNSt3__117__compressed_pairImNS_9allocatorIPNS_16__hash_node_baseIPNS_11__hash_nodeINS_17__hash_value_typeINS_12basic_stringIcNS_11char_traitsIcEENS1_IcEEEEbEEPvEEEEEEE5firstB8ne180100Ev, symObjAddr: 0xE76C, symBinAddr: 0x1000120E0, symSize: 0x24 }
  - { offset: 0x41102, size: 0x8, addend: 0x0, symName: __ZNSt3__115__hash_iteratorIPNS_11__hash_nodeINS_17__hash_value_typeINS_12basic_stringIcNS_11char_traitsIcEENS_9allocatorIcEEEEbEEPvEEEC2B8ne180100EPNS_16__hash_node_baseISC_EE, symObjAddr: 0xE790, symBinAddr: 0x100012104, symSize: 0x20 }
  - { offset: 0x4113C, size: 0x8, addend: 0x0, symName: __ZNSt3__112__hash_tableINS_17__hash_value_typeINS_12basic_stringIcNS_11char_traitsIcEENS_9allocatorIcEEEEbEENS_22__unordered_map_hasherIS7_S8_NS_4hashIS7_EENS_8equal_toIS7_EELb1EEENS_21__unordered_map_equalIS7_S8_SD_SB_Lb1EEENS5_IS8_EEE12__node_allocB8ne180100Ev, symObjAddr: 0xE7B0, symBinAddr: 0x100012124, symSize: 0x28 }
  - { offset: 0x41162, size: 0x8, addend: 0x0, symName: __ZNSt3__116allocator_traitsINS_9allocatorINS_11__hash_nodeINS_17__hash_value_typeINS_12basic_stringIcNS_11char_traitsIcEENS1_IcEEEEbEEPvEEEEE7destroyB8ne180100INS_4pairIKS8_bEEvvEEvRSC_PT_, symObjAddr: 0xE7D8, symBinAddr: 0x10001214C, symSize: 0x28 }
  - { offset: 0x4119E, size: 0x8, addend: 0x0, symName: __ZNSt3__122__hash_key_value_typesINS_17__hash_value_typeINS_12basic_stringIcNS_11char_traitsIcEENS_9allocatorIcEEEEbEEE9__get_ptrB8ne180100ERS8_, symObjAddr: 0xE800, symBinAddr: 0x100012174, symSize: 0x24 }
  - { offset: 0x411C1, size: 0x8, addend: 0x0, symName: __ZNSt3__116allocator_traitsINS_9allocatorINS_11__hash_nodeINS_17__hash_value_typeINS_12basic_stringIcNS_11char_traitsIcEENS1_IcEEEEbEEPvEEEEE10deallocateB8ne180100ERSC_PSB_m, symObjAddr: 0xE848, symBinAddr: 0x1000121BC, symSize: 0x34 }
  - { offset: 0x41206, size: 0x8, addend: 0x0, symName: __ZNSt3__117__compressed_pairINS_16__hash_node_baseIPNS_11__hash_nodeINS_17__hash_value_typeINS_12basic_stringIcNS_11char_traitsIcEENS_9allocatorIcEEEEbEEPvEEEENS7_ISC_EEE6secondB8ne180100Ev, symObjAddr: 0xE87C, symBinAddr: 0x1000121F0, symSize: 0x24 }
  - { offset: 0x4122C, size: 0x8, addend: 0x0, symName: __ZNSt3__122__compressed_pair_elemINS_9allocatorINS_11__hash_nodeINS_17__hash_value_typeINS_12basic_stringIcNS_11char_traitsIcEENS1_IcEEEEbEEPvEEEELi1ELb1EE5__getB8ne180100Ev, symObjAddr: 0xE8A0, symBinAddr: 0x100012214, symSize: 0x14 }
  - { offset: 0x41252, size: 0x8, addend: 0x0, symName: __ZNSt3__14pairIKNS_12basic_stringIcNS_11char_traitsIcEENS_9allocatorIcEEEEbED1Ev, symObjAddr: 0xE8D8, symBinAddr: 0x10001224C, symSize: 0x2C }
  - { offset: 0x4127E, size: 0x8, addend: 0x0, symName: __ZNSt3__14pairIKNS_12basic_stringIcNS_11char_traitsIcEENS_9allocatorIcEEEEbED2Ev, symObjAddr: 0xE904, symBinAddr: 0x100012278, symSize: 0x2C }
  - { offset: 0x412AA, size: 0x8, addend: 0x0, symName: __ZNSt3__111__hash_nodeINS_17__hash_value_typeINS_12basic_stringIcNS_11char_traitsIcEENS_9allocatorIcEEEEbEEPvED1B8ne180100Ev, symObjAddr: 0xE930, symBinAddr: 0x1000122A4, symSize: 0x2C }
  - { offset: 0x412D4, size: 0x8, addend: 0x0, symName: __ZNSt3__111__hash_nodeINS_17__hash_value_typeINS_12basic_stringIcNS_11char_traitsIcEENS_9allocatorIcEEEEbEEPvED2B8ne180100Ev, symObjAddr: 0xE95C, symBinAddr: 0x1000122D0, symSize: 0x14 }
  - { offset: 0x412FE, size: 0x8, addend: 0x0, symName: __ZNSt3__19allocatorINS_11__hash_nodeINS_17__hash_value_typeINS_12basic_stringIcNS_11char_traitsIcEENS0_IcEEEEbEEPvEEE10deallocateB8ne180100EPSA_m, symObjAddr: 0xE970, symBinAddr: 0x1000122E4, symSize: 0x44 }
  - { offset: 0x41340, size: 0x8, addend: 0x0, symName: __ZNSt3__112__hash_tableINS_17__hash_value_typeINS_12basic_stringIcNS_11char_traitsIcEENS_9allocatorIcEEEEbEENS_22__unordered_map_hasherIS7_S8_NS_4hashIS7_EENS_8equal_toIS7_EELb1EEENS_21__unordered_map_equalIS7_S8_SD_SB_Lb1EEENS5_IS8_EEE15__emplace_multiIJRKNS_4pairIKS7_bEEEEENS_15__hash_iteratorIPNS_11__hash_nodeIS8_PvEEEEDpOT_, symObjAddr: 0xE9B4, symBinAddr: 0x100012328, symSize: 0x94 }
  - { offset: 0x413A3, size: 0x8, addend: 0x0, symName: __ZNSt3__112__hash_tableINS_17__hash_value_typeINS_12basic_stringIcNS_11char_traitsIcEENS_9allocatorIcEEEEbEENS_22__unordered_map_hasherIS7_S8_NS_4hashIS7_EENS_8equal_toIS7_EELb1EEENS_21__unordered_map_equalIS7_S8_SD_SB_Lb1EEENS5_IS8_EEE16__construct_nodeIJRKNS_4pairIKS7_bEEEEENS_10unique_ptrINS_11__hash_nodeIS8_PvEENS_22__hash_node_destructorINS5_ISS_EEEEEEDpOT_, symObjAddr: 0xEA48, symBinAddr: 0x1000123BC, symSize: 0x180 }
  - { offset: 0x41407, size: 0x8, addend: 0x0, symName: __ZNKSt3__110unique_ptrINS_11__hash_nodeINS_17__hash_value_typeINS_12basic_stringIcNS_11char_traitsIcEENS_9allocatorIcEEEEbEEPvEENS_22__hash_node_destructorINS6_ISB_EEEEE3getB8ne180100Ev, symObjAddr: 0xEBC8, symBinAddr: 0x10001253C, symSize: 0x28 }
  - { offset: 0x4142D, size: 0x8, addend: 0x0, symName: __ZNSt3__110unique_ptrINS_11__hash_nodeINS_17__hash_value_typeINS_12basic_stringIcNS_11char_traitsIcEENS_9allocatorIcEEEEbEEPvEENS_22__hash_node_destructorINS6_ISB_EEEEE7releaseB8ne180100Ev, symObjAddr: 0xEBF0, symBinAddr: 0x100012564, symSize: 0x44 }
  - { offset: 0x41463, size: 0x8, addend: 0x0, symName: __ZNSt3__110unique_ptrINS_11__hash_nodeINS_17__hash_value_typeINS_12basic_stringIcNS_11char_traitsIcEENS_9allocatorIcEEEEbEEPvEENS_22__hash_node_destructorINS6_ISB_EEEEED1B8ne180100Ev, symObjAddr: 0xEC34, symBinAddr: 0x1000125A8, symSize: 0x2C }
  - { offset: 0x4148D, size: 0x8, addend: 0x0, symName: __ZNSt3__116allocator_traitsINS_9allocatorINS_11__hash_nodeINS_17__hash_value_typeINS_12basic_stringIcNS_11char_traitsIcEENS1_IcEEEEbEEPvEEEEE8allocateB8ne180100ERSC_m, symObjAddr: 0xEC60, symBinAddr: 0x1000125D4, symSize: 0x2C }
  - { offset: 0x414C2, size: 0x8, addend: 0x0, symName: __ZNSt3__122__hash_node_destructorINS_9allocatorINS_11__hash_nodeINS_17__hash_value_typeINS_12basic_stringIcNS_11char_traitsIcEENS1_IcEEEEbEEPvEEEEEC1B8ne180100ERSC_b, symObjAddr: 0xEC8C, symBinAddr: 0x100012600, symSize: 0x48 }
  - { offset: 0x41511, size: 0x8, addend: 0x0, symName: __ZNSt3__110unique_ptrINS_11__hash_nodeINS_17__hash_value_typeINS_12basic_stringIcNS_11char_traitsIcEENS_9allocatorIcEEEEbEEPvEENS_22__hash_node_destructorINS6_ISB_EEEEEC1B8ne180100ILb1EvEEPSB_NS_16__dependent_typeINS_27__unique_ptr_deleter_sfinaeISE_EEXT_EE20__good_rval_ref_typeE, symObjAddr: 0xECD4, symBinAddr: 0x100012648, symSize: 0x3C }
  - { offset: 0x41562, size: 0x8, addend: 0x0, symName: __ZNKSt3__110unique_ptrINS_11__hash_nodeINS_17__hash_value_typeINS_12basic_stringIcNS_11char_traitsIcEENS_9allocatorIcEEEEbEEPvEENS_22__hash_node_destructorINS6_ISB_EEEEEdeB8ne180100Ev, symObjAddr: 0xED50, symBinAddr: 0x1000126C4, symSize: 0x28 }
  - { offset: 0x41588, size: 0x8, addend: 0x0, symName: __ZNSt3__116allocator_traitsINS_9allocatorINS_11__hash_nodeINS_17__hash_value_typeINS_12basic_stringIcNS_11char_traitsIcEENS1_IcEEEEbEEPvEEEEE9constructB8ne180100INS_4pairIKS8_bEEJRKSH_EvEEvRSC_PT_DpOT0_, symObjAddr: 0xED78, symBinAddr: 0x1000126EC, symSize: 0x34 }
  - { offset: 0x415E2, size: 0x8, addend: 0x0, symName: __ZNKSt3__110unique_ptrINS_11__hash_nodeINS_17__hash_value_typeINS_12basic_stringIcNS_11char_traitsIcEENS_9allocatorIcEEEEbEEPvEENS_22__hash_node_destructorINS6_ISB_EEEEEptB8ne180100Ev, symObjAddr: 0xEDAC, symBinAddr: 0x100012720, symSize: 0x28 }
  - { offset: 0x41608, size: 0x8, addend: 0x0, symName: __ZNSt3__110unique_ptrINS_11__hash_nodeINS_17__hash_value_typeINS_12basic_stringIcNS_11char_traitsIcEENS_9allocatorIcEEEEbEEPvEENS_22__hash_node_destructorINS6_ISB_EEEEE11get_deleterB8ne180100Ev, symObjAddr: 0xEDD4, symBinAddr: 0x100012748, symSize: 0x24 }
  - { offset: 0x4162E, size: 0x8, addend: 0x0, symName: __ZNSt3__19allocatorINS_11__hash_nodeINS_17__hash_value_typeINS_12basic_stringIcNS_11char_traitsIcEENS0_IcEEEEbEEPvEEE8allocateB8ne180100Em, symObjAddr: 0xEDF8, symBinAddr: 0x10001276C, symSize: 0x5C }
  - { offset: 0x4166C, size: 0x8, addend: 0x0, symName: __ZNSt3__116allocator_traitsINS_9allocatorINS_11__hash_nodeINS_17__hash_value_typeINS_12basic_stringIcNS_11char_traitsIcEENS1_IcEEEEbEEPvEEEEE8max_sizeB8ne180100ISC_vEEmRKSC_, symObjAddr: 0xEE54, symBinAddr: 0x1000127C8, symSize: 0x24 }
  - { offset: 0x4169B, size: 0x8, addend: 0x0, symName: __ZNKSt3__19allocatorINS_11__hash_nodeINS_17__hash_value_typeINS_12basic_stringIcNS_11char_traitsIcEENS0_IcEEEEbEEPvEEE8max_sizeB8ne180100Ev, symObjAddr: 0xEE78, symBinAddr: 0x1000127EC, symSize: 0x18 }
  - { offset: 0x416C1, size: 0x8, addend: 0x0, symName: __ZNSt3__122__hash_node_destructorINS_9allocatorINS_11__hash_nodeINS_17__hash_value_typeINS_12basic_stringIcNS_11char_traitsIcEENS1_IcEEEEbEEPvEEEEEC2B8ne180100ERSC_b, symObjAddr: 0xEE90, symBinAddr: 0x100012804, symSize: 0x38 }
  - { offset: 0x4170B, size: 0x8, addend: 0x0, symName: __ZNSt3__110unique_ptrINS_11__hash_nodeINS_17__hash_value_typeINS_12basic_stringIcNS_11char_traitsIcEENS_9allocatorIcEEEEbEEPvEENS_22__hash_node_destructorINS6_ISB_EEEEEC2B8ne180100ILb1EvEEPSB_NS_16__dependent_typeINS_27__unique_ptr_deleter_sfinaeISE_EEXT_EE20__good_rval_ref_typeE, symObjAddr: 0xEEC8, symBinAddr: 0x10001283C, symSize: 0x48 }
  - { offset: 0x4175C, size: 0x8, addend: 0x0, symName: __ZNSt3__117__compressed_pairIPNS_11__hash_nodeINS_17__hash_value_typeINS_12basic_stringIcNS_11char_traitsIcEENS_9allocatorIcEEEEbEEPvEENS_22__hash_node_destructorINS6_ISB_EEEEEC1B8ne180100IRSC_SF_EEOT_OT0_, symObjAddr: 0xEF10, symBinAddr: 0x100012884, symSize: 0x3C }
  - { offset: 0x417B4, size: 0x8, addend: 0x0, symName: __ZNSt3__117__compressed_pairIPNS_11__hash_nodeINS_17__hash_value_typeINS_12basic_stringIcNS_11char_traitsIcEENS_9allocatorIcEEEEbEEPvEENS_22__hash_node_destructorINS6_ISB_EEEEEC2B8ne180100IRSC_SF_EEOT_OT0_, symObjAddr: 0xEF4C, symBinAddr: 0x1000128C0, symSize: 0x48 }
  - { offset: 0x4180C, size: 0x8, addend: 0x0, symName: __ZNSt3__122__compressed_pair_elemIPNS_11__hash_nodeINS_17__hash_value_typeINS_12basic_stringIcNS_11char_traitsIcEENS_9allocatorIcEEEEbEEPvEELi0ELb0EEC2B8ne180100IRSC_vEEOT_, symObjAddr: 0xEF94, symBinAddr: 0x100012908, symSize: 0x24 }
  - { offset: 0x4184E, size: 0x8, addend: 0x0, symName: __ZNSt3__122__compressed_pair_elemINS_22__hash_node_destructorINS_9allocatorINS_11__hash_nodeINS_17__hash_value_typeINS_12basic_stringIcNS_11char_traitsIcEENS2_IcEEEEbEEPvEEEEEELi1ELb0EEC2B8ne180100ISE_vEEOT_, symObjAddr: 0xEFB8, symBinAddr: 0x10001292C, symSize: 0x24 }
  - { offset: 0x41890, size: 0x8, addend: 0x0, symName: __ZNSt3__111__hash_nodeINS_17__hash_value_typeINS_12basic_stringIcNS_11char_traitsIcEENS_9allocatorIcEEEEbEEPvEC1B8ne180100EPNS_16__hash_node_baseIPSA_EEm, symObjAddr: 0xEFDC, symBinAddr: 0x100012950, symSize: 0x3C }
  - { offset: 0x418D6, size: 0x8, addend: 0x0, symName: __ZNSt3__111__hash_nodeINS_17__hash_value_typeINS_12basic_stringIcNS_11char_traitsIcEENS_9allocatorIcEEEEbEEPvEC2B8ne180100EPNS_16__hash_node_baseIPSA_EEm, symObjAddr: 0xF018, symBinAddr: 0x10001298C, symSize: 0x40 }
  - { offset: 0x4191C, size: 0x8, addend: 0x0, symName: __ZNSt3__116__hash_node_baseIPNS_11__hash_nodeINS_17__hash_value_typeINS_12basic_stringIcNS_11char_traitsIcEENS_9allocatorIcEEEEbEEPvEEEC2B8ne180100EPSD_, symObjAddr: 0xF058, symBinAddr: 0x1000129CC, symSize: 0x20 }
  - { offset: 0x41954, size: 0x8, addend: 0x0, symName: __ZNKSt3__117__compressed_pairIPNS_11__hash_nodeINS_17__hash_value_typeINS_12basic_stringIcNS_11char_traitsIcEENS_9allocatorIcEEEEbEEPvEENS_22__hash_node_destructorINS6_ISB_EEEEE5firstB8ne180100Ev, symObjAddr: 0xF078, symBinAddr: 0x1000129EC, symSize: 0x24 }
  - { offset: 0x4197A, size: 0x8, addend: 0x0, symName: __ZNKSt3__122__compressed_pair_elemIPNS_11__hash_nodeINS_17__hash_value_typeINS_12basic_stringIcNS_11char_traitsIcEENS_9allocatorIcEEEEbEEPvEELi0ELb0EE5__getB8ne180100Ev, symObjAddr: 0xF09C, symBinAddr: 0x100012A10, symSize: 0x14 }
  - { offset: 0x419A0, size: 0x8, addend: 0x0, symName: __ZNSt3__19allocatorINS_11__hash_nodeINS_17__hash_value_typeINS_12basic_stringIcNS_11char_traitsIcEENS0_IcEEEEbEEPvEEE9constructB8ne180100INS_4pairIKS7_bEEJRKSF_EEEvPT_DpOT0_, symObjAddr: 0xF0B0, symBinAddr: 0x100012A24, symSize: 0x30 }
  - { offset: 0x419F6, size: 0x8, addend: 0x0, symName: __ZNSt3__14pairIKNS_12basic_stringIcNS_11char_traitsIcEENS_9allocatorIcEEEEbEC1B8ne180100ERKS8_, symObjAddr: 0xF0E0, symBinAddr: 0x100012A54, symSize: 0x34 }
  - { offset: 0x41A2B, size: 0x8, addend: 0x0, symName: __ZNSt3__14pairIKNS_12basic_stringIcNS_11char_traitsIcEENS_9allocatorIcEEEEbEC2B8ne180100ERKS8_, symObjAddr: 0xF114, symBinAddr: 0x100012A88, symSize: 0x44 }
  - { offset: 0x41A60, size: 0x8, addend: 0x0, symName: __ZNSt3__117__compressed_pairIPNS_11__hash_nodeINS_17__hash_value_typeINS_12basic_stringIcNS_11char_traitsIcEENS_9allocatorIcEEEEbEEPvEENS_22__hash_node_destructorINS6_ISB_EEEEE6secondB8ne180100Ev, symObjAddr: 0xF158, symBinAddr: 0x100012ACC, symSize: 0x28 }
  - { offset: 0x41A86, size: 0x8, addend: 0x0, symName: __ZNSt3__122__compressed_pair_elemINS_22__hash_node_destructorINS_9allocatorINS_11__hash_nodeINS_17__hash_value_typeINS_12basic_stringIcNS_11char_traitsIcEENS2_IcEEEEbEEPvEEEEEELi1ELb0EE5__getB8ne180100Ev, symObjAddr: 0xF180, symBinAddr: 0x100012AF4, symSize: 0x14 }
  - { offset: 0x41AAC, size: 0x8, addend: 0x0, symName: __ZNSt3__117__compressed_pairIPNS_11__hash_nodeINS_17__hash_value_typeINS_12basic_stringIcNS_11char_traitsIcEENS_9allocatorIcEEEEbEEPvEENS_22__hash_node_destructorINS6_ISB_EEEEE5firstB8ne180100Ev, symObjAddr: 0xF194, symBinAddr: 0x100012B08, symSize: 0x24 }
  - { offset: 0x41AD2, size: 0x8, addend: 0x0, symName: __ZNSt3__122__compressed_pair_elemIPNS_11__hash_nodeINS_17__hash_value_typeINS_12basic_stringIcNS_11char_traitsIcEENS_9allocatorIcEEEEbEEPvEELi0ELb0EE5__getB8ne180100Ev, symObjAddr: 0xF1B8, symBinAddr: 0x100012B2C, symSize: 0x14 }
  - { offset: 0x41AF8, size: 0x8, addend: 0x0, symName: __ZNSt3__110unique_ptrINS_11__hash_nodeINS_17__hash_value_typeINS_12basic_stringIcNS_11char_traitsIcEENS_9allocatorIcEEEEbEEPvEENS_22__hash_node_destructorINS6_ISB_EEEEED2B8ne180100Ev, symObjAddr: 0xF1CC, symBinAddr: 0x100012B40, symSize: 0x30 }
  - { offset: 0x41B22, size: 0x8, addend: 0x0, symName: __ZNSt3__110unique_ptrINS_11__hash_nodeINS_17__hash_value_typeINS_12basic_stringIcNS_11char_traitsIcEENS_9allocatorIcEEEEbEEPvEENS_22__hash_node_destructorINS6_ISB_EEEEE5resetB8ne180100EPSB_, symObjAddr: 0xF1FC, symBinAddr: 0x100012B70, symSize: 0x78 }
  - { offset: 0x41B68, size: 0x8, addend: 0x0, symName: __ZNSt3__122__hash_node_destructorINS_9allocatorINS_11__hash_nodeINS_17__hash_value_typeINS_12basic_stringIcNS_11char_traitsIcEENS1_IcEEEEbEEPvEEEEEclB8ne180100EPSB_, symObjAddr: 0xF274, symBinAddr: 0x100012BE8, symSize: 0x98 }
  - { offset: 0x41B9E, size: 0x8, addend: 0x0, symName: __ZNKSt3__117__compressed_pairINS_16__hash_node_baseIPNS_11__hash_nodeINS_17__hash_value_typeINS_12basic_stringIcNS_11char_traitsIcEENS_9allocatorIcEEEEbEEPvEEEENS7_ISC_EEE5firstB8ne180100Ev, symObjAddr: 0xF30C, symBinAddr: 0x100012C80, symSize: 0x24 }
  - { offset: 0x41BC4, size: 0x8, addend: 0x0, symName: __ZNSt3__121__hash_const_iteratorIPNS_11__hash_nodeINS_17__hash_value_typeINS_12basic_stringIcNS_11char_traitsIcEENS_9allocatorIcEEEEbEEPvEEEC1B8ne180100EPNS_16__hash_node_baseISC_EE, symObjAddr: 0xF330, symBinAddr: 0x100012CA4, symSize: 0x34 }
  - { offset: 0x41BFE, size: 0x8, addend: 0x0, symName: __ZNKSt3__122__compressed_pair_elemINS_16__hash_node_baseIPNS_11__hash_nodeINS_17__hash_value_typeINS_12basic_stringIcNS_11char_traitsIcEENS_9allocatorIcEEEEbEEPvEEEELi0ELb0EE5__getB8ne180100Ev, symObjAddr: 0xF364, symBinAddr: 0x100012CD8, symSize: 0x14 }
  - { offset: 0x41C24, size: 0x8, addend: 0x0, symName: __ZNSt3__121__hash_const_iteratorIPNS_11__hash_nodeINS_17__hash_value_typeINS_12basic_stringIcNS_11char_traitsIcEENS_9allocatorIcEEEEbEEPvEEEC2B8ne180100EPNS_16__hash_node_baseISC_EE, symObjAddr: 0xF378, symBinAddr: 0x100012CEC, symSize: 0x20 }
  - { offset: 0x41C5E, size: 0x8, addend: 0x0, symName: __ZNSt3__16__treeINS_12__value_typeINS_12basic_stringIcNS_11char_traitsIcEENS_9allocatorIcEEEE4roomEENS_19__map_value_compareIS7_S9_NS_4lessIS7_EELb1EEENS5_IS9_EEEaSERKSF_, symObjAddr: 0xF398, symBinAddr: 0x100012D0C, symSize: 0x8C }
  - { offset: 0x41C96, size: 0x8, addend: 0x0, symName: __ZNKSt3__16__treeINS_12__value_typeINS_12basic_stringIcNS_11char_traitsIcEENS_9allocatorIcEEEE4roomEENS_19__map_value_compareIS7_S9_NS_4lessIS7_EELb1EEENS5_IS9_EEE10value_compB8ne180100Ev, symObjAddr: 0xF424, symBinAddr: 0x100012D98, symSize: 0x28 }
  - { offset: 0x41CBC, size: 0x8, addend: 0x0, symName: __ZNSt3__16__treeINS_12__value_typeINS_12basic_stringIcNS_11char_traitsIcEENS_9allocatorIcEEEE4roomEENS_19__map_value_compareIS7_S9_NS_4lessIS7_EELb1EEENS5_IS9_EEE10value_compB8ne180100Ev, symObjAddr: 0xF44C, symBinAddr: 0x100012DC0, symSize: 0x28 }
  - { offset: 0x41CE2, size: 0x8, addend: 0x0, symName: __ZNSt3__16__treeINS_12__value_typeINS_12basic_stringIcNS_11char_traitsIcEENS_9allocatorIcEEEE4roomEENS_19__map_value_compareIS7_S9_NS_4lessIS7_EELb1EEENS5_IS9_EEE19__copy_assign_allocB8ne180100ERKSF_, symObjAddr: 0xF474, symBinAddr: 0x100012DE8, symSize: 0x2C }
  - { offset: 0x41D18, size: 0x8, addend: 0x0, symName: __ZNSt3__16__treeINS_12__value_typeINS_12basic_stringIcNS_11char_traitsIcEENS_9allocatorIcEEEE4roomEENS_19__map_value_compareIS7_S9_NS_4lessIS7_EELb1EEENS5_IS9_EEE14__assign_multiINS_21__tree_const_iteratorIS9_PNS_11__tree_nodeIS9_PvEElEEEEvT_SN_, symObjAddr: 0xF4A0, symBinAddr: 0x100012E14, symSize: 0x178 }
  - { offset: 0x41D80, size: 0x8, addend: 0x0, symName: __ZNKSt3__16__treeINS_12__value_typeINS_12basic_stringIcNS_11char_traitsIcEENS_9allocatorIcEEEE4roomEENS_19__map_value_compareIS7_S9_NS_4lessIS7_EELb1EEENS5_IS9_EEE5beginB8ne180100Ev, symObjAddr: 0xF618, symBinAddr: 0x100012F8C, symSize: 0x34 }
  - { offset: 0x41DA6, size: 0x8, addend: 0x0, symName: __ZNKSt3__16__treeINS_12__value_typeINS_12basic_stringIcNS_11char_traitsIcEENS_9allocatorIcEEEE4roomEENS_19__map_value_compareIS7_S9_NS_4lessIS7_EELb1EEENS5_IS9_EEE3endB8ne180100Ev, symObjAddr: 0xF64C, symBinAddr: 0x100012FC0, symSize: 0x34 }
  - { offset: 0x41DCC, size: 0x8, addend: 0x0, symName: __ZNKSt3__117__compressed_pairImNS_19__map_value_compareINS_12basic_stringIcNS_11char_traitsIcEENS_9allocatorIcEEEENS_12__value_typeIS7_4roomEENS_4lessIS7_EELb1EEEE6secondB8ne180100Ev, symObjAddr: 0xF680, symBinAddr: 0x100012FF4, symSize: 0x24 }
  - { offset: 0x41DF2, size: 0x8, addend: 0x0, symName: __ZNKSt3__122__compressed_pair_elemINS_19__map_value_compareINS_12basic_stringIcNS_11char_traitsIcEENS_9allocatorIcEEEENS_12__value_typeIS7_4roomEENS_4lessIS7_EELb1EEELi1ELb1EE5__getB8ne180100Ev, symObjAddr: 0xF6A4, symBinAddr: 0x100013018, symSize: 0x14 }
  - { offset: 0x41E18, size: 0x8, addend: 0x0, symName: __ZNSt3__117__compressed_pairImNS_19__map_value_compareINS_12basic_stringIcNS_11char_traitsIcEENS_9allocatorIcEEEENS_12__value_typeIS7_4roomEENS_4lessIS7_EELb1EEEE6secondB8ne180100Ev, symObjAddr: 0xF6B8, symBinAddr: 0x10001302C, symSize: 0x24 }
  - { offset: 0x41E3E, size: 0x8, addend: 0x0, symName: __ZNSt3__122__compressed_pair_elemINS_19__map_value_compareINS_12basic_stringIcNS_11char_traitsIcEENS_9allocatorIcEEEENS_12__value_typeIS7_4roomEENS_4lessIS7_EELb1EEELi1ELb1EE5__getB8ne180100Ev, symObjAddr: 0xF6DC, symBinAddr: 0x100013050, symSize: 0x14 }
  - { offset: 0x41E64, size: 0x8, addend: 0x0, symName: __ZNSt3__16__treeINS_12__value_typeINS_12basic_stringIcNS_11char_traitsIcEENS_9allocatorIcEEEE4roomEENS_19__map_value_compareIS7_S9_NS_4lessIS7_EELb1EEENS5_IS9_EEE19__copy_assign_allocB8ne180100ERKSF_NS_17integral_constantIbLb0EEE, symObjAddr: 0xF6F0, symBinAddr: 0x100013064, symSize: 0x14 }
  - { offset: 0x41EA2, size: 0x8, addend: 0x0, symName: __ZNSt3__16__treeINS_12__value_typeINS_12basic_stringIcNS_11char_traitsIcEENS_9allocatorIcEEEE4roomEENS_19__map_value_compareIS7_S9_NS_4lessIS7_EELb1EEENS5_IS9_EEE4sizeB8ne180100Ev, symObjAddr: 0xF704, symBinAddr: 0x100013078, symSize: 0x28 }
  - { offset: 0x41EE6, size: 0x8, addend: 0x0, symName: __ZNSt3__16__treeINS_12__value_typeINS_12basic_stringIcNS_11char_traitsIcEENS_9allocatorIcEEEE4roomEENS_19__map_value_compareIS7_S9_NS_4lessIS7_EELb1EEENS5_IS9_EEE18_DetachedTreeCacheC1B8ne180100EPSF_, symObjAddr: 0xF72C, symBinAddr: 0x1000130A0, symSize: 0x34 }
  - { offset: 0x41F20, size: 0x8, addend: 0x0, symName: __ZNKSt3__16__treeINS_12__value_typeINS_12basic_stringIcNS_11char_traitsIcEENS_9allocatorIcEEEE4roomEENS_19__map_value_compareIS7_S9_NS_4lessIS7_EELb1EEENS5_IS9_EEE18_DetachedTreeCache5__getB8ne180100Ev, symObjAddr: 0xF760, symBinAddr: 0x1000130D4, symSize: 0x18 }
  - { offset: 0x41F46, size: 0x8, addend: 0x0, symName: __ZNKSt3__121__tree_const_iteratorINS_12__value_typeINS_12basic_stringIcNS_11char_traitsIcEENS_9allocatorIcEEEE4roomEEPNS_11__tree_nodeIS9_PvEElEdeB8ne180100Ev, symObjAddr: 0xF7AC, symBinAddr: 0x100013120, symSize: 0x28 }
  - { offset: 0x41F6C, size: 0x8, addend: 0x0, symName: __ZNSt3__112__value_typeINS_12basic_stringIcNS_11char_traitsIcEENS_9allocatorIcEEEE4roomEaSB8ne180100ERKS8_, symObjAddr: 0xF7D4, symBinAddr: 0x100013148, symSize: 0x60 }
  - { offset: 0x41FA2, size: 0x8, addend: 0x0, symName: __ZNSt3__16__treeINS_12__value_typeINS_12basic_stringIcNS_11char_traitsIcEENS_9allocatorIcEEEE4roomEENS_19__map_value_compareIS7_S9_NS_4lessIS7_EELb1EEENS5_IS9_EEE19__node_insert_multiEPNS_11__tree_nodeIS9_PvEE, symObjAddr: 0xF834, symBinAddr: 0x1000131A8, symSize: 0x70 }
  - { offset: 0x41FFA, size: 0x8, addend: 0x0, symName: __ZNSt3__16__treeINS_12__value_typeINS_12basic_stringIcNS_11char_traitsIcEENS_9allocatorIcEEEE4roomEENS_19__map_value_compareIS7_S9_NS_4lessIS7_EELb1EEENS5_IS9_EEE18_DetachedTreeCache9__advanceB8ne180100Ev, symObjAddr: 0xF8A4, symBinAddr: 0x100013218, symSize: 0x58 }
  - { offset: 0x42020, size: 0x8, addend: 0x0, symName: __ZNSt3__121__tree_const_iteratorINS_12__value_typeINS_12basic_stringIcNS_11char_traitsIcEENS_9allocatorIcEEEE4roomEEPNS_11__tree_nodeIS9_PvEElEppB8ne180100Ev, symObjAddr: 0xF8FC, symBinAddr: 0x100013270, symSize: 0x38 }
  - { offset: 0x42046, size: 0x8, addend: 0x0, symName: __ZNSt3__16__treeINS_12__value_typeINS_12basic_stringIcNS_11char_traitsIcEENS_9allocatorIcEEEE4roomEENS_19__map_value_compareIS7_S9_NS_4lessIS7_EELb1EEENS5_IS9_EEE18_DetachedTreeCacheD1B8ne180100Ev, symObjAddr: 0xF934, symBinAddr: 0x1000132A8, symSize: 0x2C }
  - { offset: 0x42070, size: 0x8, addend: 0x0, symName: __ZNSt3__16__treeINS_12__value_typeINS_12basic_stringIcNS_11char_traitsIcEENS_9allocatorIcEEEE4roomEENS_19__map_value_compareIS7_S9_NS_4lessIS7_EELb1EEENS5_IS9_EEE14__insert_multiB8ne180100IRKNS_4pairIKS7_S8_EEEENS_15__tree_iteratorIS9_PNS_11__tree_nodeIS9_PvEElEEOT_, symObjAddr: 0xF960, symBinAddr: 0x1000132D4, symSize: 0x34 }
  - { offset: 0x420AF, size: 0x8, addend: 0x0, symName: __ZNSt3__122__tree_key_value_typesINS_12__value_typeINS_12basic_stringIcNS_11char_traitsIcEENS_9allocatorIcEEEE4roomEEE11__get_valueB8ne180100ERKS9_, symObjAddr: 0xF994, symBinAddr: 0x100013308, symSize: 0x24 }
  - { offset: 0x420D4, size: 0x8, addend: 0x0, symName: __ZNSt3__117__compressed_pairImNS_19__map_value_compareINS_12basic_stringIcNS_11char_traitsIcEENS_9allocatorIcEEEENS_12__value_typeIS7_4roomEENS_4lessIS7_EELb1EEEE5firstB8ne180100Ev, symObjAddr: 0xF9B8, symBinAddr: 0x10001332C, symSize: 0x24 }
  - { offset: 0x420FA, size: 0x8, addend: 0x0, symName: __ZNSt3__16__treeINS_12__value_typeINS_12basic_stringIcNS_11char_traitsIcEENS_9allocatorIcEEEE4roomEENS_19__map_value_compareIS7_S9_NS_4lessIS7_EELb1EEENS5_IS9_EEE18_DetachedTreeCacheC2B8ne180100EPSF_, symObjAddr: 0xF9DC, symBinAddr: 0x100013350, symSize: 0x4C }
  - { offset: 0x42134, size: 0x8, addend: 0x0, symName: __ZNSt3__16__treeINS_12__value_typeINS_12basic_stringIcNS_11char_traitsIcEENS_9allocatorIcEEEE4roomEENS_19__map_value_compareIS7_S9_NS_4lessIS7_EELb1EEENS5_IS9_EEE18_DetachedTreeCache18__detach_from_treeEPSF_, symObjAddr: 0xFA28, symBinAddr: 0x10001339C, symSize: 0xA0 }
  - { offset: 0x4216B, size: 0x8, addend: 0x0, symName: __ZNSt3__16__treeINS_12__value_typeINS_12basic_stringIcNS_11char_traitsIcEENS_9allocatorIcEEEE4roomEENS_19__map_value_compareIS7_S9_NS_4lessIS7_EELb1EEENS5_IS9_EEE12__begin_nodeB8ne180100Ev, symObjAddr: 0xFAC8, symBinAddr: 0x10001343C, symSize: 0x14 }
  - { offset: 0x42191, size: 0x8, addend: 0x0, symName: __ZNSt3__16__treeINS_12__value_typeINS_12basic_stringIcNS_11char_traitsIcEENS_9allocatorIcEEEE4roomEENS_19__map_value_compareIS7_S9_NS_4lessIS7_EELb1EEENS5_IS9_EEE10__end_nodeB8ne180100Ev, symObjAddr: 0xFADC, symBinAddr: 0x100013450, symSize: 0x2C }
  - { offset: 0x421B7, size: 0x8, addend: 0x0, symName: __ZNSt3__117__compressed_pairINS_15__tree_end_nodeIPNS_16__tree_node_baseIPvEEEENS_9allocatorINS_11__tree_nodeINS_12__value_typeINS_12basic_stringIcNS_11char_traitsIcEENS7_IcEEEE4roomEES3_EEEEE5firstB8ne180100Ev, symObjAddr: 0xFB08, symBinAddr: 0x10001347C, symSize: 0x24 }
  - { offset: 0x421DD, size: 0x8, addend: 0x0, symName: __ZNKSt3__121__tree_const_iteratorINS_12__value_typeINS_12basic_stringIcNS_11char_traitsIcEENS_9allocatorIcEEEE4roomEEPNS_11__tree_nodeIS9_PvEElE8__get_npB8ne180100Ev, symObjAddr: 0xFB5C, symBinAddr: 0x1000134D0, symSize: 0x18 }
  - { offset: 0x42203, size: 0x8, addend: 0x0, symName: __ZNKSt3__112__value_typeINS_12basic_stringIcNS_11char_traitsIcEENS_9allocatorIcEEEE4roomE11__get_valueB8ne180100Ev, symObjAddr: 0xFB74, symBinAddr: 0x1000134E8, symSize: 0x24 }
  - { offset: 0x42229, size: 0x8, addend: 0x0, symName: __ZNSt3__112__value_typeINS_12basic_stringIcNS_11char_traitsIcEENS_9allocatorIcEEEE4roomE5__refB8ne180100Ev, symObjAddr: 0xFB98, symBinAddr: 0x10001350C, symSize: 0x44 }
  - { offset: 0x4225F, size: 0x8, addend: 0x0, symName: __ZNSt3__14pairIRNS_12basic_stringIcNS_11char_traitsIcEENS_9allocatorIcEEEER4roomEaSB8ne180100IKS6_S8_LPv0EEERSA_RKNS0_IT_T0_EE, symObjAddr: 0xFBDC, symBinAddr: 0x100013550, symSize: 0x4C }
  - { offset: 0x422AD, size: 0x8, addend: 0x0, symName: __ZNSt3__112__value_typeINS_12basic_stringIcNS_11char_traitsIcEENS_9allocatorIcEEEE4roomE11__get_valueB8ne180100Ev, symObjAddr: 0xFC60, symBinAddr: 0x1000135D4, symSize: 0x24 }
  - { offset: 0x422D3, size: 0x8, addend: 0x0, symName: __ZNSt3__14pairIRNS_12basic_stringIcNS_11char_traitsIcEENS_9allocatorIcEEEER4roomEC1B8ne180100ILb1ELi0EEES7_S9_, symObjAddr: 0xFC84, symBinAddr: 0x1000135F8, symSize: 0x3C }
  - { offset: 0x42329, size: 0x8, addend: 0x0, symName: __ZNSt3__14pairIRNS_12basic_stringIcNS_11char_traitsIcEENS_9allocatorIcEEEER4roomEC2B8ne180100ILb1ELi0EEES7_S9_, symObjAddr: 0xFCF8, symBinAddr: 0x10001366C, symSize: 0x2C }
  - { offset: 0x4237F, size: 0x8, addend: 0x0, symName: __ZNSt3__16__treeINS_12__value_typeINS_12basic_stringIcNS_11char_traitsIcEENS_9allocatorIcEEEE4roomEENS_19__map_value_compareIS7_S9_NS_4lessIS7_EELb1EEENS5_IS9_EEE16__find_leaf_highERPNS_15__tree_end_nodeIPNS_16__tree_node_baseIPvEEEERKS7_, symObjAddr: 0xFD24, symBinAddr: 0x100013698, symSize: 0x124 }
  - { offset: 0x423D7, size: 0x8, addend: 0x0, symName: __ZNSt3__122__tree_key_value_typesINS_12__value_typeINS_12basic_stringIcNS_11char_traitsIcEENS_9allocatorIcEEEE4roomEEE9__get_keyB8ne180100ERKS9_, symObjAddr: 0xFE48, symBinAddr: 0x1000137BC, symSize: 0x24 }
  - { offset: 0x423FC, size: 0x8, addend: 0x0, symName: __ZNSt3__16__treeINS_12__value_typeINS_12basic_stringIcNS_11char_traitsIcEENS_9allocatorIcEEEE4roomEENS_19__map_value_compareIS7_S9_NS_4lessIS7_EELb1EEENS5_IS9_EEE16__insert_node_atEPNS_15__tree_end_nodeIPNS_16__tree_node_baseIPvEEEERSK_SK_, symObjAddr: 0xFE6C, symBinAddr: 0x1000137E0, symSize: 0xCC }
  - { offset: 0x42454, size: 0x8, addend: 0x0, symName: __ZNSt3__115__tree_iteratorINS_12__value_typeINS_12basic_stringIcNS_11char_traitsIcEENS_9allocatorIcEEEE4roomEEPNS_11__tree_nodeIS9_PvEElEC1B8ne180100ESD_, symObjAddr: 0xFF38, symBinAddr: 0x1000138AC, symSize: 0x34 }
  - { offset: 0x4248E, size: 0x8, addend: 0x0, symName: __ZNKSt3__16__treeINS_12__value_typeINS_12basic_stringIcNS_11char_traitsIcEENS_9allocatorIcEEEE4roomEENS_19__map_value_compareIS7_S9_NS_4lessIS7_EELb1EEENS5_IS9_EEE6__rootB8ne180100Ev, symObjAddr: 0xFF6C, symBinAddr: 0x1000138E0, symSize: 0x28 }
  - { offset: 0x424B4, size: 0x8, addend: 0x0, symName: __ZNKSt3__119__map_value_compareINS_12basic_stringIcNS_11char_traitsIcEENS_9allocatorIcEEEENS_12__value_typeIS6_4roomEENS_4lessIS6_EELb1EEclB8ne180100ERKS6_RKS9_, symObjAddr: 0xFF94, symBinAddr: 0x100013908, symSize: 0x50 }
  - { offset: 0x424FA, size: 0x8, addend: 0x0, symName: __ZNKSt3__16__treeINS_12__value_typeINS_12basic_stringIcNS_11char_traitsIcEENS_9allocatorIcEEEE4roomEENS_19__map_value_compareIS7_S9_NS_4lessIS7_EELb1EEENS5_IS9_EEE10__end_nodeB8ne180100Ev, symObjAddr: 0xFFE4, symBinAddr: 0x100013958, symSize: 0x2C }
  - { offset: 0x42520, size: 0x8, addend: 0x0, symName: __ZNKSt3__117__compressed_pairINS_15__tree_end_nodeIPNS_16__tree_node_baseIPvEEEENS_9allocatorINS_11__tree_nodeINS_12__value_typeINS_12basic_stringIcNS_11char_traitsIcEENS7_IcEEEE4roomEES3_EEEEE5firstB8ne180100Ev, symObjAddr: 0x10010, symBinAddr: 0x100013984, symSize: 0x24 }
  - { offset: 0x42546, size: 0x8, addend: 0x0, symName: __ZNSt3__115__tree_iteratorINS_12__value_typeINS_12basic_stringIcNS_11char_traitsIcEENS_9allocatorIcEEEE4roomEEPNS_11__tree_nodeIS9_PvEElEC2B8ne180100ESD_, symObjAddr: 0x10034, symBinAddr: 0x1000139A8, symSize: 0x20 }
  - { offset: 0x42580, size: 0x8, addend: 0x0, symName: __ZNSt3__16__treeINS_12__value_typeINS_12basic_stringIcNS_11char_traitsIcEENS_9allocatorIcEEEE4roomEENS_19__map_value_compareIS7_S9_NS_4lessIS7_EELb1EEENS5_IS9_EEE18_DetachedTreeCache13__detach_nextEPNS_11__tree_nodeIS9_PvEE, symObjAddr: 0x10054, symBinAddr: 0x1000139C8, symSize: 0xF0 }
  - { offset: 0x425A7, size: 0x8, addend: 0x0, symName: __ZNSt3__16__treeINS_12__value_typeINS_12basic_stringIcNS_11char_traitsIcEENS_9allocatorIcEEEE4roomEENS_19__map_value_compareIS7_S9_NS_4lessIS7_EELb1EEENS5_IS9_EEE18_DetachedTreeCacheD2B8ne180100Ev, symObjAddr: 0x10144, symBinAddr: 0x100013AB8, symSize: 0x9C }
  - { offset: 0x425D1, size: 0x8, addend: 0x0, symName: __ZNSt3__16__treeINS_12__value_typeINS_12basic_stringIcNS_11char_traitsIcEENS_9allocatorIcEEEE4roomEENS_19__map_value_compareIS7_S9_NS_4lessIS7_EELb1EEENS5_IS9_EEE7destroyEPNS_11__tree_nodeIS9_PvEE, symObjAddr: 0x101E0, symBinAddr: 0x100013B54, symSize: 0xAC }
  - { offset: 0x42620, size: 0x8, addend: 0x0, symName: __ZNSt3__16__treeINS_12__value_typeINS_12basic_stringIcNS_11char_traitsIcEENS_9allocatorIcEEEE4roomEENS_19__map_value_compareIS7_S9_NS_4lessIS7_EELb1EEENS5_IS9_EEE12__node_allocB8ne180100Ev, symObjAddr: 0x1028C, symBinAddr: 0x100013C00, symSize: 0x28 }
  - { offset: 0x42646, size: 0x8, addend: 0x0, symName: __ZNSt3__116allocator_traitsINS_9allocatorINS_11__tree_nodeINS_12__value_typeINS_12basic_stringIcNS_11char_traitsIcEENS1_IcEEEE4roomEEPvEEEEE7destroyB8ne180100INS_4pairIKS8_S9_EEvvEEvRSD_PT_, symObjAddr: 0x102B4, symBinAddr: 0x100013C28, symSize: 0x28 }
  - { offset: 0x42682, size: 0x8, addend: 0x0, symName: __ZNSt3__122__tree_key_value_typesINS_12__value_typeINS_12basic_stringIcNS_11char_traitsIcEENS_9allocatorIcEEEE4roomEEE9__get_ptrB8ne180100ERS9_, symObjAddr: 0x102DC, symBinAddr: 0x100013C50, symSize: 0x24 }
  - { offset: 0x426A7, size: 0x8, addend: 0x0, symName: __ZNSt3__116allocator_traitsINS_9allocatorINS_11__tree_nodeINS_12__value_typeINS_12basic_stringIcNS_11char_traitsIcEENS1_IcEEEE4roomEEPvEEEEE10deallocateB8ne180100ERSD_PSC_m, symObjAddr: 0x10300, symBinAddr: 0x100013C74, symSize: 0x34 }
  - { offset: 0x426EC, size: 0x8, addend: 0x0, symName: __ZNSt3__117__compressed_pairINS_15__tree_end_nodeIPNS_16__tree_node_baseIPvEEEENS_9allocatorINS_11__tree_nodeINS_12__value_typeINS_12basic_stringIcNS_11char_traitsIcEENS7_IcEEEE4roomEES3_EEEEE6secondB8ne180100Ev, symObjAddr: 0x10334, symBinAddr: 0x100013CA8, symSize: 0x24 }
  - { offset: 0x42712, size: 0x8, addend: 0x0, symName: __ZNSt3__122__compressed_pair_elemINS_9allocatorINS_11__tree_nodeINS_12__value_typeINS_12basic_stringIcNS_11char_traitsIcEENS1_IcEEEE4roomEEPvEEEELi1ELb1EE5__getB8ne180100Ev, symObjAddr: 0x10358, symBinAddr: 0x100013CCC, symSize: 0x14 }
  - { offset: 0x42738, size: 0x8, addend: 0x0, symName: __ZNSt3__14pairIKNS_12basic_stringIcNS_11char_traitsIcEENS_9allocatorIcEEEE4roomED1Ev, symObjAddr: 0x10390, symBinAddr: 0x100013D04, symSize: 0x2C }
  - { offset: 0x42764, size: 0x8, addend: 0x0, symName: __ZNSt3__14pairIKNS_12basic_stringIcNS_11char_traitsIcEENS_9allocatorIcEEEE4roomED2Ev, symObjAddr: 0x103BC, symBinAddr: 0x100013D30, symSize: 0x38 }
  - { offset: 0x42790, size: 0x8, addend: 0x0, symName: __ZNSt3__19allocatorINS_11__tree_nodeINS_12__value_typeINS_12basic_stringIcNS_11char_traitsIcEENS0_IcEEEE4roomEEPvEEE10deallocateB8ne180100EPSB_m, symObjAddr: 0x103F4, symBinAddr: 0x100013D68, symSize: 0x44 }
  - { offset: 0x427D2, size: 0x8, addend: 0x0, symName: __ZNSt3__16__treeINS_12__value_typeINS_12basic_stringIcNS_11char_traitsIcEENS_9allocatorIcEEEE4roomEENS_19__map_value_compareIS7_S9_NS_4lessIS7_EELb1EEENS5_IS9_EEE15__emplace_multiIJRKNS_4pairIKS7_S8_EEEEENS_15__tree_iteratorIS9_PNS_11__tree_nodeIS9_PvEElEEDpOT_, symObjAddr: 0x10438, symBinAddr: 0x100013DAC, symSize: 0xD8 }
  - { offset: 0x42846, size: 0x8, addend: 0x0, symName: __ZNSt3__16__treeINS_12__value_typeINS_12basic_stringIcNS_11char_traitsIcEENS_9allocatorIcEEEE4roomEENS_19__map_value_compareIS7_S9_NS_4lessIS7_EELb1EEENS5_IS9_EEE16__construct_nodeIJRKNS_4pairIKS7_S8_EEEEENS_10unique_ptrINS_11__tree_nodeIS9_PvEENS_22__tree_node_destructorINS5_ISP_EEEEEEDpOT_, symObjAddr: 0x10510, symBinAddr: 0x100013E84, symSize: 0x108 }
  - { offset: 0x428AA, size: 0x8, addend: 0x0, symName: __ZNKSt3__110unique_ptrINS_11__tree_nodeINS_12__value_typeINS_12basic_stringIcNS_11char_traitsIcEENS_9allocatorIcEEEE4roomEEPvEENS_22__tree_node_destructorINS6_ISC_EEEEEptB8ne180100Ev, symObjAddr: 0x10618, symBinAddr: 0x100013F8C, symSize: 0x28 }
  - { offset: 0x428D0, size: 0x8, addend: 0x0, symName: __ZNKSt3__110unique_ptrINS_11__tree_nodeINS_12__value_typeINS_12basic_stringIcNS_11char_traitsIcEENS_9allocatorIcEEEE4roomEEPvEENS_22__tree_node_destructorINS6_ISC_EEEEE3getB8ne180100Ev, symObjAddr: 0x10640, symBinAddr: 0x100013FB4, symSize: 0x28 }
  - { offset: 0x428F6, size: 0x8, addend: 0x0, symName: __ZNSt3__110unique_ptrINS_11__tree_nodeINS_12__value_typeINS_12basic_stringIcNS_11char_traitsIcEENS_9allocatorIcEEEE4roomEEPvEENS_22__tree_node_destructorINS6_ISC_EEEEE7releaseB8ne180100Ev, symObjAddr: 0x10668, symBinAddr: 0x100013FDC, symSize: 0x44 }
  - { offset: 0x4292C, size: 0x8, addend: 0x0, symName: __ZNSt3__110unique_ptrINS_11__tree_nodeINS_12__value_typeINS_12basic_stringIcNS_11char_traitsIcEENS_9allocatorIcEEEE4roomEEPvEENS_22__tree_node_destructorINS6_ISC_EEEEED1B8ne180100Ev, symObjAddr: 0x106AC, symBinAddr: 0x100014020, symSize: 0x2C }
  - { offset: 0x42956, size: 0x8, addend: 0x0, symName: __ZNSt3__116allocator_traitsINS_9allocatorINS_11__tree_nodeINS_12__value_typeINS_12basic_stringIcNS_11char_traitsIcEENS1_IcEEEE4roomEEPvEEEEE8allocateB8ne180100ERSD_m, symObjAddr: 0x106D8, symBinAddr: 0x10001404C, symSize: 0x2C }
  - { offset: 0x4298B, size: 0x8, addend: 0x0, symName: __ZNSt3__122__tree_node_destructorINS_9allocatorINS_11__tree_nodeINS_12__value_typeINS_12basic_stringIcNS_11char_traitsIcEENS1_IcEEEE4roomEEPvEEEEEC1B8ne180100ERSD_b, symObjAddr: 0x10704, symBinAddr: 0x100014078, symSize: 0x48 }
  - { offset: 0x429DA, size: 0x8, addend: 0x0, symName: __ZNSt3__110unique_ptrINS_11__tree_nodeINS_12__value_typeINS_12basic_stringIcNS_11char_traitsIcEENS_9allocatorIcEEEE4roomEEPvEENS_22__tree_node_destructorINS6_ISC_EEEEEC1B8ne180100ILb1EvEEPSC_NS_16__dependent_typeINS_27__unique_ptr_deleter_sfinaeISF_EEXT_EE20__good_rval_ref_typeE, symObjAddr: 0x1074C, symBinAddr: 0x1000140C0, symSize: 0x3C }
  - { offset: 0x42A2B, size: 0x8, addend: 0x0, symName: __ZNSt3__116allocator_traitsINS_9allocatorINS_11__tree_nodeINS_12__value_typeINS_12basic_stringIcNS_11char_traitsIcEENS1_IcEEEE4roomEEPvEEEEE9constructB8ne180100INS_4pairIKS8_S9_EEJRKSI_EvEEvRSD_PT_DpOT0_, symObjAddr: 0x10788, symBinAddr: 0x1000140FC, symSize: 0x34 }
  - { offset: 0x42A85, size: 0x8, addend: 0x0, symName: __ZNSt3__110unique_ptrINS_11__tree_nodeINS_12__value_typeINS_12basic_stringIcNS_11char_traitsIcEENS_9allocatorIcEEEE4roomEEPvEENS_22__tree_node_destructorINS6_ISC_EEEEE11get_deleterB8ne180100Ev, symObjAddr: 0x107BC, symBinAddr: 0x100014130, symSize: 0x24 }
  - { offset: 0x42AAB, size: 0x8, addend: 0x0, symName: __ZNSt3__19allocatorINS_11__tree_nodeINS_12__value_typeINS_12basic_stringIcNS_11char_traitsIcEENS0_IcEEEE4roomEEPvEEE8allocateB8ne180100Em, symObjAddr: 0x107E0, symBinAddr: 0x100014154, symSize: 0x5C }
  - { offset: 0x42AE9, size: 0x8, addend: 0x0, symName: __ZNSt3__116allocator_traitsINS_9allocatorINS_11__tree_nodeINS_12__value_typeINS_12basic_stringIcNS_11char_traitsIcEENS1_IcEEEE4roomEEPvEEEEE8max_sizeB8ne180100ISD_vEEmRKSD_, symObjAddr: 0x1083C, symBinAddr: 0x1000141B0, symSize: 0x24 }
  - { offset: 0x42B18, size: 0x8, addend: 0x0, symName: __ZNKSt3__19allocatorINS_11__tree_nodeINS_12__value_typeINS_12basic_stringIcNS_11char_traitsIcEENS0_IcEEEE4roomEEPvEEE8max_sizeB8ne180100Ev, symObjAddr: 0x10860, symBinAddr: 0x1000141D4, symSize: 0x20 }
  - { offset: 0x42B3E, size: 0x8, addend: 0x0, symName: __ZNSt3__122__tree_node_destructorINS_9allocatorINS_11__tree_nodeINS_12__value_typeINS_12basic_stringIcNS_11char_traitsIcEENS1_IcEEEE4roomEEPvEEEEEC2B8ne180100ERSD_b, symObjAddr: 0x10880, symBinAddr: 0x1000141F4, symSize: 0x38 }
  - { offset: 0x42B88, size: 0x8, addend: 0x0, symName: __ZNSt3__110unique_ptrINS_11__tree_nodeINS_12__value_typeINS_12basic_stringIcNS_11char_traitsIcEENS_9allocatorIcEEEE4roomEEPvEENS_22__tree_node_destructorINS6_ISC_EEEEEC2B8ne180100ILb1EvEEPSC_NS_16__dependent_typeINS_27__unique_ptr_deleter_sfinaeISF_EEXT_EE20__good_rval_ref_typeE, symObjAddr: 0x108B8, symBinAddr: 0x10001422C, symSize: 0x48 }
  - { offset: 0x42BD9, size: 0x8, addend: 0x0, symName: __ZNSt3__117__compressed_pairIPNS_11__tree_nodeINS_12__value_typeINS_12basic_stringIcNS_11char_traitsIcEENS_9allocatorIcEEEE4roomEEPvEENS_22__tree_node_destructorINS6_ISC_EEEEEC1B8ne180100IRSD_SG_EEOT_OT0_, symObjAddr: 0x10900, symBinAddr: 0x100014274, symSize: 0x3C }
  - { offset: 0x42C31, size: 0x8, addend: 0x0, symName: __ZNSt3__117__compressed_pairIPNS_11__tree_nodeINS_12__value_typeINS_12basic_stringIcNS_11char_traitsIcEENS_9allocatorIcEEEE4roomEEPvEENS_22__tree_node_destructorINS6_ISC_EEEEEC2B8ne180100IRSD_SG_EEOT_OT0_, symObjAddr: 0x1093C, symBinAddr: 0x1000142B0, symSize: 0x48 }
  - { offset: 0x42C89, size: 0x8, addend: 0x0, symName: __ZNSt3__122__compressed_pair_elemIPNS_11__tree_nodeINS_12__value_typeINS_12basic_stringIcNS_11char_traitsIcEENS_9allocatorIcEEEE4roomEEPvEELi0ELb0EEC2B8ne180100IRSD_vEEOT_, symObjAddr: 0x10984, symBinAddr: 0x1000142F8, symSize: 0x24 }
  - { offset: 0x42CCB, size: 0x8, addend: 0x0, symName: __ZNSt3__122__compressed_pair_elemINS_22__tree_node_destructorINS_9allocatorINS_11__tree_nodeINS_12__value_typeINS_12basic_stringIcNS_11char_traitsIcEENS2_IcEEEE4roomEEPvEEEEEELi1ELb0EEC2B8ne180100ISF_vEEOT_, symObjAddr: 0x109A8, symBinAddr: 0x10001431C, symSize: 0x24 }
  - { offset: 0x42D0D, size: 0x8, addend: 0x0, symName: __ZNSt3__19allocatorINS_11__tree_nodeINS_12__value_typeINS_12basic_stringIcNS_11char_traitsIcEENS0_IcEEEE4roomEEPvEEE9constructB8ne180100INS_4pairIKS7_S8_EEJRKSG_EEEvPT_DpOT0_, symObjAddr: 0x109CC, symBinAddr: 0x100014340, symSize: 0x30 }
  - { offset: 0x42D63, size: 0x8, addend: 0x0, symName: __ZNSt3__14pairIKNS_12basic_stringIcNS_11char_traitsIcEENS_9allocatorIcEEEE4roomEC1B8ne180100ERKS9_, symObjAddr: 0x109FC, symBinAddr: 0x100014370, symSize: 0x34 }
  - { offset: 0x42D98, size: 0x8, addend: 0x0, symName: __ZNSt3__14pairIKNS_12basic_stringIcNS_11char_traitsIcEENS_9allocatorIcEEEE4roomEC2B8ne180100ERKS9_, symObjAddr: 0x10A30, symBinAddr: 0x1000143A4, symSize: 0x70 }
  - { offset: 0x42DCD, size: 0x8, addend: 0x0, symName: __ZN4roomC1ERKS_, symObjAddr: 0x10AA0, symBinAddr: 0x100014414, symSize: 0x34 }
  - { offset: 0x42E02, size: 0x8, addend: 0x0, symName: __ZN4roomC2ERKS_, symObjAddr: 0x10AD4, symBinAddr: 0x100014448, symSize: 0x280 }
  - { offset: 0x42E37, size: 0x8, addend: 0x0, symName: __ZNSt3__13mapINS_12basic_stringIcNS_11char_traitsIcEENS_9allocatorIcEEEES6_NS_4lessIS6_EENS4_INS_4pairIKS6_S6_EEEEEC1B8ne180100ERKSD_, symObjAddr: 0x10D54, symBinAddr: 0x1000146C8, symSize: 0x34 }
  - { offset: 0x42E71, size: 0x8, addend: 0x0, symName: __ZNSt3__113unordered_mapINS_12basic_stringIcNS_11char_traitsIcEENS_9allocatorIcEEEENS_6vectorIS6_NS4_IS6_EEEENS_4hashIS6_EENS_8equal_toIS6_EENS4_INS_4pairIKS6_S9_EEEEEC1ERKSI_, symObjAddr: 0x10D88, symBinAddr: 0x1000146FC, symSize: 0x34 }
  - { offset: 0x42EAD, size: 0x8, addend: 0x0, symName: __ZNSt3__113unordered_mapINS_12basic_stringIcNS_11char_traitsIcEENS_9allocatorIcEEEEbNS_4hashIS6_EENS_8equal_toIS6_EENS4_INS_4pairIKS6_bEEEEEC1ERKSF_, symObjAddr: 0x10DBC, symBinAddr: 0x100014730, symSize: 0x34 }
  - { offset: 0x42EE9, size: 0x8, addend: 0x0, symName: __ZNSt3__13mapINS_12basic_stringIcNS_11char_traitsIcEENS_9allocatorIcEEEE4roomNS_4lessIS6_EENS4_INS_4pairIKS6_S7_EEEEEC1B8ne180100ERKSE_, symObjAddr: 0x10DF0, symBinAddr: 0x100014764, symSize: 0x34 }
  - { offset: 0x42F23, size: 0x8, addend: 0x0, symName: __ZNSt3__113unordered_mapINS_12basic_stringIcNS_11char_traitsIcEENS_9allocatorIcEEEEbNS_4hashIS6_EENS_8equal_toIS6_EENS4_INS_4pairIKS6_bEEEEED1B8ne180100Ev, symObjAddr: 0x10E24, symBinAddr: 0x100014798, symSize: 0x2C }
  - { offset: 0x42F4D, size: 0x8, addend: 0x0, symName: __ZNSt3__113unordered_mapINS_12basic_stringIcNS_11char_traitsIcEENS_9allocatorIcEEEENS_6vectorIS6_NS4_IS6_EEEENS_4hashIS6_EENS_8equal_toIS6_EENS4_INS_4pairIKS6_S9_EEEEED1B8ne180100Ev, symObjAddr: 0x10E50, symBinAddr: 0x1000147C4, symSize: 0x2C }
  - { offset: 0x42F77, size: 0x8, addend: 0x0, symName: __ZNSt3__13mapINS_12basic_stringIcNS_11char_traitsIcEENS_9allocatorIcEEEES6_NS_4lessIS6_EENS4_INS_4pairIKS6_S6_EEEEEC2B8ne180100ERKSD_, symObjAddr: 0x10E7C, symBinAddr: 0x1000147F0, symSize: 0x88 }
  - { offset: 0x42FB1, size: 0x8, addend: 0x0, symName: __ZNSt3__16__treeINS_12__value_typeINS_12basic_stringIcNS_11char_traitsIcEENS_9allocatorIcEEEES7_EENS_19__map_value_compareIS7_S8_NS_4lessIS7_EELb1EEENS5_IS8_EEEC1ERKSE_, symObjAddr: 0x10F04, symBinAddr: 0x100014878, symSize: 0x34 }
  - { offset: 0x42FED, size: 0x8, addend: 0x0, symName: __ZNSt3__13mapINS_12basic_stringIcNS_11char_traitsIcEENS_9allocatorIcEEEES6_NS_4lessIS6_EENS4_INS_4pairIKS6_S6_EEEEE6insertB8ne180100INS_20__map_const_iteratorINS_21__tree_const_iteratorINS_12__value_typeIS6_S6_EEPNS_11__tree_nodeISI_PvEElEEEEEEvT_SP_, symObjAddr: 0x10F38, symBinAddr: 0x1000148AC, symSize: 0x8C }
  - { offset: 0x4305B, size: 0x8, addend: 0x0, symName: __ZNSt3__16__treeINS_12__value_typeINS_12basic_stringIcNS_11char_traitsIcEENS_9allocatorIcEEEES7_EENS_19__map_value_compareIS7_S8_NS_4lessIS7_EELb1EEENS5_IS8_EEED1Ev, symObjAddr: 0x10FC4, symBinAddr: 0x100014938, symSize: 0x2C }
  - { offset: 0x43087, size: 0x8, addend: 0x0, symName: __ZNSt3__16__treeINS_12__value_typeINS_12basic_stringIcNS_11char_traitsIcEENS_9allocatorIcEEEES7_EENS_19__map_value_compareIS7_S8_NS_4lessIS7_EELb1EEENS5_IS8_EEEC2ERKSE_, symObjAddr: 0x10FF0, symBinAddr: 0x100014964, symSize: 0x9C }
  - { offset: 0x430C3, size: 0x8, addend: 0x0, symName: __ZNSt3__116allocator_traitsINS_9allocatorINS_11__tree_nodeINS_12__value_typeINS_12basic_stringIcNS_11char_traitsIcEENS1_IcEEEES8_EEPvEEEEE37select_on_container_copy_constructionB8ne180100ISC_vvEESC_RKSC_, symObjAddr: 0x1108C, symBinAddr: 0x100014A00, symSize: 0x10 }
  - { offset: 0x430F3, size: 0x8, addend: 0x0, symName: __ZNKSt3__16__treeINS_12__value_typeINS_12basic_stringIcNS_11char_traitsIcEENS_9allocatorIcEEEES7_EENS_19__map_value_compareIS7_S8_NS_4lessIS7_EELb1EEENS5_IS8_EEE12__node_allocB8ne180100Ev, symObjAddr: 0x1109C, symBinAddr: 0x100014A10, symSize: 0x28 }
  - { offset: 0x43123, size: 0x8, addend: 0x0, symName: __ZNSt3__117__compressed_pairINS_15__tree_end_nodeIPNS_16__tree_node_baseIPvEEEENS_9allocatorINS_11__tree_nodeINS_12__value_typeINS_12basic_stringIcNS_11char_traitsIcEENS7_IcEEEESE_EES3_EEEEEC1B8ne180100INS_18__default_init_tagESH_EEOT_OT0_, symObjAddr: 0x110C4, symBinAddr: 0x100014A38, symSize: 0x3C }
  - { offset: 0x43180, size: 0x8, addend: 0x0, symName: __ZNSt3__117__compressed_pairImNS_19__map_value_compareINS_12basic_stringIcNS_11char_traitsIcEENS_9allocatorIcEEEENS_12__value_typeIS7_S7_EENS_4lessIS7_EELb1EEEEC1B8ne180100IiRKSC_EEOT_OT0_, symObjAddr: 0x11100, symBinAddr: 0x100014A74, symSize: 0x3C }
  - { offset: 0x431D8, size: 0x8, addend: 0x0, symName: __ZNKSt3__117__compressed_pairINS_15__tree_end_nodeIPNS_16__tree_node_baseIPvEEEENS_9allocatorINS_11__tree_nodeINS_12__value_typeINS_12basic_stringIcNS_11char_traitsIcEENS7_IcEEEESE_EES3_EEEEE6secondB8ne180100Ev, symObjAddr: 0x1113C, symBinAddr: 0x100014AB0, symSize: 0x24 }
  - { offset: 0x431FE, size: 0x8, addend: 0x0, symName: __ZNKSt3__122__compressed_pair_elemINS_9allocatorINS_11__tree_nodeINS_12__value_typeINS_12basic_stringIcNS_11char_traitsIcEENS1_IcEEEES8_EEPvEEEELi1ELb1EE5__getB8ne180100Ev, symObjAddr: 0x11160, symBinAddr: 0x100014AD4, symSize: 0x14 }
  - { offset: 0x43224, size: 0x8, addend: 0x0, symName: __ZNSt3__117__compressed_pairINS_15__tree_end_nodeIPNS_16__tree_node_baseIPvEEEENS_9allocatorINS_11__tree_nodeINS_12__value_typeINS_12basic_stringIcNS_11char_traitsIcEENS7_IcEEEESE_EES3_EEEEEC2B8ne180100INS_18__default_init_tagESH_EEOT_OT0_, symObjAddr: 0x11174, symBinAddr: 0x100014AE8, symSize: 0x40 }
  - { offset: 0x4327C, size: 0x8, addend: 0x0, symName: __ZNSt3__122__compressed_pair_elemINS_15__tree_end_nodeIPNS_16__tree_node_baseIPvEEEELi0ELb0EEC2B8ne180100ENS_18__default_init_tagE, symObjAddr: 0x111B4, symBinAddr: 0x100014B28, symSize: 0x2C }
  - { offset: 0x432B1, size: 0x8, addend: 0x0, symName: __ZNSt3__122__compressed_pair_elemINS_9allocatorINS_11__tree_nodeINS_12__value_typeINS_12basic_stringIcNS_11char_traitsIcEENS1_IcEEEES8_EEPvEEEELi1ELb1EEC2B8ne180100ISC_vEEOT_, symObjAddr: 0x111E0, symBinAddr: 0x100014B54, symSize: 0x18 }
  - { offset: 0x432F3, size: 0x8, addend: 0x0, symName: __ZNSt3__115__tree_end_nodeIPNS_16__tree_node_baseIPvEEEC1B8ne180100Ev, symObjAddr: 0x111F8, symBinAddr: 0x100014B6C, symSize: 0x2C }
  - { offset: 0x4331D, size: 0x8, addend: 0x0, symName: __ZNSt3__115__tree_end_nodeIPNS_16__tree_node_baseIPvEEEC2B8ne180100Ev, symObjAddr: 0x11224, symBinAddr: 0x100014B98, symSize: 0x18 }
  - { offset: 0x43347, size: 0x8, addend: 0x0, symName: __ZNSt3__117__compressed_pairImNS_19__map_value_compareINS_12basic_stringIcNS_11char_traitsIcEENS_9allocatorIcEEEENS_12__value_typeIS7_S7_EENS_4lessIS7_EELb1EEEEC2B8ne180100IiRKSC_EEOT_OT0_, symObjAddr: 0x1123C, symBinAddr: 0x100014BB0, symSize: 0x44 }
  - { offset: 0x4339F, size: 0x8, addend: 0x0, symName: __ZNSt3__122__compressed_pair_elemImLi0ELb0EEC2B8ne180100IivEEOT_, symObjAddr: 0x11280, symBinAddr: 0x100014BF4, symSize: 0x24 }
  - { offset: 0x433E1, size: 0x8, addend: 0x0, symName: __ZNSt3__122__compressed_pair_elemINS_19__map_value_compareINS_12basic_stringIcNS_11char_traitsIcEENS_9allocatorIcEEEENS_12__value_typeIS7_S7_EENS_4lessIS7_EELb1EEELi1ELb1EEC2B8ne180100IRKSC_vEEOT_, symObjAddr: 0x112A4, symBinAddr: 0x100014C18, symSize: 0x18 }
  - { offset: 0x43423, size: 0x8, addend: 0x0, symName: __ZNKSt3__13mapINS_12basic_stringIcNS_11char_traitsIcEENS_9allocatorIcEEEES6_NS_4lessIS6_EENS4_INS_4pairIKS6_S6_EEEEE4cendB8ne180100Ev, symObjAddr: 0x112BC, symBinAddr: 0x100014C30, symSize: 0x2C }
  - { offset: 0x43449, size: 0x8, addend: 0x0, symName: __ZNSt3__13mapINS_12basic_stringIcNS_11char_traitsIcEENS_9allocatorIcEEEES6_NS_4lessIS6_EENS4_INS_4pairIKS6_S6_EEEEE6insertB8ne180100ENS_20__map_const_iteratorINS_21__tree_const_iteratorINS_12__value_typeIS6_S6_EEPNS_11__tree_nodeISH_PvEElEEEERKSB_, symObjAddr: 0x112E8, symBinAddr: 0x100014C5C, symSize: 0x50 }
  - { offset: 0x4348F, size: 0x8, addend: 0x0, symName: __ZNSt3__120__map_const_iteratorINS_21__tree_const_iteratorINS_12__value_typeINS_12basic_stringIcNS_11char_traitsIcEENS_9allocatorIcEEEES8_EEPNS_11__tree_nodeIS9_PvEElEEEC1B8ne180100ESE_, symObjAddr: 0x11338, symBinAddr: 0x100014CAC, symSize: 0x34 }
  - { offset: 0x434C9, size: 0x8, addend: 0x0, symName: __ZNSt3__16__treeINS_12__value_typeINS_12basic_stringIcNS_11char_traitsIcEENS_9allocatorIcEEEES7_EENS_19__map_value_compareIS7_S8_NS_4lessIS7_EELb1EEENS5_IS8_EEE15__insert_uniqueB8ne180100ENS_21__tree_const_iteratorIS8_PNS_11__tree_nodeIS8_PvEElEERKNS_4pairIKS7_S7_EE, symObjAddr: 0x1136C, symBinAddr: 0x100014CE0, symSize: 0x64 }
  - { offset: 0x4350F, size: 0x8, addend: 0x0, symName: __ZNSt3__114__map_iteratorINS_15__tree_iteratorINS_12__value_typeINS_12basic_stringIcNS_11char_traitsIcEENS_9allocatorIcEEEES8_EEPNS_11__tree_nodeIS9_PvEElEEEC1B8ne180100ESE_, symObjAddr: 0x113D0, symBinAddr: 0x100014D44, symSize: 0x34 }
  - { offset: 0x43549, size: 0x8, addend: 0x0, symName: __ZNSt3__16__treeINS_12__value_typeINS_12basic_stringIcNS_11char_traitsIcEENS_9allocatorIcEEEES7_EENS_19__map_value_compareIS7_S8_NS_4lessIS7_EELb1EEENS5_IS8_EEE30__emplace_hint_unique_key_argsIS7_JRKNS_4pairIKS7_S7_EEEEENSG_INS_15__tree_iteratorIS8_PNS_11__tree_nodeIS8_PvEElEEbEENS_21__tree_const_iteratorIS8_SP_lEERKT_DpOT0_, symObjAddr: 0x11404, symBinAddr: 0x100014D78, symSize: 0x104 }
  - { offset: 0x4361F, size: 0x8, addend: 0x0, symName: __ZNSt3__122__tree_key_value_typesINS_12__value_typeINS_12basic_stringIcNS_11char_traitsIcEENS_9allocatorIcEEEES7_EEE9__get_keyB8ne180100IKNS_4pairIKS7_S7_EELi0EEERSC_RT_, symObjAddr: 0x11508, symBinAddr: 0x100014E7C, symSize: 0x14 }
  - { offset: 0x43653, size: 0x8, addend: 0x0, symName: __ZNSt3__16__treeINS_12__value_typeINS_12basic_stringIcNS_11char_traitsIcEENS_9allocatorIcEEEES7_EENS_19__map_value_compareIS7_S8_NS_4lessIS7_EELb1EEENS5_IS8_EEE12__find_equalIS7_EERPNS_16__tree_node_baseIPvEENS_21__tree_const_iteratorIS8_PNS_11__tree_nodeIS8_SH_EElEERPNS_15__tree_end_nodeISJ_EESK_RKT_, symObjAddr: 0x1151C, symBinAddr: 0x100014E90, symSize: 0x304 }
  - { offset: 0x43709, size: 0x8, addend: 0x0, symName: __ZNSt3__14pairINS_15__tree_iteratorINS_12__value_typeINS_12basic_stringIcNS_11char_traitsIcEENS_9allocatorIcEEEES8_EEPNS_11__tree_nodeIS9_PvEElEEbEC1B8ne180100ISE_RbLi0EEEOT_OT0_, symObjAddr: 0x11820, symBinAddr: 0x100015194, symSize: 0x3C }
  - { offset: 0x43767, size: 0x8, addend: 0x0, symName: __ZNSt3__16__treeINS_12__value_typeINS_12basic_stringIcNS_11char_traitsIcEENS_9allocatorIcEEEES7_EENS_19__map_value_compareIS7_S8_NS_4lessIS7_EELb1EEENS5_IS8_EEE3endB8ne180100Ev, symObjAddr: 0x1185C, symBinAddr: 0x1000151D0, symSize: 0x34 }
  - { offset: 0x4378D, size: 0x8, addend: 0x0, symName: __ZNSt3__121__tree_const_iteratorINS_12__value_typeINS_12basic_stringIcNS_11char_traitsIcEENS_9allocatorIcEEEES7_EEPNS_11__tree_nodeIS8_PvEElEC1B8ne180100ENS_15__tree_iteratorIS8_SC_lEE, symObjAddr: 0x11890, symBinAddr: 0x100015204, symSize: 0x34 }
  - { offset: 0x437C7, size: 0x8, addend: 0x0, symName: __ZNSt3__16__treeINS_12__value_typeINS_12basic_stringIcNS_11char_traitsIcEENS_9allocatorIcEEEES7_EENS_19__map_value_compareIS7_S8_NS_4lessIS7_EELb1EEENS5_IS8_EEE5beginB8ne180100Ev, symObjAddr: 0x118C4, symBinAddr: 0x100015238, symSize: 0x34 }
  - { offset: 0x437ED, size: 0x8, addend: 0x0, symName: __ZNKSt3__119__map_value_compareINS_12basic_stringIcNS_11char_traitsIcEENS_9allocatorIcEEEENS_12__value_typeIS6_S6_EENS_4lessIS6_EELb1EEclB8ne180100ERKS8_RKS6_, symObjAddr: 0x118F8, symBinAddr: 0x10001526C, symSize: 0x48 }
  - { offset: 0x43833, size: 0x8, addend: 0x0, symName: __ZNSt3__121__tree_const_iteratorINS_12__value_typeINS_12basic_stringIcNS_11char_traitsIcEENS_9allocatorIcEEEES7_EEPNS_11__tree_nodeIS8_PvEElEmmB8ne180100Ev, symObjAddr: 0x11940, symBinAddr: 0x1000152B4, symSize: 0x38 }
  - { offset: 0x43859, size: 0x8, addend: 0x0, symName: __ZNSt3__16__treeINS_12__value_typeINS_12basic_stringIcNS_11char_traitsIcEENS_9allocatorIcEEEES7_EENS_19__map_value_compareIS7_S8_NS_4lessIS7_EELb1EEENS5_IS8_EEE12__find_equalIS7_EERPNS_16__tree_node_baseIPvEERPNS_15__tree_end_nodeISJ_EERKT_, symObjAddr: 0x11978, symBinAddr: 0x1000152EC, symSize: 0x184 }
  - { offset: 0x438CA, size: 0x8, addend: 0x0, symName: __ZNSt3__115__tree_iteratorINS_12__value_typeINS_12basic_stringIcNS_11char_traitsIcEENS_9allocatorIcEEEES7_EEPNS_11__tree_nodeIS8_PvEElEC1B8ne180100EPNS_15__tree_end_nodeIPNS_16__tree_node_baseISA_EEEE, symObjAddr: 0x11B38, symBinAddr: 0x1000154AC, symSize: 0x34 }
  - { offset: 0x43904, size: 0x8, addend: 0x0, symName: __ZNSt3__115__tree_iteratorINS_12__value_typeINS_12basic_stringIcNS_11char_traitsIcEENS_9allocatorIcEEEES7_EEPNS_11__tree_nodeIS8_PvEElEC2B8ne180100EPNS_15__tree_end_nodeIPNS_16__tree_node_baseISA_EEEE, symObjAddr: 0x11B6C, symBinAddr: 0x1000154E0, symSize: 0x20 }
  - { offset: 0x4393E, size: 0x8, addend: 0x0, symName: __ZNSt3__121__tree_const_iteratorINS_12__value_typeINS_12basic_stringIcNS_11char_traitsIcEENS_9allocatorIcEEEES7_EEPNS_11__tree_nodeIS8_PvEElEC2B8ne180100ENS_15__tree_iteratorIS8_SC_lEE, symObjAddr: 0x11B8C, symBinAddr: 0x100015500, symSize: 0x20 }
  - { offset: 0x43978, size: 0x8, addend: 0x0, symName: __ZNKSt3__16__treeINS_12__value_typeINS_12basic_stringIcNS_11char_traitsIcEENS_9allocatorIcEEEES7_EENS_19__map_value_compareIS7_S8_NS_4lessIS7_EELb1EEENS5_IS8_EEE10__root_ptrB8ne180100Ev, symObjAddr: 0x11C74, symBinAddr: 0x1000155E8, symSize: 0x24 }
  - { offset: 0x4399E, size: 0x8, addend: 0x0, symName: __ZNSt3__14pairINS_15__tree_iteratorINS_12__value_typeINS_12basic_stringIcNS_11char_traitsIcEENS_9allocatorIcEEEES8_EEPNS_11__tree_nodeIS9_PvEElEEbEC2B8ne180100ISE_RbLi0EEEOT_OT0_, symObjAddr: 0x11D74, symBinAddr: 0x1000156E8, symSize: 0x38 }
  - { offset: 0x439FC, size: 0x8, addend: 0x0, symName: __ZNSt3__114__map_iteratorINS_15__tree_iteratorINS_12__value_typeINS_12basic_stringIcNS_11char_traitsIcEENS_9allocatorIcEEEES8_EEPNS_11__tree_nodeIS9_PvEElEEEC2B8ne180100ESE_, symObjAddr: 0x11DAC, symBinAddr: 0x100015720, symSize: 0x20 }
  - { offset: 0x43A36, size: 0x8, addend: 0x0, symName: __ZNSt3__120__map_const_iteratorINS_21__tree_const_iteratorINS_12__value_typeINS_12basic_stringIcNS_11char_traitsIcEENS_9allocatorIcEEEES8_EEPNS_11__tree_nodeIS9_PvEElEEEC2B8ne180100ESE_, symObjAddr: 0x11DCC, symBinAddr: 0x100015740, symSize: 0x20 }
  - { offset: 0x43A70, size: 0x8, addend: 0x0, symName: __ZNSt3__16__treeINS_12__value_typeINS_12basic_stringIcNS_11char_traitsIcEENS_9allocatorIcEEEES7_EENS_19__map_value_compareIS7_S8_NS_4lessIS7_EELb1EEENS5_IS8_EEED2Ev, symObjAddr: 0x11DEC, symBinAddr: 0x100015760, symSize: 0x38 }
  - { offset: 0x43A9C, size: 0x8, addend: 0x0, symName: __ZNSt3__113unordered_mapINS_12basic_stringIcNS_11char_traitsIcEENS_9allocatorIcEEEENS_6vectorIS6_NS4_IS6_EEEENS_4hashIS6_EENS_8equal_toIS6_EENS4_INS_4pairIKS6_S9_EEEEEC2ERKSI_, symObjAddr: 0x11E24, symBinAddr: 0x100015798, symSize: 0xA0 }
  - { offset: 0x43AD8, size: 0x8, addend: 0x0, symName: __ZNSt3__112__hash_tableINS_17__hash_value_typeINS_12basic_stringIcNS_11char_traitsIcEENS_9allocatorIcEEEENS_6vectorIS7_NS5_IS7_EEEEEENS_22__unordered_map_hasherIS7_SB_NS_4hashIS7_EENS_8equal_toIS7_EELb1EEENS_21__unordered_map_equalIS7_SB_SG_SE_Lb1EEENS5_ISB_EEEC1ERKSL_, symObjAddr: 0x11EC4, symBinAddr: 0x100015838, symSize: 0x34 }
  - { offset: 0x43B14, size: 0x8, addend: 0x0, symName: __ZNSt3__112__hash_tableINS_17__hash_value_typeINS_12basic_stringIcNS_11char_traitsIcEENS_9allocatorIcEEEENS_6vectorIS7_NS5_IS7_EEEEEENS_22__unordered_map_hasherIS7_SB_NS_4hashIS7_EENS_8equal_toIS7_EELb1EEENS_21__unordered_map_equalIS7_SB_SG_SE_Lb1EEENS5_ISB_EEE15__rehash_uniqueB8ne180100Em, symObjAddr: 0x11EF8, symBinAddr: 0x10001586C, symSize: 0x2C }
  - { offset: 0x43B4A, size: 0x8, addend: 0x0, symName: __ZNKSt3__113unordered_mapINS_12basic_stringIcNS_11char_traitsIcEENS_9allocatorIcEEEENS_6vectorIS6_NS4_IS6_EEEENS_4hashIS6_EENS_8equal_toIS6_EENS4_INS_4pairIKS6_S9_EEEEE12bucket_countB8ne180100Ev, symObjAddr: 0x11F24, symBinAddr: 0x100015898, symSize: 0x24 }
  - { offset: 0x43B70, size: 0x8, addend: 0x0, symName: __ZNSt3__113unordered_mapINS_12basic_stringIcNS_11char_traitsIcEENS_9allocatorIcEEEENS_6vectorIS6_NS4_IS6_EEEENS_4hashIS6_EENS_8equal_toIS6_EENS4_INS_4pairIKS6_S9_EEEEE6insertINS_25__hash_map_const_iteratorINS_21__hash_const_iteratorIPNS_11__hash_nodeINS_17__hash_value_typeIS6_S9_EEPvEEEEEEEEvT_SU_, symObjAddr: 0x11F48, symBinAddr: 0x1000158BC, symSize: 0x70 }
  - { offset: 0x43BC1, size: 0x8, addend: 0x0, symName: __ZNKSt3__113unordered_mapINS_12basic_stringIcNS_11char_traitsIcEENS_9allocatorIcEEEENS_6vectorIS6_NS4_IS6_EEEENS_4hashIS6_EENS_8equal_toIS6_EENS4_INS_4pairIKS6_S9_EEEEE5beginB8ne180100Ev, symObjAddr: 0x11FB8, symBinAddr: 0x10001592C, symSize: 0x38 }
  - { offset: 0x43BE7, size: 0x8, addend: 0x0, symName: __ZNKSt3__113unordered_mapINS_12basic_stringIcNS_11char_traitsIcEENS_9allocatorIcEEEENS_6vectorIS6_NS4_IS6_EEEENS_4hashIS6_EENS_8equal_toIS6_EENS4_INS_4pairIKS6_S9_EEEEE3endB8ne180100Ev, symObjAddr: 0x11FF0, symBinAddr: 0x100015964, symSize: 0x38 }
  - { offset: 0x43C0D, size: 0x8, addend: 0x0, symName: __ZNSt3__112__hash_tableINS_17__hash_value_typeINS_12basic_stringIcNS_11char_traitsIcEENS_9allocatorIcEEEENS_6vectorIS7_NS5_IS7_EEEEEENS_22__unordered_map_hasherIS7_SB_NS_4hashIS7_EENS_8equal_toIS7_EELb1EEENS_21__unordered_map_equalIS7_SB_SG_SE_Lb1EEENS5_ISB_EEED1Ev, symObjAddr: 0x12028, symBinAddr: 0x10001599C, symSize: 0x2C }
  - { offset: 0x43C39, size: 0x8, addend: 0x0, symName: __ZNSt3__112__hash_tableINS_17__hash_value_typeINS_12basic_stringIcNS_11char_traitsIcEENS_9allocatorIcEEEENS_6vectorIS7_NS5_IS7_EEEEEENS_22__unordered_map_hasherIS7_SB_NS_4hashIS7_EENS_8equal_toIS7_EELb1EEENS_21__unordered_map_equalIS7_SB_SG_SE_Lb1EEENS5_ISB_EEEC2ERKSL_, symObjAddr: 0x12054, symBinAddr: 0x1000159C8, symSize: 0xEC }
  - { offset: 0x43C75, size: 0x8, addend: 0x0, symName: __ZNSt3__116allocator_traitsINS_9allocatorIPNS_16__hash_node_baseIPNS_11__hash_nodeINS_17__hash_value_typeINS_12basic_stringIcNS_11char_traitsIcEENS1_IcEEEENS_6vectorIS9_NS1_IS9_EEEEEEPvEEEEEEE37select_on_container_copy_constructionB8ne180100ISJ_vvEESJ_RKSJ_, symObjAddr: 0x12140, symBinAddr: 0x100015AB4, symSize: 0x10 }
  - { offset: 0x43CA5, size: 0x8, addend: 0x0, symName: __ZNKSt3__125__bucket_list_deallocatorINS_9allocatorIPNS_16__hash_node_baseIPNS_11__hash_nodeINS_17__hash_value_typeINS_12basic_stringIcNS_11char_traitsIcEENS1_IcEEEENS_6vectorIS9_NS1_IS9_EEEEEEPvEEEEEEE7__allocB8ne180100Ev, symObjAddr: 0x12150, symBinAddr: 0x100015AC4, symSize: 0x24 }
  - { offset: 0x43CCB, size: 0x8, addend: 0x0, symName: __ZNSt3__125__bucket_list_deallocatorINS_9allocatorIPNS_16__hash_node_baseIPNS_11__hash_nodeINS_17__hash_value_typeINS_12basic_stringIcNS_11char_traitsIcEENS1_IcEEEENS_6vectorIS9_NS1_IS9_EEEEEEPvEEEEEEEC1B8ne180100ERKSJ_m, symObjAddr: 0x12174, symBinAddr: 0x100015AE8, symSize: 0x3C }
  - { offset: 0x43D15, size: 0x8, addend: 0x0, symName: __ZNSt3__110unique_ptrIA_PNS_16__hash_node_baseIPNS_11__hash_nodeINS_17__hash_value_typeINS_12basic_stringIcNS_11char_traitsIcEENS_9allocatorIcEEEENS_6vectorIS9_NS7_IS9_EEEEEEPvEEEENS_25__bucket_list_deallocatorINS7_ISI_EEEEEC1B8ne180100ILb1EvEEDnNS_16__dependent_typeINS_27__unique_ptr_deleter_sfinaeISM_EEXT_EE20__good_rval_ref_typeE, symObjAddr: 0x121B0, symBinAddr: 0x100015B24, symSize: 0x3C }
  - { offset: 0x43D66, size: 0x8, addend: 0x0, symName: __ZNSt3__116allocator_traitsINS_9allocatorINS_11__hash_nodeINS_17__hash_value_typeINS_12basic_stringIcNS_11char_traitsIcEENS1_IcEEEENS_6vectorIS8_NS1_IS8_EEEEEEPvEEEEE37select_on_container_copy_constructionB8ne180100ISF_vvEESF_RKSF_, symObjAddr: 0x121EC, symBinAddr: 0x100015B60, symSize: 0x10 }
  - { offset: 0x43D96, size: 0x8, addend: 0x0, symName: __ZNKSt3__112__hash_tableINS_17__hash_value_typeINS_12basic_stringIcNS_11char_traitsIcEENS_9allocatorIcEEEENS_6vectorIS7_NS5_IS7_EEEEEENS_22__unordered_map_hasherIS7_SB_NS_4hashIS7_EENS_8equal_toIS7_EELb1EEENS_21__unordered_map_equalIS7_SB_SG_SE_Lb1EEENS5_ISB_EEE12__node_allocB8ne180100Ev, symObjAddr: 0x121FC, symBinAddr: 0x100015B70, symSize: 0x28 }
  - { offset: 0x43DC1, size: 0x8, addend: 0x0, symName: __ZNSt3__117__compressed_pairINS_16__hash_node_baseIPNS_11__hash_nodeINS_17__hash_value_typeINS_12basic_stringIcNS_11char_traitsIcEENS_9allocatorIcEEEENS_6vectorIS9_NS7_IS9_EEEEEEPvEEEENS7_ISF_EEEC1B8ne180100INS_18__default_init_tagESI_EEOT_OT0_, symObjAddr: 0x12224, symBinAddr: 0x100015B98, symSize: 0x3C }
  - { offset: 0x43E19, size: 0x8, addend: 0x0, symName: __ZNSt3__117__compressed_pairImNS_22__unordered_map_hasherINS_12basic_stringIcNS_11char_traitsIcEENS_9allocatorIcEEEENS_17__hash_value_typeIS7_NS_6vectorIS7_NS5_IS7_EEEEEENS_4hashIS7_EENS_8equal_toIS7_EELb1EEEEC1B8ne180100IiRKSH_EEOT_OT0_, symObjAddr: 0x12260, symBinAddr: 0x100015BD4, symSize: 0x3C }
  - { offset: 0x43E71, size: 0x8, addend: 0x0, symName: __ZNSt3__110unique_ptrIA_PNS_16__hash_node_baseIPNS_11__hash_nodeINS_17__hash_value_typeINS_12basic_stringIcNS_11char_traitsIcEENS_9allocatorIcEEEENS_6vectorIS9_NS7_IS9_EEEEEEPvEEEENS_25__bucket_list_deallocatorINS7_ISI_EEEEED1B8ne180100Ev, symObjAddr: 0x1229C, symBinAddr: 0x100015C10, symSize: 0x2C }
  - { offset: 0x43E9B, size: 0x8, addend: 0x0, symName: __ZNKSt3__117__compressed_pairImNS_9allocatorIPNS_16__hash_node_baseIPNS_11__hash_nodeINS_17__hash_value_typeINS_12basic_stringIcNS_11char_traitsIcEENS1_IcEEEENS_6vectorIS9_NS1_IS9_EEEEEEPvEEEEEEE6secondB8ne180100Ev, symObjAddr: 0x122C8, symBinAddr: 0x100015C3C, symSize: 0x24 }
  - { offset: 0x43EC1, size: 0x8, addend: 0x0, symName: __ZNKSt3__122__compressed_pair_elemINS_9allocatorIPNS_16__hash_node_baseIPNS_11__hash_nodeINS_17__hash_value_typeINS_12basic_stringIcNS_11char_traitsIcEENS1_IcEEEENS_6vectorIS9_NS1_IS9_EEEEEEPvEEEEEELi1ELb1EE5__getB8ne180100Ev, symObjAddr: 0x122EC, symBinAddr: 0x100015C60, symSize: 0x14 }
  - { offset: 0x43EE7, size: 0x8, addend: 0x0, symName: __ZNSt3__125__bucket_list_deallocatorINS_9allocatorIPNS_16__hash_node_baseIPNS_11__hash_nodeINS_17__hash_value_typeINS_12basic_stringIcNS_11char_traitsIcEENS1_IcEEEENS_6vectorIS9_NS1_IS9_EEEEEEPvEEEEEEEC2B8ne180100ERKSJ_m, symObjAddr: 0x12300, symBinAddr: 0x100015C74, symSize: 0x44 }
  - { offset: 0x43F31, size: 0x8, addend: 0x0, symName: __ZNSt3__117__compressed_pairImNS_9allocatorIPNS_16__hash_node_baseIPNS_11__hash_nodeINS_17__hash_value_typeINS_12basic_stringIcNS_11char_traitsIcEENS1_IcEEEENS_6vectorIS9_NS1_IS9_EEEEEEPvEEEEEEEC1B8ne180100IRmRKSJ_EEOT_OT0_, symObjAddr: 0x12344, symBinAddr: 0x100015CB8, symSize: 0x3C }
  - { offset: 0x43F89, size: 0x8, addend: 0x0, symName: __ZNSt3__117__compressed_pairImNS_9allocatorIPNS_16__hash_node_baseIPNS_11__hash_nodeINS_17__hash_value_typeINS_12basic_stringIcNS_11char_traitsIcEENS1_IcEEEENS_6vectorIS9_NS1_IS9_EEEEEEPvEEEEEEEC2B8ne180100IRmRKSJ_EEOT_OT0_, symObjAddr: 0x12380, symBinAddr: 0x100015CF4, symSize: 0x44 }
  - { offset: 0x43FE1, size: 0x8, addend: 0x0, symName: __ZNSt3__122__compressed_pair_elemImLi0ELb0EEC2B8ne180100IRmvEEOT_, symObjAddr: 0x123C4, symBinAddr: 0x100015D38, symSize: 0x24 }
  - { offset: 0x44023, size: 0x8, addend: 0x0, symName: __ZNSt3__122__compressed_pair_elemINS_9allocatorIPNS_16__hash_node_baseIPNS_11__hash_nodeINS_17__hash_value_typeINS_12basic_stringIcNS_11char_traitsIcEENS1_IcEEEENS_6vectorIS9_NS1_IS9_EEEEEEPvEEEEEELi1ELb1EEC2B8ne180100IRKSJ_vEEOT_, symObjAddr: 0x123E8, symBinAddr: 0x100015D5C, symSize: 0x18 }
  - { offset: 0x44065, size: 0x8, addend: 0x0, symName: __ZNSt3__110unique_ptrIA_PNS_16__hash_node_baseIPNS_11__hash_nodeINS_17__hash_value_typeINS_12basic_stringIcNS_11char_traitsIcEENS_9allocatorIcEEEENS_6vectorIS9_NS7_IS9_EEEEEEPvEEEENS_25__bucket_list_deallocatorINS7_ISI_EEEEEC2B8ne180100ILb1EvEEDnNS_16__dependent_typeINS_27__unique_ptr_deleter_sfinaeISM_EEXT_EE20__good_rval_ref_typeE, symObjAddr: 0x12400, symBinAddr: 0x100015D74, symSize: 0x48 }
  - { offset: 0x440B6, size: 0x8, addend: 0x0, symName: __ZNSt3__117__compressed_pairIPPNS_16__hash_node_baseIPNS_11__hash_nodeINS_17__hash_value_typeINS_12basic_stringIcNS_11char_traitsIcEENS_9allocatorIcEEEENS_6vectorIS9_NS7_IS9_EEEEEEPvEEEENS_25__bucket_list_deallocatorINS7_ISI_EEEEEC1B8ne180100IDnSM_EEOT_OT0_, symObjAddr: 0x12448, symBinAddr: 0x100015DBC, symSize: 0x3C }
  - { offset: 0x4410E, size: 0x8, addend: 0x0, symName: __ZNSt3__117__compressed_pairIPPNS_16__hash_node_baseIPNS_11__hash_nodeINS_17__hash_value_typeINS_12basic_stringIcNS_11char_traitsIcEENS_9allocatorIcEEEENS_6vectorIS9_NS7_IS9_EEEEEEPvEEEENS_25__bucket_list_deallocatorINS7_ISI_EEEEEC2B8ne180100IDnSM_EEOT_OT0_, symObjAddr: 0x12484, symBinAddr: 0x100015DF8, symSize: 0x48 }
  - { offset: 0x44166, size: 0x8, addend: 0x0, symName: __ZNSt3__122__compressed_pair_elemIPPNS_16__hash_node_baseIPNS_11__hash_nodeINS_17__hash_value_typeINS_12basic_stringIcNS_11char_traitsIcEENS_9allocatorIcEEEENS_6vectorIS9_NS7_IS9_EEEEEEPvEEEELi0ELb0EEC2B8ne180100IDnvEEOT_, symObjAddr: 0x124CC, symBinAddr: 0x100015E40, symSize: 0x1C }
  - { offset: 0x441A8, size: 0x8, addend: 0x0, symName: __ZNSt3__122__compressed_pair_elemINS_25__bucket_list_deallocatorINS_9allocatorIPNS_16__hash_node_baseIPNS_11__hash_nodeINS_17__hash_value_typeINS_12basic_stringIcNS_11char_traitsIcEENS2_IcEEEENS_6vectorISA_NS2_ISA_EEEEEEPvEEEEEEEELi1ELb0EEC2B8ne180100ISL_vEEOT_, symObjAddr: 0x124E8, symBinAddr: 0x100015E5C, symSize: 0x34 }
  - { offset: 0x441EA, size: 0x8, addend: 0x0, symName: __ZNSt3__125__bucket_list_deallocatorINS_9allocatorIPNS_16__hash_node_baseIPNS_11__hash_nodeINS_17__hash_value_typeINS_12basic_stringIcNS_11char_traitsIcEENS1_IcEEEENS_6vectorIS9_NS1_IS9_EEEEEEPvEEEEEEEC1B8ne180100EOSK_, symObjAddr: 0x1251C, symBinAddr: 0x100015E90, symSize: 0x34 }
  - { offset: 0x44224, size: 0x8, addend: 0x0, symName: __ZNSt3__125__bucket_list_deallocatorINS_9allocatorIPNS_16__hash_node_baseIPNS_11__hash_nodeINS_17__hash_value_typeINS_12basic_stringIcNS_11char_traitsIcEENS1_IcEEEENS_6vectorIS9_NS1_IS9_EEEEEEPvEEEEEEEC2B8ne180100EOSK_, symObjAddr: 0x12550, symBinAddr: 0x100015EC4, symSize: 0x48 }
  - { offset: 0x4425E, size: 0x8, addend: 0x0, symName: __ZNKSt3__117__compressed_pairINS_16__hash_node_baseIPNS_11__hash_nodeINS_17__hash_value_typeINS_12basic_stringIcNS_11char_traitsIcEENS_9allocatorIcEEEENS_6vectorIS9_NS7_IS9_EEEEEEPvEEEENS7_ISF_EEE6secondB8ne180100Ev, symObjAddr: 0x12598, symBinAddr: 0x100015F0C, symSize: 0x24 }
  - { offset: 0x44284, size: 0x8, addend: 0x0, symName: __ZNKSt3__122__compressed_pair_elemINS_9allocatorINS_11__hash_nodeINS_17__hash_value_typeINS_12basic_stringIcNS_11char_traitsIcEENS1_IcEEEENS_6vectorIS8_NS1_IS8_EEEEEEPvEEEELi1ELb1EE5__getB8ne180100Ev, symObjAddr: 0x125BC, symBinAddr: 0x100015F30, symSize: 0x14 }
  - { offset: 0x442AA, size: 0x8, addend: 0x0, symName: __ZNSt3__117__compressed_pairINS_16__hash_node_baseIPNS_11__hash_nodeINS_17__hash_value_typeINS_12basic_stringIcNS_11char_traitsIcEENS_9allocatorIcEEEENS_6vectorIS9_NS7_IS9_EEEEEEPvEEEENS7_ISF_EEEC2B8ne180100INS_18__default_init_tagESI_EEOT_OT0_, symObjAddr: 0x125D0, symBinAddr: 0x100015F44, symSize: 0x40 }
  - { offset: 0x44302, size: 0x8, addend: 0x0, symName: __ZNSt3__122__compressed_pair_elemINS_16__hash_node_baseIPNS_11__hash_nodeINS_17__hash_value_typeINS_12basic_stringIcNS_11char_traitsIcEENS_9allocatorIcEEEENS_6vectorIS9_NS7_IS9_EEEEEEPvEEEELi0ELb0EEC2B8ne180100ENS_18__default_init_tagE, symObjAddr: 0x12610, symBinAddr: 0x100015F84, symSize: 0x2C }
  - { offset: 0x44337, size: 0x8, addend: 0x0, symName: __ZNSt3__122__compressed_pair_elemINS_9allocatorINS_11__hash_nodeINS_17__hash_value_typeINS_12basic_stringIcNS_11char_traitsIcEENS1_IcEEEENS_6vectorIS8_NS1_IS8_EEEEEEPvEEEELi1ELb1EEC2B8ne180100ISF_vEEOT_, symObjAddr: 0x1263C, symBinAddr: 0x100015FB0, symSize: 0x18 }
  - { offset: 0x44379, size: 0x8, addend: 0x0, symName: __ZNSt3__116__hash_node_baseIPNS_11__hash_nodeINS_17__hash_value_typeINS_12basic_stringIcNS_11char_traitsIcEENS_9allocatorIcEEEENS_6vectorIS8_NS6_IS8_EEEEEEPvEEEC1B8ne180100Ev, symObjAddr: 0x12654, symBinAddr: 0x100015FC8, symSize: 0x2C }
  - { offset: 0x443A3, size: 0x8, addend: 0x0, symName: __ZNSt3__116__hash_node_baseIPNS_11__hash_nodeINS_17__hash_value_typeINS_12basic_stringIcNS_11char_traitsIcEENS_9allocatorIcEEEENS_6vectorIS8_NS6_IS8_EEEEEEPvEEEC2B8ne180100Ev, symObjAddr: 0x12680, symBinAddr: 0x100015FF4, symSize: 0x18 }
  - { offset: 0x443CD, size: 0x8, addend: 0x0, symName: __ZNSt3__117__compressed_pairImNS_22__unordered_map_hasherINS_12basic_stringIcNS_11char_traitsIcEENS_9allocatorIcEEEENS_17__hash_value_typeIS7_NS_6vectorIS7_NS5_IS7_EEEEEENS_4hashIS7_EENS_8equal_toIS7_EELb1EEEEC2B8ne180100IiRKSH_EEOT_OT0_, symObjAddr: 0x12698, symBinAddr: 0x10001600C, symSize: 0x44 }
  - { offset: 0x44425, size: 0x8, addend: 0x0, symName: __ZNSt3__122__compressed_pair_elemINS_22__unordered_map_hasherINS_12basic_stringIcNS_11char_traitsIcEENS_9allocatorIcEEEENS_17__hash_value_typeIS7_NS_6vectorIS7_NS5_IS7_EEEEEENS_4hashIS7_EENS_8equal_toIS7_EELb1EEELi1ELb1EEC2B8ne180100IRKSH_vEEOT_, symObjAddr: 0x126DC, symBinAddr: 0x100016050, symSize: 0x18 }
  - { offset: 0x44467, size: 0x8, addend: 0x0, symName: __ZNSt3__110unique_ptrIA_PNS_16__hash_node_baseIPNS_11__hash_nodeINS_17__hash_value_typeINS_12basic_stringIcNS_11char_traitsIcEENS_9allocatorIcEEEENS_6vectorIS9_NS7_IS9_EEEEEEPvEEEENS_25__bucket_list_deallocatorINS7_ISI_EEEEED2B8ne180100Ev, symObjAddr: 0x126F4, symBinAddr: 0x100016068, symSize: 0x30 }
  - { offset: 0x44491, size: 0x8, addend: 0x0, symName: __ZNSt3__110unique_ptrIA_PNS_16__hash_node_baseIPNS_11__hash_nodeINS_17__hash_value_typeINS_12basic_stringIcNS_11char_traitsIcEENS_9allocatorIcEEEENS_6vectorIS9_NS7_IS9_EEEEEEPvEEEENS_25__bucket_list_deallocatorINS7_ISI_EEEEE5resetB8ne180100EDn, symObjAddr: 0x12724, symBinAddr: 0x100016098, symSize: 0x6C }
  - { offset: 0x444D3, size: 0x8, addend: 0x0, symName: __ZNSt3__112__hash_tableINS_17__hash_value_typeINS_12basic_stringIcNS_11char_traitsIcEENS_9allocatorIcEEEENS_6vectorIS7_NS5_IS7_EEEEEENS_22__unordered_map_hasherIS7_SB_NS_4hashIS7_EENS_8equal_toIS7_EELb1EEENS_21__unordered_map_equalIS7_SB_SG_SE_Lb1EEENS5_ISB_EEE8__rehashILb1EEEvm, symObjAddr: 0x12790, symBinAddr: 0x100016104, symSize: 0x1A8 }
  - { offset: 0x44525, size: 0x8, addend: 0x0, symName: __ZNSt3__112__hash_tableINS_17__hash_value_typeINS_12basic_stringIcNS_11char_traitsIcEENS_9allocatorIcEEEENS_6vectorIS7_NS5_IS7_EEEEEENS_22__unordered_map_hasherIS7_SB_NS_4hashIS7_EENS_8equal_toIS7_EELb1EEENS_21__unordered_map_equalIS7_SB_SG_SE_Lb1EEENS5_ISB_EEE11__do_rehashILb1EEEvm, symObjAddr: 0x12938, symBinAddr: 0x1000162AC, symSize: 0x288 }
  - { offset: 0x44614, size: 0x8, addend: 0x0, symName: __ZNSt3__112__hash_tableINS_17__hash_value_typeINS_12basic_stringIcNS_11char_traitsIcEENS_9allocatorIcEEEENS_6vectorIS7_NS5_IS7_EEEEEENS_22__unordered_map_hasherIS7_SB_NS_4hashIS7_EENS_8equal_toIS7_EELb1EEENS_21__unordered_map_equalIS7_SB_SG_SE_Lb1EEENS5_ISB_EEE15__insert_uniqueB8ne180100ERKNS_4pairIKS7_SA_EE, symObjAddr: 0x12BF0, symBinAddr: 0x100016564, symSize: 0x50 }
  - { offset: 0x4464A, size: 0x8, addend: 0x0, symName: __ZNKSt3__125__hash_map_const_iteratorINS_21__hash_const_iteratorIPNS_11__hash_nodeINS_17__hash_value_typeINS_12basic_stringIcNS_11char_traitsIcEENS_9allocatorIcEEEENS_6vectorIS9_NS7_IS9_EEEEEEPvEEEEEdeB8ne180100Ev, symObjAddr: 0x12C40, symBinAddr: 0x1000165B4, symSize: 0x28 }
  - { offset: 0x44670, size: 0x8, addend: 0x0, symName: __ZNSt3__125__hash_map_const_iteratorINS_21__hash_const_iteratorIPNS_11__hash_nodeINS_17__hash_value_typeINS_12basic_stringIcNS_11char_traitsIcEENS_9allocatorIcEEEENS_6vectorIS9_NS7_IS9_EEEEEEPvEEEEEppB8ne180100Ev, symObjAddr: 0x12C68, symBinAddr: 0x1000165DC, symSize: 0x2C }
  - { offset: 0x44696, size: 0x8, addend: 0x0, symName: __ZNSt3__112__hash_tableINS_17__hash_value_typeINS_12basic_stringIcNS_11char_traitsIcEENS_9allocatorIcEEEENS_6vectorIS7_NS5_IS7_EEEEEENS_22__unordered_map_hasherIS7_SB_NS_4hashIS7_EENS_8equal_toIS7_EELb1EEENS_21__unordered_map_equalIS7_SB_SG_SE_Lb1EEENS5_ISB_EEE25__emplace_unique_key_argsIS7_JRKNS_4pairIKS7_SA_EEEEENSN_INS_15__hash_iteratorIPNS_11__hash_nodeISB_PvEEEEbEERKT_DpOT0_, symObjAddr: 0x12C94, symBinAddr: 0x100016608, symSize: 0x4A0 }
  - { offset: 0x44780, size: 0x8, addend: 0x0, symName: __ZNSt3__122__hash_key_value_typesINS_17__hash_value_typeINS_12basic_stringIcNS_11char_traitsIcEENS_9allocatorIcEEEENS_6vectorIS7_NS5_IS7_EEEEEEE9__get_keyB8ne180100ERKNS_4pairIKS7_SA_EE, symObjAddr: 0x13134, symBinAddr: 0x100016AA8, symSize: 0x14 }
  - { offset: 0x447A3, size: 0x8, addend: 0x0, symName: __ZNKSt3__122__unordered_map_hasherINS_12basic_stringIcNS_11char_traitsIcEENS_9allocatorIcEEEENS_17__hash_value_typeIS6_NS_6vectorIS6_NS4_IS6_EEEEEENS_4hashIS6_EENS_8equal_toIS6_EELb1EEclB8ne180100ERKS6_, symObjAddr: 0x13148, symBinAddr: 0x100016ABC, symSize: 0x2C }
  - { offset: 0x447D9, size: 0x8, addend: 0x0, symName: __ZNKSt3__121__unordered_map_equalINS_12basic_stringIcNS_11char_traitsIcEENS_9allocatorIcEEEENS_17__hash_value_typeIS6_NS_6vectorIS6_NS4_IS6_EEEEEENS_8equal_toIS6_EENS_4hashIS6_EELb1EEclB8ne180100ERKSB_RKS6_, symObjAddr: 0x13174, symBinAddr: 0x100016AE8, symSize: 0x48 }
  - { offset: 0x4481F, size: 0x8, addend: 0x0, symName: __ZNSt3__112__hash_tableINS_17__hash_value_typeINS_12basic_stringIcNS_11char_traitsIcEENS_9allocatorIcEEEENS_6vectorIS7_NS5_IS7_EEEEEENS_22__unordered_map_hasherIS7_SB_NS_4hashIS7_EENS_8equal_toIS7_EELb1EEENS_21__unordered_map_equalIS7_SB_SG_SE_Lb1EEENS5_ISB_EEE21__construct_node_hashIRKNS_4pairIKS7_SA_EEJEEENS_10unique_ptrINS_11__hash_nodeISB_PvEENS_22__hash_node_destructorINS5_ISV_EEEEEEmOT_DpOT0_, symObjAddr: 0x131BC, symBinAddr: 0x100016B30, symSize: 0x130 }
  - { offset: 0x4489B, size: 0x8, addend: 0x0, symName: __ZNSt3__14pairINS_15__hash_iteratorIPNS_11__hash_nodeINS_17__hash_value_typeINS_12basic_stringIcNS_11char_traitsIcEENS_9allocatorIcEEEENS_6vectorIS9_NS7_IS9_EEEEEEPvEEEEbEC1B8ne180100ISH_RbLi0EEEOT_OT0_, symObjAddr: 0x132EC, symBinAddr: 0x100016C60, symSize: 0x3C }
  - { offset: 0x448F9, size: 0x8, addend: 0x0, symName: __ZNSt3__14pairINS_15__hash_iteratorIPNS_11__hash_nodeINS_17__hash_value_typeINS_12basic_stringIcNS_11char_traitsIcEENS_9allocatorIcEEEENS_6vectorIS9_NS7_IS9_EEEEEEPvEEEEbEC2B8ne180100ISH_RbLi0EEEOT_OT0_, symObjAddr: 0x13368, symBinAddr: 0x100016CDC, symSize: 0x38 }
  - { offset: 0x44957, size: 0x8, addend: 0x0, symName: __ZNKSt3__121__hash_const_iteratorIPNS_11__hash_nodeINS_17__hash_value_typeINS_12basic_stringIcNS_11char_traitsIcEENS_9allocatorIcEEEENS_6vectorIS8_NS6_IS8_EEEEEEPvEEEptB8ne180100Ev, symObjAddr: 0x133A0, symBinAddr: 0x100016D14, symSize: 0x30 }
  - { offset: 0x4497D, size: 0x8, addend: 0x0, symName: __ZNSt3__114pointer_traitsIPKNS_17__hash_value_typeINS_12basic_stringIcNS_11char_traitsIcEENS_9allocatorIcEEEENS_6vectorIS7_NS5_IS7_EEEEEEE10pointer_toB8ne180100ERSC_, symObjAddr: 0x133D0, symBinAddr: 0x100016D44, symSize: 0x14 }
  - { offset: 0x449A0, size: 0x8, addend: 0x0, symName: __ZNSt3__125__hash_map_const_iteratorINS_21__hash_const_iteratorIPNS_11__hash_nodeINS_17__hash_value_typeINS_12basic_stringIcNS_11char_traitsIcEENS_9allocatorIcEEEENS_6vectorIS9_NS7_IS9_EEEEEEPvEEEEEC1B8ne180100ESH_, symObjAddr: 0x133E4, symBinAddr: 0x100016D58, symSize: 0x34 }
  - { offset: 0x449DA, size: 0x8, addend: 0x0, symName: __ZNSt3__125__hash_map_const_iteratorINS_21__hash_const_iteratorIPNS_11__hash_nodeINS_17__hash_value_typeINS_12basic_stringIcNS_11char_traitsIcEENS_9allocatorIcEEEENS_6vectorIS9_NS7_IS9_EEEEEEPvEEEEEC2B8ne180100ESH_, symObjAddr: 0x13418, symBinAddr: 0x100016D8C, symSize: 0x20 }
  - { offset: 0x44A14, size: 0x8, addend: 0x0, symName: __ZNSt3__112__hash_tableINS_17__hash_value_typeINS_12basic_stringIcNS_11char_traitsIcEENS_9allocatorIcEEEENS_6vectorIS7_NS5_IS7_EEEEEENS_22__unordered_map_hasherIS7_SB_NS_4hashIS7_EENS_8equal_toIS7_EELb1EEENS_21__unordered_map_equalIS7_SB_SG_SE_Lb1EEENS5_ISB_EEED2Ev, symObjAddr: 0x13438, symBinAddr: 0x100016DAC, symSize: 0x48 }
  - { offset: 0x44A40, size: 0x8, addend: 0x0, symName: __ZNSt3__113unordered_mapINS_12basic_stringIcNS_11char_traitsIcEENS_9allocatorIcEEEEbNS_4hashIS6_EENS_8equal_toIS6_EENS4_INS_4pairIKS6_bEEEEEC2ERKSF_, symObjAddr: 0x13480, symBinAddr: 0x100016DF4, symSize: 0xA0 }
  - { offset: 0x44A7C, size: 0x8, addend: 0x0, symName: __ZNSt3__112__hash_tableINS_17__hash_value_typeINS_12basic_stringIcNS_11char_traitsIcEENS_9allocatorIcEEEEbEENS_22__unordered_map_hasherIS7_S8_NS_4hashIS7_EENS_8equal_toIS7_EELb1EEENS_21__unordered_map_equalIS7_S8_SD_SB_Lb1EEENS5_IS8_EEEC1ERKSI_, symObjAddr: 0x13520, symBinAddr: 0x100016E94, symSize: 0x34 }
  - { offset: 0x44AB8, size: 0x8, addend: 0x0, symName: __ZNSt3__112__hash_tableINS_17__hash_value_typeINS_12basic_stringIcNS_11char_traitsIcEENS_9allocatorIcEEEEbEENS_22__unordered_map_hasherIS7_S8_NS_4hashIS7_EENS_8equal_toIS7_EELb1EEENS_21__unordered_map_equalIS7_S8_SD_SB_Lb1EEENS5_IS8_EEE15__rehash_uniqueB8ne180100Em, symObjAddr: 0x13554, symBinAddr: 0x100016EC8, symSize: 0x2C }
  - { offset: 0x44AEE, size: 0x8, addend: 0x0, symName: __ZNKSt3__113unordered_mapINS_12basic_stringIcNS_11char_traitsIcEENS_9allocatorIcEEEEbNS_4hashIS6_EENS_8equal_toIS6_EENS4_INS_4pairIKS6_bEEEEE12bucket_countB8ne180100Ev, symObjAddr: 0x13580, symBinAddr: 0x100016EF4, symSize: 0x24 }
  - { offset: 0x44B14, size: 0x8, addend: 0x0, symName: __ZNSt3__113unordered_mapINS_12basic_stringIcNS_11char_traitsIcEENS_9allocatorIcEEEEbNS_4hashIS6_EENS_8equal_toIS6_EENS4_INS_4pairIKS6_bEEEEE6insertINS_25__hash_map_const_iteratorINS_21__hash_const_iteratorIPNS_11__hash_nodeINS_17__hash_value_typeIS6_bEEPvEEEEEEEEvT_SR_, symObjAddr: 0x135A4, symBinAddr: 0x100016F18, symSize: 0x70 }
  - { offset: 0x44B65, size: 0x8, addend: 0x0, symName: __ZNKSt3__113unordered_mapINS_12basic_stringIcNS_11char_traitsIcEENS_9allocatorIcEEEEbNS_4hashIS6_EENS_8equal_toIS6_EENS4_INS_4pairIKS6_bEEEEE5beginB8ne180100Ev, symObjAddr: 0x13614, symBinAddr: 0x100016F88, symSize: 0x38 }
  - { offset: 0x44B8B, size: 0x8, addend: 0x0, symName: __ZNKSt3__113unordered_mapINS_12basic_stringIcNS_11char_traitsIcEENS_9allocatorIcEEEEbNS_4hashIS6_EENS_8equal_toIS6_EENS4_INS_4pairIKS6_bEEEEE3endB8ne180100Ev, symObjAddr: 0x1364C, symBinAddr: 0x100016FC0, symSize: 0x38 }
  - { offset: 0x44BB1, size: 0x8, addend: 0x0, symName: __ZNSt3__112__hash_tableINS_17__hash_value_typeINS_12basic_stringIcNS_11char_traitsIcEENS_9allocatorIcEEEEbEENS_22__unordered_map_hasherIS7_S8_NS_4hashIS7_EENS_8equal_toIS7_EELb1EEENS_21__unordered_map_equalIS7_S8_SD_SB_Lb1EEENS5_IS8_EEED1Ev, symObjAddr: 0x13684, symBinAddr: 0x100016FF8, symSize: 0x2C }
  - { offset: 0x44BDD, size: 0x8, addend: 0x0, symName: __ZNSt3__112__hash_tableINS_17__hash_value_typeINS_12basic_stringIcNS_11char_traitsIcEENS_9allocatorIcEEEEbEENS_22__unordered_map_hasherIS7_S8_NS_4hashIS7_EENS_8equal_toIS7_EELb1EEENS_21__unordered_map_equalIS7_S8_SD_SB_Lb1EEENS5_IS8_EEEC2ERKSI_, symObjAddr: 0x136B0, symBinAddr: 0x100017024, symSize: 0xEC }
  - { offset: 0x44C19, size: 0x8, addend: 0x0, symName: __ZNSt3__116allocator_traitsINS_9allocatorIPNS_16__hash_node_baseIPNS_11__hash_nodeINS_17__hash_value_typeINS_12basic_stringIcNS_11char_traitsIcEENS1_IcEEEEbEEPvEEEEEEE37select_on_container_copy_constructionB8ne180100ISG_vvEESG_RKSG_, symObjAddr: 0x1379C, symBinAddr: 0x100017110, symSize: 0x10 }
  - { offset: 0x44C49, size: 0x8, addend: 0x0, symName: __ZNKSt3__125__bucket_list_deallocatorINS_9allocatorIPNS_16__hash_node_baseIPNS_11__hash_nodeINS_17__hash_value_typeINS_12basic_stringIcNS_11char_traitsIcEENS1_IcEEEEbEEPvEEEEEEE7__allocB8ne180100Ev, symObjAddr: 0x137AC, symBinAddr: 0x100017120, symSize: 0x24 }
  - { offset: 0x44C6F, size: 0x8, addend: 0x0, symName: __ZNSt3__125__bucket_list_deallocatorINS_9allocatorIPNS_16__hash_node_baseIPNS_11__hash_nodeINS_17__hash_value_typeINS_12basic_stringIcNS_11char_traitsIcEENS1_IcEEEEbEEPvEEEEEEEC1B8ne180100ERKSG_m, symObjAddr: 0x137D0, symBinAddr: 0x100017144, symSize: 0x3C }
  - { offset: 0x44CB9, size: 0x8, addend: 0x0, symName: __ZNSt3__110unique_ptrIA_PNS_16__hash_node_baseIPNS_11__hash_nodeINS_17__hash_value_typeINS_12basic_stringIcNS_11char_traitsIcEENS_9allocatorIcEEEEbEEPvEEEENS_25__bucket_list_deallocatorINS7_ISF_EEEEEC1B8ne180100ILb1EvEEDnNS_16__dependent_typeINS_27__unique_ptr_deleter_sfinaeISJ_EEXT_EE20__good_rval_ref_typeE, symObjAddr: 0x1380C, symBinAddr: 0x100017180, symSize: 0x3C }
  - { offset: 0x44D0A, size: 0x8, addend: 0x0, symName: __ZNSt3__116allocator_traitsINS_9allocatorINS_11__hash_nodeINS_17__hash_value_typeINS_12basic_stringIcNS_11char_traitsIcEENS1_IcEEEEbEEPvEEEEE37select_on_container_copy_constructionB8ne180100ISC_vvEESC_RKSC_, symObjAddr: 0x13848, symBinAddr: 0x1000171BC, symSize: 0x10 }
  - { offset: 0x44D3A, size: 0x8, addend: 0x0, symName: __ZNKSt3__112__hash_tableINS_17__hash_value_typeINS_12basic_stringIcNS_11char_traitsIcEENS_9allocatorIcEEEEbEENS_22__unordered_map_hasherIS7_S8_NS_4hashIS7_EENS_8equal_toIS7_EELb1EEENS_21__unordered_map_equalIS7_S8_SD_SB_Lb1EEENS5_IS8_EEE12__node_allocB8ne180100Ev, symObjAddr: 0x13858, symBinAddr: 0x1000171CC, symSize: 0x28 }
  - { offset: 0x44D65, size: 0x8, addend: 0x0, symName: __ZNSt3__117__compressed_pairINS_16__hash_node_baseIPNS_11__hash_nodeINS_17__hash_value_typeINS_12basic_stringIcNS_11char_traitsIcEENS_9allocatorIcEEEEbEEPvEEEENS7_ISC_EEEC1B8ne180100INS_18__default_init_tagESF_EEOT_OT0_, symObjAddr: 0x13880, symBinAddr: 0x1000171F4, symSize: 0x3C }
  - { offset: 0x44DBD, size: 0x8, addend: 0x0, symName: __ZNSt3__117__compressed_pairImNS_22__unordered_map_hasherINS_12basic_stringIcNS_11char_traitsIcEENS_9allocatorIcEEEENS_17__hash_value_typeIS7_bEENS_4hashIS7_EENS_8equal_toIS7_EELb1EEEEC1B8ne180100IiRKSE_EEOT_OT0_, symObjAddr: 0x138BC, symBinAddr: 0x100017230, symSize: 0x3C }
  - { offset: 0x44E15, size: 0x8, addend: 0x0, symName: __ZNSt3__110unique_ptrIA_PNS_16__hash_node_baseIPNS_11__hash_nodeINS_17__hash_value_typeINS_12basic_stringIcNS_11char_traitsIcEENS_9allocatorIcEEEEbEEPvEEEENS_25__bucket_list_deallocatorINS7_ISF_EEEEED1B8ne180100Ev, symObjAddr: 0x138F8, symBinAddr: 0x10001726C, symSize: 0x2C }
  - { offset: 0x44E3F, size: 0x8, addend: 0x0, symName: __ZNKSt3__117__compressed_pairImNS_9allocatorIPNS_16__hash_node_baseIPNS_11__hash_nodeINS_17__hash_value_typeINS_12basic_stringIcNS_11char_traitsIcEENS1_IcEEEEbEEPvEEEEEEE6secondB8ne180100Ev, symObjAddr: 0x13924, symBinAddr: 0x100017298, symSize: 0x24 }
  - { offset: 0x44E65, size: 0x8, addend: 0x0, symName: __ZNKSt3__122__compressed_pair_elemINS_9allocatorIPNS_16__hash_node_baseIPNS_11__hash_nodeINS_17__hash_value_typeINS_12basic_stringIcNS_11char_traitsIcEENS1_IcEEEEbEEPvEEEEEELi1ELb1EE5__getB8ne180100Ev, symObjAddr: 0x13948, symBinAddr: 0x1000172BC, symSize: 0x14 }
  - { offset: 0x44E8B, size: 0x8, addend: 0x0, symName: __ZNSt3__125__bucket_list_deallocatorINS_9allocatorIPNS_16__hash_node_baseIPNS_11__hash_nodeINS_17__hash_value_typeINS_12basic_stringIcNS_11char_traitsIcEENS1_IcEEEEbEEPvEEEEEEEC2B8ne180100ERKSG_m, symObjAddr: 0x1395C, symBinAddr: 0x1000172D0, symSize: 0x44 }
  - { offset: 0x44ED5, size: 0x8, addend: 0x0, symName: __ZNSt3__117__compressed_pairImNS_9allocatorIPNS_16__hash_node_baseIPNS_11__hash_nodeINS_17__hash_value_typeINS_12basic_stringIcNS_11char_traitsIcEENS1_IcEEEEbEEPvEEEEEEEC1B8ne180100IRmRKSG_EEOT_OT0_, symObjAddr: 0x139A0, symBinAddr: 0x100017314, symSize: 0x3C }
  - { offset: 0x44F2D, size: 0x8, addend: 0x0, symName: __ZNSt3__117__compressed_pairImNS_9allocatorIPNS_16__hash_node_baseIPNS_11__hash_nodeINS_17__hash_value_typeINS_12basic_stringIcNS_11char_traitsIcEENS1_IcEEEEbEEPvEEEEEEEC2B8ne180100IRmRKSG_EEOT_OT0_, symObjAddr: 0x139DC, symBinAddr: 0x100017350, symSize: 0x44 }
  - { offset: 0x44F85, size: 0x8, addend: 0x0, symName: __ZNSt3__122__compressed_pair_elemINS_9allocatorIPNS_16__hash_node_baseIPNS_11__hash_nodeINS_17__hash_value_typeINS_12basic_stringIcNS_11char_traitsIcEENS1_IcEEEEbEEPvEEEEEELi1ELb1EEC2B8ne180100IRKSG_vEEOT_, symObjAddr: 0x13A20, symBinAddr: 0x100017394, symSize: 0x18 }
  - { offset: 0x44FC7, size: 0x8, addend: 0x0, symName: __ZNSt3__110unique_ptrIA_PNS_16__hash_node_baseIPNS_11__hash_nodeINS_17__hash_value_typeINS_12basic_stringIcNS_11char_traitsIcEENS_9allocatorIcEEEEbEEPvEEEENS_25__bucket_list_deallocatorINS7_ISF_EEEEEC2B8ne180100ILb1EvEEDnNS_16__dependent_typeINS_27__unique_ptr_deleter_sfinaeISJ_EEXT_EE20__good_rval_ref_typeE, symObjAddr: 0x13A38, symBinAddr: 0x1000173AC, symSize: 0x48 }
  - { offset: 0x45018, size: 0x8, addend: 0x0, symName: __ZNSt3__117__compressed_pairIPPNS_16__hash_node_baseIPNS_11__hash_nodeINS_17__hash_value_typeINS_12basic_stringIcNS_11char_traitsIcEENS_9allocatorIcEEEEbEEPvEEEENS_25__bucket_list_deallocatorINS7_ISF_EEEEEC1B8ne180100IDnSJ_EEOT_OT0_, symObjAddr: 0x13A80, symBinAddr: 0x1000173F4, symSize: 0x3C }
  - { offset: 0x45070, size: 0x8, addend: 0x0, symName: __ZNSt3__117__compressed_pairIPPNS_16__hash_node_baseIPNS_11__hash_nodeINS_17__hash_value_typeINS_12basic_stringIcNS_11char_traitsIcEENS_9allocatorIcEEEEbEEPvEEEENS_25__bucket_list_deallocatorINS7_ISF_EEEEEC2B8ne180100IDnSJ_EEOT_OT0_, symObjAddr: 0x13ABC, symBinAddr: 0x100017430, symSize: 0x48 }
  - { offset: 0x450C8, size: 0x8, addend: 0x0, symName: __ZNSt3__122__compressed_pair_elemIPPNS_16__hash_node_baseIPNS_11__hash_nodeINS_17__hash_value_typeINS_12basic_stringIcNS_11char_traitsIcEENS_9allocatorIcEEEEbEEPvEEEELi0ELb0EEC2B8ne180100IDnvEEOT_, symObjAddr: 0x13B04, symBinAddr: 0x100017478, symSize: 0x1C }
  - { offset: 0x4510A, size: 0x8, addend: 0x0, symName: __ZNSt3__122__compressed_pair_elemINS_25__bucket_list_deallocatorINS_9allocatorIPNS_16__hash_node_baseIPNS_11__hash_nodeINS_17__hash_value_typeINS_12basic_stringIcNS_11char_traitsIcEENS2_IcEEEEbEEPvEEEEEEEELi1ELb0EEC2B8ne180100ISI_vEEOT_, symObjAddr: 0x13B20, symBinAddr: 0x100017494, symSize: 0x34 }
  - { offset: 0x4514C, size: 0x8, addend: 0x0, symName: __ZNSt3__125__bucket_list_deallocatorINS_9allocatorIPNS_16__hash_node_baseIPNS_11__hash_nodeINS_17__hash_value_typeINS_12basic_stringIcNS_11char_traitsIcEENS1_IcEEEEbEEPvEEEEEEEC1B8ne180100EOSH_, symObjAddr: 0x13B54, symBinAddr: 0x1000174C8, symSize: 0x34 }
  - { offset: 0x45186, size: 0x8, addend: 0x0, symName: __ZNSt3__125__bucket_list_deallocatorINS_9allocatorIPNS_16__hash_node_baseIPNS_11__hash_nodeINS_17__hash_value_typeINS_12basic_stringIcNS_11char_traitsIcEENS1_IcEEEEbEEPvEEEEEEEC2B8ne180100EOSH_, symObjAddr: 0x13B88, symBinAddr: 0x1000174FC, symSize: 0x48 }
  - { offset: 0x451C0, size: 0x8, addend: 0x0, symName: __ZNKSt3__117__compressed_pairINS_16__hash_node_baseIPNS_11__hash_nodeINS_17__hash_value_typeINS_12basic_stringIcNS_11char_traitsIcEENS_9allocatorIcEEEEbEEPvEEEENS7_ISC_EEE6secondB8ne180100Ev, symObjAddr: 0x13BD0, symBinAddr: 0x100017544, symSize: 0x24 }
  - { offset: 0x451E6, size: 0x8, addend: 0x0, symName: __ZNKSt3__122__compressed_pair_elemINS_9allocatorINS_11__hash_nodeINS_17__hash_value_typeINS_12basic_stringIcNS_11char_traitsIcEENS1_IcEEEEbEEPvEEEELi1ELb1EE5__getB8ne180100Ev, symObjAddr: 0x13BF4, symBinAddr: 0x100017568, symSize: 0x14 }
  - { offset: 0x4520C, size: 0x8, addend: 0x0, symName: __ZNSt3__117__compressed_pairINS_16__hash_node_baseIPNS_11__hash_nodeINS_17__hash_value_typeINS_12basic_stringIcNS_11char_traitsIcEENS_9allocatorIcEEEEbEEPvEEEENS7_ISC_EEEC2B8ne180100INS_18__default_init_tagESF_EEOT_OT0_, symObjAddr: 0x13C08, symBinAddr: 0x10001757C, symSize: 0x40 }
  - { offset: 0x45264, size: 0x8, addend: 0x0, symName: __ZNSt3__122__compressed_pair_elemINS_16__hash_node_baseIPNS_11__hash_nodeINS_17__hash_value_typeINS_12basic_stringIcNS_11char_traitsIcEENS_9allocatorIcEEEEbEEPvEEEELi0ELb0EEC2B8ne180100ENS_18__default_init_tagE, symObjAddr: 0x13C48, symBinAddr: 0x1000175BC, symSize: 0x2C }
  - { offset: 0x45299, size: 0x8, addend: 0x0, symName: __ZNSt3__122__compressed_pair_elemINS_9allocatorINS_11__hash_nodeINS_17__hash_value_typeINS_12basic_stringIcNS_11char_traitsIcEENS1_IcEEEEbEEPvEEEELi1ELb1EEC2B8ne180100ISC_vEEOT_, symObjAddr: 0x13C74, symBinAddr: 0x1000175E8, symSize: 0x18 }
  - { offset: 0x452DB, size: 0x8, addend: 0x0, symName: __ZNSt3__116__hash_node_baseIPNS_11__hash_nodeINS_17__hash_value_typeINS_12basic_stringIcNS_11char_traitsIcEENS_9allocatorIcEEEEbEEPvEEEC1B8ne180100Ev, symObjAddr: 0x13C8C, symBinAddr: 0x100017600, symSize: 0x2C }
  - { offset: 0x45305, size: 0x8, addend: 0x0, symName: __ZNSt3__116__hash_node_baseIPNS_11__hash_nodeINS_17__hash_value_typeINS_12basic_stringIcNS_11char_traitsIcEENS_9allocatorIcEEEEbEEPvEEEC2B8ne180100Ev, symObjAddr: 0x13CB8, symBinAddr: 0x10001762C, symSize: 0x18 }
  - { offset: 0x4532F, size: 0x8, addend: 0x0, symName: __ZNSt3__117__compressed_pairImNS_22__unordered_map_hasherINS_12basic_stringIcNS_11char_traitsIcEENS_9allocatorIcEEEENS_17__hash_value_typeIS7_bEENS_4hashIS7_EENS_8equal_toIS7_EELb1EEEEC2B8ne180100IiRKSE_EEOT_OT0_, symObjAddr: 0x13CD0, symBinAddr: 0x100017644, symSize: 0x44 }
  - { offset: 0x45387, size: 0x8, addend: 0x0, symName: __ZNSt3__122__compressed_pair_elemINS_22__unordered_map_hasherINS_12basic_stringIcNS_11char_traitsIcEENS_9allocatorIcEEEENS_17__hash_value_typeIS7_bEENS_4hashIS7_EENS_8equal_toIS7_EELb1EEELi1ELb1EEC2B8ne180100IRKSE_vEEOT_, symObjAddr: 0x13D14, symBinAddr: 0x100017688, symSize: 0x18 }
  - { offset: 0x453C9, size: 0x8, addend: 0x0, symName: __ZNSt3__110unique_ptrIA_PNS_16__hash_node_baseIPNS_11__hash_nodeINS_17__hash_value_typeINS_12basic_stringIcNS_11char_traitsIcEENS_9allocatorIcEEEEbEEPvEEEENS_25__bucket_list_deallocatorINS7_ISF_EEEEED2B8ne180100Ev, symObjAddr: 0x13D2C, symBinAddr: 0x1000176A0, symSize: 0x30 }
  - { offset: 0x453F3, size: 0x8, addend: 0x0, symName: __ZNSt3__110unique_ptrIA_PNS_16__hash_node_baseIPNS_11__hash_nodeINS_17__hash_value_typeINS_12basic_stringIcNS_11char_traitsIcEENS_9allocatorIcEEEEbEEPvEEEENS_25__bucket_list_deallocatorINS7_ISF_EEEEE5resetB8ne180100EDn, symObjAddr: 0x13D5C, symBinAddr: 0x1000176D0, symSize: 0x6C }
  - { offset: 0x45435, size: 0x8, addend: 0x0, symName: __ZNSt3__112__hash_tableINS_17__hash_value_typeINS_12basic_stringIcNS_11char_traitsIcEENS_9allocatorIcEEEEbEENS_22__unordered_map_hasherIS7_S8_NS_4hashIS7_EENS_8equal_toIS7_EELb1EEENS_21__unordered_map_equalIS7_S8_SD_SB_Lb1EEENS5_IS8_EEE8__rehashILb1EEEvm, symObjAddr: 0x13DC8, symBinAddr: 0x10001773C, symSize: 0x1A8 }
  - { offset: 0x45487, size: 0x8, addend: 0x0, symName: __ZNSt3__112__hash_tableINS_17__hash_value_typeINS_12basic_stringIcNS_11char_traitsIcEENS_9allocatorIcEEEEbEENS_22__unordered_map_hasherIS7_S8_NS_4hashIS7_EENS_8equal_toIS7_EELb1EEENS_21__unordered_map_equalIS7_S8_SD_SB_Lb1EEENS5_IS8_EEE11__do_rehashILb1EEEvm, symObjAddr: 0x13F70, symBinAddr: 0x1000178E4, symSize: 0x288 }
  - { offset: 0x45576, size: 0x8, addend: 0x0, symName: __ZNSt3__112__hash_tableINS_17__hash_value_typeINS_12basic_stringIcNS_11char_traitsIcEENS_9allocatorIcEEEEbEENS_22__unordered_map_hasherIS7_S8_NS_4hashIS7_EENS_8equal_toIS7_EELb1EEENS_21__unordered_map_equalIS7_S8_SD_SB_Lb1EEENS5_IS8_EEE15__insert_uniqueB8ne180100ERKNS_4pairIKS7_bEE, symObjAddr: 0x14228, symBinAddr: 0x100017B9C, symSize: 0x50 }
  - { offset: 0x455AC, size: 0x8, addend: 0x0, symName: __ZNKSt3__125__hash_map_const_iteratorINS_21__hash_const_iteratorIPNS_11__hash_nodeINS_17__hash_value_typeINS_12basic_stringIcNS_11char_traitsIcEENS_9allocatorIcEEEEbEEPvEEEEEdeB8ne180100Ev, symObjAddr: 0x14278, symBinAddr: 0x100017BEC, symSize: 0x28 }
  - { offset: 0x455D2, size: 0x8, addend: 0x0, symName: __ZNSt3__125__hash_map_const_iteratorINS_21__hash_const_iteratorIPNS_11__hash_nodeINS_17__hash_value_typeINS_12basic_stringIcNS_11char_traitsIcEENS_9allocatorIcEEEEbEEPvEEEEEppB8ne180100Ev, symObjAddr: 0x142A0, symBinAddr: 0x100017C14, symSize: 0x2C }
  - { offset: 0x455F8, size: 0x8, addend: 0x0, symName: __ZNSt3__112__hash_tableINS_17__hash_value_typeINS_12basic_stringIcNS_11char_traitsIcEENS_9allocatorIcEEEEbEENS_22__unordered_map_hasherIS7_S8_NS_4hashIS7_EENS_8equal_toIS7_EELb1EEENS_21__unordered_map_equalIS7_S8_SD_SB_Lb1EEENS5_IS8_EEE25__emplace_unique_key_argsIS7_JRKNS_4pairIKS7_bEEEEENSK_INS_15__hash_iteratorIPNS_11__hash_nodeIS8_PvEEEEbEERKT_DpOT0_, symObjAddr: 0x142CC, symBinAddr: 0x100017C40, symSize: 0x4A0 }
  - { offset: 0x456E2, size: 0x8, addend: 0x0, symName: __ZNSt3__122__hash_key_value_typesINS_17__hash_value_typeINS_12basic_stringIcNS_11char_traitsIcEENS_9allocatorIcEEEEbEEE9__get_keyB8ne180100ERKNS_4pairIKS7_bEE, symObjAddr: 0x1476C, symBinAddr: 0x1000180E0, symSize: 0x14 }
  - { offset: 0x45705, size: 0x8, addend: 0x0, symName: __ZNKSt3__122__unordered_map_hasherINS_12basic_stringIcNS_11char_traitsIcEENS_9allocatorIcEEEENS_17__hash_value_typeIS6_bEENS_4hashIS6_EENS_8equal_toIS6_EELb1EEclB8ne180100ERKS6_, symObjAddr: 0x14780, symBinAddr: 0x1000180F4, symSize: 0x2C }
  - { offset: 0x4573B, size: 0x8, addend: 0x0, symName: __ZNKSt3__121__unordered_map_equalINS_12basic_stringIcNS_11char_traitsIcEENS_9allocatorIcEEEENS_17__hash_value_typeIS6_bEENS_8equal_toIS6_EENS_4hashIS6_EELb1EEclB8ne180100ERKS8_RKS6_, symObjAddr: 0x147AC, symBinAddr: 0x100018120, symSize: 0x48 }
  - { offset: 0x45781, size: 0x8, addend: 0x0, symName: __ZNSt3__112__hash_tableINS_17__hash_value_typeINS_12basic_stringIcNS_11char_traitsIcEENS_9allocatorIcEEEEbEENS_22__unordered_map_hasherIS7_S8_NS_4hashIS7_EENS_8equal_toIS7_EELb1EEENS_21__unordered_map_equalIS7_S8_SD_SB_Lb1EEENS5_IS8_EEE21__construct_node_hashIRKNS_4pairIKS7_bEEJEEENS_10unique_ptrINS_11__hash_nodeIS8_PvEENS_22__hash_node_destructorINS5_ISS_EEEEEEmOT_DpOT0_, symObjAddr: 0x147F4, symBinAddr: 0x100018168, symSize: 0x130 }
  - { offset: 0x457FD, size: 0x8, addend: 0x0, symName: __ZNSt3__14pairINS_15__hash_iteratorIPNS_11__hash_nodeINS_17__hash_value_typeINS_12basic_stringIcNS_11char_traitsIcEENS_9allocatorIcEEEEbEEPvEEEEbEC1B8ne180100ISE_RbLi0EEEOT_OT0_, symObjAddr: 0x14924, symBinAddr: 0x100018298, symSize: 0x3C }
  - { offset: 0x4585B, size: 0x8, addend: 0x0, symName: __ZNSt3__14pairINS_15__hash_iteratorIPNS_11__hash_nodeINS_17__hash_value_typeINS_12basic_stringIcNS_11char_traitsIcEENS_9allocatorIcEEEEbEEPvEEEEbEC2B8ne180100ISE_RbLi0EEEOT_OT0_, symObjAddr: 0x149A0, symBinAddr: 0x100018314, symSize: 0x38 }
  - { offset: 0x458B9, size: 0x8, addend: 0x0, symName: __ZNKSt3__121__hash_const_iteratorIPNS_11__hash_nodeINS_17__hash_value_typeINS_12basic_stringIcNS_11char_traitsIcEENS_9allocatorIcEEEEbEEPvEEEptB8ne180100Ev, symObjAddr: 0x149D8, symBinAddr: 0x10001834C, symSize: 0x30 }
  - { offset: 0x458DF, size: 0x8, addend: 0x0, symName: __ZNSt3__114pointer_traitsIPKNS_17__hash_value_typeINS_12basic_stringIcNS_11char_traitsIcEENS_9allocatorIcEEEEbEEE10pointer_toB8ne180100ERS9_, symObjAddr: 0x14A08, symBinAddr: 0x10001837C, symSize: 0x14 }
  - { offset: 0x45902, size: 0x8, addend: 0x0, symName: __ZNSt3__125__hash_map_const_iteratorINS_21__hash_const_iteratorIPNS_11__hash_nodeINS_17__hash_value_typeINS_12basic_stringIcNS_11char_traitsIcEENS_9allocatorIcEEEEbEEPvEEEEEC1B8ne180100ESE_, symObjAddr: 0x14A1C, symBinAddr: 0x100018390, symSize: 0x34 }
  - { offset: 0x4593C, size: 0x8, addend: 0x0, symName: __ZNSt3__125__hash_map_const_iteratorINS_21__hash_const_iteratorIPNS_11__hash_nodeINS_17__hash_value_typeINS_12basic_stringIcNS_11char_traitsIcEENS_9allocatorIcEEEEbEEPvEEEEEC2B8ne180100ESE_, symObjAddr: 0x14A50, symBinAddr: 0x1000183C4, symSize: 0x20 }
  - { offset: 0x45976, size: 0x8, addend: 0x0, symName: __ZNSt3__112__hash_tableINS_17__hash_value_typeINS_12basic_stringIcNS_11char_traitsIcEENS_9allocatorIcEEEEbEENS_22__unordered_map_hasherIS7_S8_NS_4hashIS7_EENS_8equal_toIS7_EELb1EEENS_21__unordered_map_equalIS7_S8_SD_SB_Lb1EEENS5_IS8_EEED2Ev, symObjAddr: 0x14A70, symBinAddr: 0x1000183E4, symSize: 0x48 }
  - { offset: 0x459A2, size: 0x8, addend: 0x0, symName: __ZNSt3__13mapINS_12basic_stringIcNS_11char_traitsIcEENS_9allocatorIcEEEE4roomNS_4lessIS6_EENS4_INS_4pairIKS6_S7_EEEEEC2B8ne180100ERKSE_, symObjAddr: 0x14AB8, symBinAddr: 0x10001842C, symSize: 0x88 }
  - { offset: 0x459DC, size: 0x8, addend: 0x0, symName: __ZNSt3__16__treeINS_12__value_typeINS_12basic_stringIcNS_11char_traitsIcEENS_9allocatorIcEEEE4roomEENS_19__map_value_compareIS7_S9_NS_4lessIS7_EELb1EEENS5_IS9_EEEC1ERKSF_, symObjAddr: 0x14B40, symBinAddr: 0x1000184B4, symSize: 0x34 }
  - { offset: 0x45A18, size: 0x8, addend: 0x0, symName: __ZNSt3__13mapINS_12basic_stringIcNS_11char_traitsIcEENS_9allocatorIcEEEE4roomNS_4lessIS6_EENS4_INS_4pairIKS6_S7_EEEEE6insertB8ne180100INS_20__map_const_iteratorINS_21__tree_const_iteratorINS_12__value_typeIS6_S7_EEPNS_11__tree_nodeISJ_PvEElEEEEEEvT_SQ_, symObjAddr: 0x14B74, symBinAddr: 0x1000184E8, symSize: 0x8C }
  - { offset: 0x45A86, size: 0x8, addend: 0x0, symName: __ZNKSt3__13mapINS_12basic_stringIcNS_11char_traitsIcEENS_9allocatorIcEEEE4roomNS_4lessIS6_EENS4_INS_4pairIKS6_S7_EEEEE5beginB8ne180100Ev, symObjAddr: 0x14C00, symBinAddr: 0x100018574, symSize: 0x38 }
  - { offset: 0x45AAC, size: 0x8, addend: 0x0, symName: __ZNKSt3__13mapINS_12basic_stringIcNS_11char_traitsIcEENS_9allocatorIcEEEE4roomNS_4lessIS6_EENS4_INS_4pairIKS6_S7_EEEEE3endB8ne180100Ev, symObjAddr: 0x14C38, symBinAddr: 0x1000185AC, symSize: 0x38 }
  - { offset: 0x45AD2, size: 0x8, addend: 0x0, symName: __ZNSt3__16__treeINS_12__value_typeINS_12basic_stringIcNS_11char_traitsIcEENS_9allocatorIcEEEE4roomEENS_19__map_value_compareIS7_S9_NS_4lessIS7_EELb1EEENS5_IS9_EEED1Ev, symObjAddr: 0x14C70, symBinAddr: 0x1000185E4, symSize: 0x2C }
  - { offset: 0x45AFE, size: 0x8, addend: 0x0, symName: __ZNSt3__16__treeINS_12__value_typeINS_12basic_stringIcNS_11char_traitsIcEENS_9allocatorIcEEEE4roomEENS_19__map_value_compareIS7_S9_NS_4lessIS7_EELb1EEENS5_IS9_EEEC2ERKSF_, symObjAddr: 0x14C9C, symBinAddr: 0x100018610, symSize: 0x9C }
  - { offset: 0x45B3A, size: 0x8, addend: 0x0, symName: __ZNSt3__116allocator_traitsINS_9allocatorINS_11__tree_nodeINS_12__value_typeINS_12basic_stringIcNS_11char_traitsIcEENS1_IcEEEE4roomEEPvEEEEE37select_on_container_copy_constructionB8ne180100ISD_vvEESD_RKSD_, symObjAddr: 0x14D38, symBinAddr: 0x1000186AC, symSize: 0x10 }
  - { offset: 0x45B6A, size: 0x8, addend: 0x0, symName: __ZNKSt3__16__treeINS_12__value_typeINS_12basic_stringIcNS_11char_traitsIcEENS_9allocatorIcEEEE4roomEENS_19__map_value_compareIS7_S9_NS_4lessIS7_EELb1EEENS5_IS9_EEE12__node_allocB8ne180100Ev, symObjAddr: 0x14D48, symBinAddr: 0x1000186BC, symSize: 0x28 }
  - { offset: 0x45B95, size: 0x8, addend: 0x0, symName: __ZNSt3__117__compressed_pairINS_15__tree_end_nodeIPNS_16__tree_node_baseIPvEEEENS_9allocatorINS_11__tree_nodeINS_12__value_typeINS_12basic_stringIcNS_11char_traitsIcEENS7_IcEEEE4roomEES3_EEEEEC1B8ne180100INS_18__default_init_tagESI_EEOT_OT0_, symObjAddr: 0x14D70, symBinAddr: 0x1000186E4, symSize: 0x3C }
  - { offset: 0x45BED, size: 0x8, addend: 0x0, symName: __ZNSt3__117__compressed_pairImNS_19__map_value_compareINS_12basic_stringIcNS_11char_traitsIcEENS_9allocatorIcEEEENS_12__value_typeIS7_4roomEENS_4lessIS7_EELb1EEEEC1B8ne180100IiRKSD_EEOT_OT0_, symObjAddr: 0x14DAC, symBinAddr: 0x100018720, symSize: 0x3C }
  - { offset: 0x45C45, size: 0x8, addend: 0x0, symName: __ZNKSt3__117__compressed_pairINS_15__tree_end_nodeIPNS_16__tree_node_baseIPvEEEENS_9allocatorINS_11__tree_nodeINS_12__value_typeINS_12basic_stringIcNS_11char_traitsIcEENS7_IcEEEE4roomEES3_EEEEE6secondB8ne180100Ev, symObjAddr: 0x14DE8, symBinAddr: 0x10001875C, symSize: 0x24 }
  - { offset: 0x45C6B, size: 0x8, addend: 0x0, symName: __ZNKSt3__122__compressed_pair_elemINS_9allocatorINS_11__tree_nodeINS_12__value_typeINS_12basic_stringIcNS_11char_traitsIcEENS1_IcEEEE4roomEEPvEEEELi1ELb1EE5__getB8ne180100Ev, symObjAddr: 0x14E0C, symBinAddr: 0x100018780, symSize: 0x14 }
  - { offset: 0x45C91, size: 0x8, addend: 0x0, symName: __ZNSt3__117__compressed_pairINS_15__tree_end_nodeIPNS_16__tree_node_baseIPvEEEENS_9allocatorINS_11__tree_nodeINS_12__value_typeINS_12basic_stringIcNS_11char_traitsIcEENS7_IcEEEE4roomEES3_EEEEEC2B8ne180100INS_18__default_init_tagESI_EEOT_OT0_, symObjAddr: 0x14E20, symBinAddr: 0x100018794, symSize: 0x40 }
  - { offset: 0x45CE9, size: 0x8, addend: 0x0, symName: __ZNSt3__122__compressed_pair_elemINS_9allocatorINS_11__tree_nodeINS_12__value_typeINS_12basic_stringIcNS_11char_traitsIcEENS1_IcEEEE4roomEEPvEEEELi1ELb1EEC2B8ne180100ISD_vEEOT_, symObjAddr: 0x14E60, symBinAddr: 0x1000187D4, symSize: 0x18 }
  - { offset: 0x45D2B, size: 0x8, addend: 0x0, symName: __ZNSt3__117__compressed_pairImNS_19__map_value_compareINS_12basic_stringIcNS_11char_traitsIcEENS_9allocatorIcEEEENS_12__value_typeIS7_4roomEENS_4lessIS7_EELb1EEEEC2B8ne180100IiRKSD_EEOT_OT0_, symObjAddr: 0x14E78, symBinAddr: 0x1000187EC, symSize: 0x44 }
  - { offset: 0x45D83, size: 0x8, addend: 0x0, symName: __ZNSt3__122__compressed_pair_elemINS_19__map_value_compareINS_12basic_stringIcNS_11char_traitsIcEENS_9allocatorIcEEEENS_12__value_typeIS7_4roomEENS_4lessIS7_EELb1EEELi1ELb1EEC2B8ne180100IRKSD_vEEOT_, symObjAddr: 0x14EBC, symBinAddr: 0x100018830, symSize: 0x18 }
  - { offset: 0x45DC5, size: 0x8, addend: 0x0, symName: __ZNKSt3__13mapINS_12basic_stringIcNS_11char_traitsIcEENS_9allocatorIcEEEE4roomNS_4lessIS6_EENS4_INS_4pairIKS6_S7_EEEEE4cendB8ne180100Ev, symObjAddr: 0x14ED4, symBinAddr: 0x100018848, symSize: 0x2C }
  - { offset: 0x45DEB, size: 0x8, addend: 0x0, symName: __ZNSt3__13mapINS_12basic_stringIcNS_11char_traitsIcEENS_9allocatorIcEEEE4roomNS_4lessIS6_EENS4_INS_4pairIKS6_S7_EEEEE6insertB8ne180100ENS_20__map_const_iteratorINS_21__tree_const_iteratorINS_12__value_typeIS6_S7_EEPNS_11__tree_nodeISI_PvEElEEEERKSC_, symObjAddr: 0x14F30, symBinAddr: 0x1000188A4, symSize: 0x50 }
  - { offset: 0x45E31, size: 0x8, addend: 0x0, symName: __ZNSt3__120__map_const_iteratorINS_21__tree_const_iteratorINS_12__value_typeINS_12basic_stringIcNS_11char_traitsIcEENS_9allocatorIcEEEE4roomEEPNS_11__tree_nodeISA_PvEElEEEC1B8ne180100ESF_, symObjAddr: 0x14F80, symBinAddr: 0x1000188F4, symSize: 0x34 }
  - { offset: 0x45E6B, size: 0x8, addend: 0x0, symName: __ZNKSt3__120__map_const_iteratorINS_21__tree_const_iteratorINS_12__value_typeINS_12basic_stringIcNS_11char_traitsIcEENS_9allocatorIcEEEE4roomEEPNS_11__tree_nodeISA_PvEElEEEdeB8ne180100Ev, symObjAddr: 0x14FB4, symBinAddr: 0x100018928, symSize: 0x28 }
  - { offset: 0x45E91, size: 0x8, addend: 0x0, symName: __ZNSt3__120__map_const_iteratorINS_21__tree_const_iteratorINS_12__value_typeINS_12basic_stringIcNS_11char_traitsIcEENS_9allocatorIcEEEE4roomEEPNS_11__tree_nodeISA_PvEElEEEppB8ne180100Ev, symObjAddr: 0x14FDC, symBinAddr: 0x100018950, symSize: 0x2C }
  - { offset: 0x45EB7, size: 0x8, addend: 0x0, symName: __ZNSt3__16__treeINS_12__value_typeINS_12basic_stringIcNS_11char_traitsIcEENS_9allocatorIcEEEE4roomEENS_19__map_value_compareIS7_S9_NS_4lessIS7_EELb1EEENS5_IS9_EEE15__insert_uniqueB8ne180100ENS_21__tree_const_iteratorIS9_PNS_11__tree_nodeIS9_PvEElEERKNS_4pairIKS7_S8_EE, symObjAddr: 0x15008, symBinAddr: 0x10001897C, symSize: 0x64 }
  - { offset: 0x45EFD, size: 0x8, addend: 0x0, symName: __ZNSt3__114__map_iteratorINS_15__tree_iteratorINS_12__value_typeINS_12basic_stringIcNS_11char_traitsIcEENS_9allocatorIcEEEE4roomEEPNS_11__tree_nodeISA_PvEElEEEC1B8ne180100ESF_, symObjAddr: 0x1506C, symBinAddr: 0x1000189E0, symSize: 0x34 }
  - { offset: 0x45F37, size: 0x8, addend: 0x0, symName: __ZNSt3__16__treeINS_12__value_typeINS_12basic_stringIcNS_11char_traitsIcEENS_9allocatorIcEEEE4roomEENS_19__map_value_compareIS7_S9_NS_4lessIS7_EELb1EEENS5_IS9_EEE30__emplace_hint_unique_key_argsIS7_JRKNS_4pairIKS7_S8_EEEEENSH_INS_15__tree_iteratorIS9_PNS_11__tree_nodeIS9_PvEElEEbEENS_21__tree_const_iteratorIS9_SQ_lEERKT_DpOT0_, symObjAddr: 0x150A0, symBinAddr: 0x100018A14, symSize: 0x104 }
  - { offset: 0x4600D, size: 0x8, addend: 0x0, symName: __ZNSt3__122__tree_key_value_typesINS_12__value_typeINS_12basic_stringIcNS_11char_traitsIcEENS_9allocatorIcEEEE4roomEEE9__get_keyB8ne180100IKNS_4pairIKS7_S8_EELi0EEERSD_RT_, symObjAddr: 0x151A4, symBinAddr: 0x100018B18, symSize: 0x14 }
  - { offset: 0x46041, size: 0x8, addend: 0x0, symName: __ZNSt3__16__treeINS_12__value_typeINS_12basic_stringIcNS_11char_traitsIcEENS_9allocatorIcEEEE4roomEENS_19__map_value_compareIS7_S9_NS_4lessIS7_EELb1EEENS5_IS9_EEE12__find_equalIS7_EERPNS_16__tree_node_baseIPvEENS_21__tree_const_iteratorIS9_PNS_11__tree_nodeIS9_SI_EElEERPNS_15__tree_end_nodeISK_EESL_RKT_, symObjAddr: 0x151B8, symBinAddr: 0x100018B2C, symSize: 0x304 }
  - { offset: 0x460F7, size: 0x8, addend: 0x0, symName: __ZNSt3__14pairINS_15__tree_iteratorINS_12__value_typeINS_12basic_stringIcNS_11char_traitsIcEENS_9allocatorIcEEEE4roomEEPNS_11__tree_nodeISA_PvEElEEbEC1B8ne180100ISF_RbLi0EEEOT_OT0_, symObjAddr: 0x154BC, symBinAddr: 0x100018E30, symSize: 0x3C }
  - { offset: 0x46155, size: 0x8, addend: 0x0, symName: __ZNSt3__16__treeINS_12__value_typeINS_12basic_stringIcNS_11char_traitsIcEENS_9allocatorIcEEEE4roomEENS_19__map_value_compareIS7_S9_NS_4lessIS7_EELb1EEENS5_IS9_EEE3endB8ne180100Ev, symObjAddr: 0x154F8, symBinAddr: 0x100018E6C, symSize: 0x34 }
  - { offset: 0x4617B, size: 0x8, addend: 0x0, symName: __ZNSt3__121__tree_const_iteratorINS_12__value_typeINS_12basic_stringIcNS_11char_traitsIcEENS_9allocatorIcEEEE4roomEEPNS_11__tree_nodeIS9_PvEElEC1B8ne180100ENS_15__tree_iteratorIS9_SD_lEE, symObjAddr: 0x1552C, symBinAddr: 0x100018EA0, symSize: 0x34 }
  - { offset: 0x461B5, size: 0x8, addend: 0x0, symName: __ZNSt3__16__treeINS_12__value_typeINS_12basic_stringIcNS_11char_traitsIcEENS_9allocatorIcEEEE4roomEENS_19__map_value_compareIS7_S9_NS_4lessIS7_EELb1EEENS5_IS9_EEE5beginB8ne180100Ev, symObjAddr: 0x15560, symBinAddr: 0x100018ED4, symSize: 0x34 }
  - { offset: 0x461DB, size: 0x8, addend: 0x0, symName: __ZNKSt3__119__map_value_compareINS_12basic_stringIcNS_11char_traitsIcEENS_9allocatorIcEEEENS_12__value_typeIS6_4roomEENS_4lessIS6_EELb1EEclB8ne180100ERKS9_RKS6_, symObjAddr: 0x15594, symBinAddr: 0x100018F08, symSize: 0x48 }
  - { offset: 0x46221, size: 0x8, addend: 0x0, symName: __ZNSt3__121__tree_const_iteratorINS_12__value_typeINS_12basic_stringIcNS_11char_traitsIcEENS_9allocatorIcEEEE4roomEEPNS_11__tree_nodeIS9_PvEElEmmB8ne180100Ev, symObjAddr: 0x155DC, symBinAddr: 0x100018F50, symSize: 0x38 }
  - { offset: 0x46247, size: 0x8, addend: 0x0, symName: __ZNSt3__16__treeINS_12__value_typeINS_12basic_stringIcNS_11char_traitsIcEENS_9allocatorIcEEEE4roomEENS_19__map_value_compareIS7_S9_NS_4lessIS7_EELb1EEENS5_IS9_EEE12__find_equalIS7_EERPNS_16__tree_node_baseIPvEERPNS_15__tree_end_nodeISK_EERKT_, symObjAddr: 0x15614, symBinAddr: 0x100018F88, symSize: 0x184 }
  - { offset: 0x462B8, size: 0x8, addend: 0x0, symName: __ZNSt3__115__tree_iteratorINS_12__value_typeINS_12basic_stringIcNS_11char_traitsIcEENS_9allocatorIcEEEE4roomEEPNS_11__tree_nodeIS9_PvEElEC1B8ne180100EPNS_15__tree_end_nodeIPNS_16__tree_node_baseISB_EEEE, symObjAddr: 0x157D4, symBinAddr: 0x100019148, symSize: 0x34 }
  - { offset: 0x462F2, size: 0x8, addend: 0x0, symName: __ZNSt3__115__tree_iteratorINS_12__value_typeINS_12basic_stringIcNS_11char_traitsIcEENS_9allocatorIcEEEE4roomEEPNS_11__tree_nodeIS9_PvEElEC2B8ne180100EPNS_15__tree_end_nodeIPNS_16__tree_node_baseISB_EEEE, symObjAddr: 0x15808, symBinAddr: 0x10001917C, symSize: 0x20 }
  - { offset: 0x4632C, size: 0x8, addend: 0x0, symName: __ZNSt3__121__tree_const_iteratorINS_12__value_typeINS_12basic_stringIcNS_11char_traitsIcEENS_9allocatorIcEEEE4roomEEPNS_11__tree_nodeIS9_PvEElEC2B8ne180100ENS_15__tree_iteratorIS9_SD_lEE, symObjAddr: 0x15828, symBinAddr: 0x10001919C, symSize: 0x20 }
  - { offset: 0x46366, size: 0x8, addend: 0x0, symName: __ZNKSt3__16__treeINS_12__value_typeINS_12basic_stringIcNS_11char_traitsIcEENS_9allocatorIcEEEE4roomEENS_19__map_value_compareIS7_S9_NS_4lessIS7_EELb1EEENS5_IS9_EEE10__root_ptrB8ne180100Ev, symObjAddr: 0x15848, symBinAddr: 0x1000191BC, symSize: 0x24 }
  - { offset: 0x4638C, size: 0x8, addend: 0x0, symName: __ZNSt3__14pairINS_15__tree_iteratorINS_12__value_typeINS_12basic_stringIcNS_11char_traitsIcEENS_9allocatorIcEEEE4roomEEPNS_11__tree_nodeISA_PvEElEEbEC2B8ne180100ISF_RbLi0EEEOT_OT0_, symObjAddr: 0x15948, symBinAddr: 0x1000192BC, symSize: 0x38 }
  - { offset: 0x463EA, size: 0x8, addend: 0x0, symName: __ZNSt3__114__map_iteratorINS_15__tree_iteratorINS_12__value_typeINS_12basic_stringIcNS_11char_traitsIcEENS_9allocatorIcEEEE4roomEEPNS_11__tree_nodeISA_PvEElEEEC2B8ne180100ESF_, symObjAddr: 0x15980, symBinAddr: 0x1000192F4, symSize: 0x20 }
  - { offset: 0x46424, size: 0x8, addend: 0x0, symName: __ZNSt3__120__map_const_iteratorINS_21__tree_const_iteratorINS_12__value_typeINS_12basic_stringIcNS_11char_traitsIcEENS_9allocatorIcEEEE4roomEEPNS_11__tree_nodeISA_PvEElEEEC2B8ne180100ESF_, symObjAddr: 0x159A0, symBinAddr: 0x100019314, symSize: 0x20 }
  - { offset: 0x4645E, size: 0x8, addend: 0x0, symName: __ZNKSt3__121__tree_const_iteratorINS_12__value_typeINS_12basic_stringIcNS_11char_traitsIcEENS_9allocatorIcEEEE4roomEEPNS_11__tree_nodeIS9_PvEElEptB8ne180100Ev, symObjAddr: 0x159C0, symBinAddr: 0x100019334, symSize: 0x2C }
  - { offset: 0x46484, size: 0x8, addend: 0x0, symName: __ZNSt3__114pointer_traitsIPKNS_12__value_typeINS_12basic_stringIcNS_11char_traitsIcEENS_9allocatorIcEEEE4roomEEE10pointer_toB8ne180100ERSA_, symObjAddr: 0x159EC, symBinAddr: 0x100019360, symSize: 0x14 }
  - { offset: 0x464A7, size: 0x8, addend: 0x0, symName: __ZNSt3__16__treeINS_12__value_typeINS_12basic_stringIcNS_11char_traitsIcEENS_9allocatorIcEEEE4roomEENS_19__map_value_compareIS7_S9_NS_4lessIS7_EELb1EEENS5_IS9_EEED2Ev, symObjAddr: 0x15A00, symBinAddr: 0x100019374, symSize: 0x38 }
  - { offset: 0x464D3, size: 0x8, addend: 0x0, symName: __ZNSt3__113unordered_mapINS_12basic_stringIcNS_11char_traitsIcEENS_9allocatorIcEEEEbNS_4hashIS6_EENS_8equal_toIS6_EENS4_INS_4pairIKS6_bEEEEED2B8ne180100Ev, symObjAddr: 0x15A38, symBinAddr: 0x1000193AC, symSize: 0x2C }
  - { offset: 0x464FD, size: 0x8, addend: 0x0, symName: __ZNSt3__113unordered_mapINS_12basic_stringIcNS_11char_traitsIcEENS_9allocatorIcEEEENS_6vectorIS6_NS4_IS6_EEEENS_4hashIS6_EENS_8equal_toIS6_EENS4_INS_4pairIKS6_S9_EEEEED2B8ne180100Ev, symObjAddr: 0x15A64, symBinAddr: 0x1000193D8, symSize: 0x2C }
  - { offset: 0x46527, size: 0x8, addend: 0x0, symName: __ZNSt3__117__compressed_pairIPNS_11__tree_nodeINS_12__value_typeINS_12basic_stringIcNS_11char_traitsIcEENS_9allocatorIcEEEE4roomEEPvEENS_22__tree_node_destructorINS6_ISC_EEEEE6secondB8ne180100Ev, symObjAddr: 0x15A90, symBinAddr: 0x100019404, symSize: 0x28 }
  - { offset: 0x4654D, size: 0x8, addend: 0x0, symName: __ZNSt3__122__compressed_pair_elemINS_22__tree_node_destructorINS_9allocatorINS_11__tree_nodeINS_12__value_typeINS_12basic_stringIcNS_11char_traitsIcEENS2_IcEEEE4roomEEPvEEEEEELi1ELb0EE5__getB8ne180100Ev, symObjAddr: 0x15AB8, symBinAddr: 0x10001942C, symSize: 0x14 }
  - { offset: 0x46573, size: 0x8, addend: 0x0, symName: __ZNKSt3__117__compressed_pairIPNS_11__tree_nodeINS_12__value_typeINS_12basic_stringIcNS_11char_traitsIcEENS_9allocatorIcEEEE4roomEEPvEENS_22__tree_node_destructorINS6_ISC_EEEEE5firstB8ne180100Ev, symObjAddr: 0x15ACC, symBinAddr: 0x100019440, symSize: 0x24 }
  - { offset: 0x46599, size: 0x8, addend: 0x0, symName: __ZNKSt3__122__compressed_pair_elemIPNS_11__tree_nodeINS_12__value_typeINS_12basic_stringIcNS_11char_traitsIcEENS_9allocatorIcEEEE4roomEEPvEELi0ELb0EE5__getB8ne180100Ev, symObjAddr: 0x15AF0, symBinAddr: 0x100019464, symSize: 0x14 }
  - { offset: 0x465BF, size: 0x8, addend: 0x0, symName: __ZNSt3__117__compressed_pairIPNS_11__tree_nodeINS_12__value_typeINS_12basic_stringIcNS_11char_traitsIcEENS_9allocatorIcEEEE4roomEEPvEENS_22__tree_node_destructorINS6_ISC_EEEEE5firstB8ne180100Ev, symObjAddr: 0x15B04, symBinAddr: 0x100019478, symSize: 0x24 }
  - { offset: 0x465E5, size: 0x8, addend: 0x0, symName: __ZNSt3__122__compressed_pair_elemIPNS_11__tree_nodeINS_12__value_typeINS_12basic_stringIcNS_11char_traitsIcEENS_9allocatorIcEEEE4roomEEPvEELi0ELb0EE5__getB8ne180100Ev, symObjAddr: 0x15B28, symBinAddr: 0x10001949C, symSize: 0x14 }
  - { offset: 0x4660B, size: 0x8, addend: 0x0, symName: __ZNSt3__110unique_ptrINS_11__tree_nodeINS_12__value_typeINS_12basic_stringIcNS_11char_traitsIcEENS_9allocatorIcEEEE4roomEEPvEENS_22__tree_node_destructorINS6_ISC_EEEEED2B8ne180100Ev, symObjAddr: 0x15B3C, symBinAddr: 0x1000194B0, symSize: 0x30 }
  - { offset: 0x46635, size: 0x8, addend: 0x0, symName: __ZNSt3__110unique_ptrINS_11__tree_nodeINS_12__value_typeINS_12basic_stringIcNS_11char_traitsIcEENS_9allocatorIcEEEE4roomEEPvEENS_22__tree_node_destructorINS6_ISC_EEEEE5resetB8ne180100EPSC_, symObjAddr: 0x15B6C, symBinAddr: 0x1000194E0, symSize: 0x78 }
  - { offset: 0x4667B, size: 0x8, addend: 0x0, symName: __ZNSt3__122__tree_node_destructorINS_9allocatorINS_11__tree_nodeINS_12__value_typeINS_12basic_stringIcNS_11char_traitsIcEENS1_IcEEEE4roomEEPvEEEEEclB8ne180100EPSC_, symObjAddr: 0x15BE4, symBinAddr: 0x100019558, symSize: 0x90 }
  - { offset: 0x466B1, size: 0x8, addend: 0x0, symName: __ZNKSt3__16__treeINS_12__value_typeINS_12basic_stringIcNS_11char_traitsIcEENS_9allocatorIcEEEE4roomEENS_19__map_value_compareIS7_S9_NS_4lessIS7_EELb1EEENS5_IS9_EEE12__begin_nodeB8ne180100Ev, symObjAddr: 0x15C74, symBinAddr: 0x1000195E8, symSize: 0x14 }
  - { offset: 0x466D7, size: 0x8, addend: 0x0, symName: __ZNSt3__121__tree_const_iteratorINS_12__value_typeINS_12basic_stringIcNS_11char_traitsIcEENS_9allocatorIcEEEE4roomEEPNS_11__tree_nodeIS9_PvEElEC1B8ne180100EPNS_15__tree_end_nodeIPNS_16__tree_node_baseISB_EEEE, symObjAddr: 0x15C88, symBinAddr: 0x1000195FC, symSize: 0x34 }
  - { offset: 0x46711, size: 0x8, addend: 0x0, symName: __ZNSt3__121__tree_const_iteratorINS_12__value_typeINS_12basic_stringIcNS_11char_traitsIcEENS_9allocatorIcEEEE4roomEEPNS_11__tree_nodeIS9_PvEElEC2B8ne180100EPNS_15__tree_end_nodeIPNS_16__tree_node_baseISB_EEEE, symObjAddr: 0x15CBC, symBinAddr: 0x100019630, symSize: 0x20 }
  - { offset: 0x4674B, size: 0x8, addend: 0x0, symName: __ZNSt3__119basic_istringstreamIcNS_11char_traitsIcEENS_9allocatorIcEEED2Ev, symObjAddr: 0x15CDC, symBinAddr: 0x100019650, symSize: 0x64 }
  - { offset: 0x46785, size: 0x8, addend: 0x0, symName: __ZTv0_n24_NSt3__119basic_istringstreamIcNS_11char_traitsIcEENS_9allocatorIcEEED1Ev, symObjAddr: 0x15D40, symBinAddr: 0x1000196B4, symSize: 0x28 }
  - { offset: 0x467A1, size: 0x8, addend: 0x0, symName: __ZNSt3__115basic_stringbufIcNS_11char_traitsIcEENS_9allocatorIcEEED1Ev, symObjAddr: 0x15D68, symBinAddr: 0x1000196DC, symSize: 0x2C }
  - { offset: 0x467CE, size: 0x8, addend: 0x0, symName: __ZNSt3__115basic_stringbufIcNS_11char_traitsIcEENS_9allocatorIcEEED2Ev, symObjAddr: 0x15D94, symBinAddr: 0x100019708, symSize: 0x48 }
  - { offset: 0x467FB, size: 0x8, addend: 0x0, symName: __ZNSt3__114basic_ifstreamIcNS_11char_traitsIcEEED2Ev, symObjAddr: 0x15DDC, symBinAddr: 0x100019750, symSize: 0x64 }
  - { offset: 0x46835, size: 0x8, addend: 0x0, symName: __ZTv0_n24_NSt3__114basic_ifstreamIcNS_11char_traitsIcEEED1Ev, symObjAddr: 0x15E40, symBinAddr: 0x1000197B4, symSize: 0x28 }
  - { offset: 0x4684C, size: 0x8, addend: 0x0, symName: __ZNSt3__113unordered_mapINS_12basic_stringIcNS_11char_traitsIcEENS_9allocatorIcEEEE4itemNS_4hashIS6_EENS_8equal_toIS6_EENS4_INS_4pairIKS6_S7_EEEEEaSB8ne180100ERKSG_, symObjAddr: 0x15E68, symBinAddr: 0x1000197DC, symSize: 0x34 }
  - { offset: 0x46882, size: 0x8, addend: 0x0, symName: __ZNSt3__112__hash_tableINS_17__hash_value_typeINS_12basic_stringIcNS_11char_traitsIcEENS_9allocatorIcEEEE4itemEENS_22__unordered_map_hasherIS7_S9_NS_4hashIS7_EENS_8equal_toIS7_EELb1EEENS_21__unordered_map_equalIS7_S9_SE_SC_Lb1EEENS5_IS9_EEEaSERKSJ_, symObjAddr: 0x15E9C, symBinAddr: 0x100019810, symSize: 0xB8 }
  - { offset: 0x468BA, size: 0x8, addend: 0x0, symName: __ZNSt3__112__hash_tableINS_17__hash_value_typeINS_12basic_stringIcNS_11char_traitsIcEENS_9allocatorIcEEEE4itemEENS_22__unordered_map_hasherIS7_S9_NS_4hashIS7_EENS_8equal_toIS7_EELb1EEENS_21__unordered_map_equalIS7_S9_SE_SC_Lb1EEENS5_IS9_EEE19__copy_assign_allocB8ne180100ERKSJ_, symObjAddr: 0x15F54, symBinAddr: 0x1000198C8, symSize: 0x2C }
  - { offset: 0x468F0, size: 0x8, addend: 0x0, symName: __ZNKSt3__112__hash_tableINS_17__hash_value_typeINS_12basic_stringIcNS_11char_traitsIcEENS_9allocatorIcEEEE4itemEENS_22__unordered_map_hasherIS7_S9_NS_4hashIS7_EENS_8equal_toIS7_EELb1EEENS_21__unordered_map_equalIS7_S9_SE_SC_Lb1EEENS5_IS9_EEE13hash_functionB8ne180100Ev, symObjAddr: 0x15F80, symBinAddr: 0x1000198F4, symSize: 0x28 }
  - { offset: 0x46916, size: 0x8, addend: 0x0, symName: __ZNSt3__112__hash_tableINS_17__hash_value_typeINS_12basic_stringIcNS_11char_traitsIcEENS_9allocatorIcEEEE4itemEENS_22__unordered_map_hasherIS7_S9_NS_4hashIS7_EENS_8equal_toIS7_EELb1EEENS_21__unordered_map_equalIS7_S9_SE_SC_Lb1EEENS5_IS9_EEE13hash_functionB8ne180100Ev, symObjAddr: 0x15FA8, symBinAddr: 0x10001991C, symSize: 0x28 }
  - { offset: 0x4693C, size: 0x8, addend: 0x0, symName: __ZNKSt3__112__hash_tableINS_17__hash_value_typeINS_12basic_stringIcNS_11char_traitsIcEENS_9allocatorIcEEEE4itemEENS_22__unordered_map_hasherIS7_S9_NS_4hashIS7_EENS_8equal_toIS7_EELb1EEENS_21__unordered_map_equalIS7_S9_SE_SC_Lb1EEENS5_IS9_EEE6key_eqB8ne180100Ev, symObjAddr: 0x15FD0, symBinAddr: 0x100019944, symSize: 0x28 }
  - { offset: 0x46962, size: 0x8, addend: 0x0, symName: __ZNSt3__112__hash_tableINS_17__hash_value_typeINS_12basic_stringIcNS_11char_traitsIcEENS_9allocatorIcEEEE4itemEENS_22__unordered_map_hasherIS7_S9_NS_4hashIS7_EENS_8equal_toIS7_EELb1EEENS_21__unordered_map_equalIS7_S9_SE_SC_Lb1EEENS5_IS9_EEE6key_eqB8ne180100Ev, symObjAddr: 0x15FF8, symBinAddr: 0x10001996C, symSize: 0x28 }
  - { offset: 0x46988, size: 0x8, addend: 0x0, symName: __ZNKSt3__112__hash_tableINS_17__hash_value_typeINS_12basic_stringIcNS_11char_traitsIcEENS_9allocatorIcEEEE4itemEENS_22__unordered_map_hasherIS7_S9_NS_4hashIS7_EENS_8equal_toIS7_EELb1EEENS_21__unordered_map_equalIS7_S9_SE_SC_Lb1EEENS5_IS9_EEE15max_load_factorB8ne180100Ev, symObjAddr: 0x16020, symBinAddr: 0x100019994, symSize: 0x2C }
  - { offset: 0x469AE, size: 0x8, addend: 0x0, symName: __ZNSt3__112__hash_tableINS_17__hash_value_typeINS_12basic_stringIcNS_11char_traitsIcEENS_9allocatorIcEEEE4itemEENS_22__unordered_map_hasherIS7_S9_NS_4hashIS7_EENS_8equal_toIS7_EELb1EEENS_21__unordered_map_equalIS7_S9_SE_SC_Lb1EEENS5_IS9_EEE15max_load_factorB8ne180100Ev, symObjAddr: 0x1604C, symBinAddr: 0x1000199C0, symSize: 0x28 }
  - { offset: 0x469D4, size: 0x8, addend: 0x0, symName: __ZNSt3__112__hash_tableINS_17__hash_value_typeINS_12basic_stringIcNS_11char_traitsIcEENS_9allocatorIcEEEE4itemEENS_22__unordered_map_hasherIS7_S9_NS_4hashIS7_EENS_8equal_toIS7_EELb1EEENS_21__unordered_map_equalIS7_S9_SE_SC_Lb1EEENS5_IS9_EEE14__assign_multiINS_21__hash_const_iteratorIPNS_11__hash_nodeIS9_PvEEEEEEvT_SR_, symObjAddr: 0x16074, symBinAddr: 0x1000199E8, symSize: 0x1C4 }
  - { offset: 0x46A5B, size: 0x8, addend: 0x0, symName: __ZNKSt3__112__hash_tableINS_17__hash_value_typeINS_12basic_stringIcNS_11char_traitsIcEENS_9allocatorIcEEEE4itemEENS_22__unordered_map_hasherIS7_S9_NS_4hashIS7_EENS_8equal_toIS7_EELb1EEENS_21__unordered_map_equalIS7_S9_SE_SC_Lb1EEENS5_IS9_EEE5beginEv, symObjAddr: 0x16238, symBinAddr: 0x100019BAC, symSize: 0x38 }
  - { offset: 0x46A83, size: 0x8, addend: 0x0, symName: __ZNKSt3__112__hash_tableINS_17__hash_value_typeINS_12basic_stringIcNS_11char_traitsIcEENS_9allocatorIcEEEE4itemEENS_22__unordered_map_hasherIS7_S9_NS_4hashIS7_EENS_8equal_toIS7_EELb1EEENS_21__unordered_map_equalIS7_S9_SE_SC_Lb1EEENS5_IS9_EEE3endEv, symObjAddr: 0x16270, symBinAddr: 0x100019BE4, symSize: 0x2C }
  - { offset: 0x46AAB, size: 0x8, addend: 0x0, symName: __ZNSt3__112__hash_tableINS_17__hash_value_typeINS_12basic_stringIcNS_11char_traitsIcEENS_9allocatorIcEEEE4itemEENS_22__unordered_map_hasherIS7_S9_NS_4hashIS7_EENS_8equal_toIS7_EELb1EEENS_21__unordered_map_equalIS7_S9_SE_SC_Lb1EEENS5_IS9_EEE19__copy_assign_allocB8ne180100ERKSJ_NS_17integral_constantIbLb0EEE, symObjAddr: 0x1629C, symBinAddr: 0x100019C10, symSize: 0x14 }
  - { offset: 0x46AE9, size: 0x8, addend: 0x0, symName: __ZNKSt3__117__compressed_pairImNS_22__unordered_map_hasherINS_12basic_stringIcNS_11char_traitsIcEENS_9allocatorIcEEEENS_17__hash_value_typeIS7_4itemEENS_4hashIS7_EENS_8equal_toIS7_EELb1EEEE6secondB8ne180100Ev, symObjAddr: 0x162B0, symBinAddr: 0x100019C24, symSize: 0x24 }
  - { offset: 0x46B0F, size: 0x8, addend: 0x0, symName: __ZNKSt3__122__compressed_pair_elemINS_22__unordered_map_hasherINS_12basic_stringIcNS_11char_traitsIcEENS_9allocatorIcEEEENS_17__hash_value_typeIS7_4itemEENS_4hashIS7_EENS_8equal_toIS7_EELb1EEELi1ELb1EE5__getB8ne180100Ev, symObjAddr: 0x162D4, symBinAddr: 0x100019C48, symSize: 0x14 }
  - { offset: 0x46B35, size: 0x8, addend: 0x0, symName: __ZNSt3__117__compressed_pairImNS_22__unordered_map_hasherINS_12basic_stringIcNS_11char_traitsIcEENS_9allocatorIcEEEENS_17__hash_value_typeIS7_4itemEENS_4hashIS7_EENS_8equal_toIS7_EELb1EEEE6secondB8ne180100Ev, symObjAddr: 0x162E8, symBinAddr: 0x100019C5C, symSize: 0x24 }
  - { offset: 0x46B5B, size: 0x8, addend: 0x0, symName: __ZNSt3__122__compressed_pair_elemINS_22__unordered_map_hasherINS_12basic_stringIcNS_11char_traitsIcEENS_9allocatorIcEEEENS_17__hash_value_typeIS7_4itemEENS_4hashIS7_EENS_8equal_toIS7_EELb1EEELi1ELb1EE5__getB8ne180100Ev, symObjAddr: 0x1630C, symBinAddr: 0x100019C80, symSize: 0x14 }
  - { offset: 0x46B81, size: 0x8, addend: 0x0, symName: __ZNKSt3__117__compressed_pairIfNS_21__unordered_map_equalINS_12basic_stringIcNS_11char_traitsIcEENS_9allocatorIcEEEENS_17__hash_value_typeIS7_4itemEENS_8equal_toIS7_EENS_4hashIS7_EELb1EEEE6secondB8ne180100Ev, symObjAddr: 0x16320, symBinAddr: 0x100019C94, symSize: 0x24 }
  - { offset: 0x46BA7, size: 0x8, addend: 0x0, symName: __ZNKSt3__122__compressed_pair_elemINS_21__unordered_map_equalINS_12basic_stringIcNS_11char_traitsIcEENS_9allocatorIcEEEENS_17__hash_value_typeIS7_4itemEENS_8equal_toIS7_EENS_4hashIS7_EELb1EEELi1ELb1EE5__getB8ne180100Ev, symObjAddr: 0x16344, symBinAddr: 0x100019CB8, symSize: 0x14 }
  - { offset: 0x46BCD, size: 0x8, addend: 0x0, symName: __ZNSt3__117__compressed_pairIfNS_21__unordered_map_equalINS_12basic_stringIcNS_11char_traitsIcEENS_9allocatorIcEEEENS_17__hash_value_typeIS7_4itemEENS_8equal_toIS7_EENS_4hashIS7_EELb1EEEE6secondB8ne180100Ev, symObjAddr: 0x16358, symBinAddr: 0x100019CCC, symSize: 0x24 }
  - { offset: 0x46BF3, size: 0x8, addend: 0x0, symName: __ZNSt3__122__compressed_pair_elemINS_21__unordered_map_equalINS_12basic_stringIcNS_11char_traitsIcEENS_9allocatorIcEEEENS_17__hash_value_typeIS7_4itemEENS_8equal_toIS7_EENS_4hashIS7_EELb1EEELi1ELb1EE5__getB8ne180100Ev, symObjAddr: 0x1637C, symBinAddr: 0x100019CF0, symSize: 0x14 }
  - { offset: 0x46C19, size: 0x8, addend: 0x0, symName: __ZNKSt3__117__compressed_pairIfNS_21__unordered_map_equalINS_12basic_stringIcNS_11char_traitsIcEENS_9allocatorIcEEEENS_17__hash_value_typeIS7_4itemEENS_8equal_toIS7_EENS_4hashIS7_EELb1EEEE5firstB8ne180100Ev, symObjAddr: 0x16390, symBinAddr: 0x100019D04, symSize: 0x24 }
  - { offset: 0x46C3F, size: 0x8, addend: 0x0, symName: __ZNSt3__117__compressed_pairIfNS_21__unordered_map_equalINS_12basic_stringIcNS_11char_traitsIcEENS_9allocatorIcEEEENS_17__hash_value_typeIS7_4itemEENS_8equal_toIS7_EENS_4hashIS7_EELb1EEEE5firstB8ne180100Ev, symObjAddr: 0x163B4, symBinAddr: 0x100019D28, symSize: 0x24 }
  - { offset: 0x46C65, size: 0x8, addend: 0x0, symName: __ZNKSt3__112__hash_tableINS_17__hash_value_typeINS_12basic_stringIcNS_11char_traitsIcEENS_9allocatorIcEEEE4itemEENS_22__unordered_map_hasherIS7_S9_NS_4hashIS7_EENS_8equal_toIS7_EELb1EEENS_21__unordered_map_equalIS7_S9_SE_SC_Lb1EEENS5_IS9_EEE12bucket_countB8ne180100Ev, symObjAddr: 0x163D8, symBinAddr: 0x100019D4C, symSize: 0x28 }
  - { offset: 0x46C8B, size: 0x8, addend: 0x0, symName: __ZNSt3__112__hash_tableINS_17__hash_value_typeINS_12basic_stringIcNS_11char_traitsIcEENS_9allocatorIcEEEE4itemEENS_22__unordered_map_hasherIS7_S9_NS_4hashIS7_EENS_8equal_toIS7_EELb1EEENS_21__unordered_map_equalIS7_S9_SE_SC_Lb1EEENS5_IS9_EEE8__detachEv, symObjAddr: 0x16400, symBinAddr: 0x100019D74, symSize: 0xB4 }
  - { offset: 0x46CEA, size: 0x8, addend: 0x0, symName: __ZNKSt3__121__hash_const_iteratorIPNS_11__hash_nodeINS_17__hash_value_typeINS_12basic_stringIcNS_11char_traitsIcEENS_9allocatorIcEEEE4itemEEPvEEEdeB8ne180100Ev, symObjAddr: 0x164E8, symBinAddr: 0x100019E5C, symSize: 0x2C }
  - { offset: 0x46D10, size: 0x8, addend: 0x0, symName: __ZNSt3__116__hash_node_baseIPNS_11__hash_nodeINS_17__hash_value_typeINS_12basic_stringIcNS_11char_traitsIcEENS_9allocatorIcEEEE4itemEEPvEEE8__upcastB8ne180100Ev, symObjAddr: 0x16514, symBinAddr: 0x100019E88, symSize: 0x24 }
  - { offset: 0x46D36, size: 0x8, addend: 0x0, symName: __ZNSt3__111__hash_nodeINS_17__hash_value_typeINS_12basic_stringIcNS_11char_traitsIcEENS_9allocatorIcEEEE4itemEEPvE11__get_valueB8ne180100Ev, symObjAddr: 0x16538, symBinAddr: 0x100019EAC, symSize: 0x18 }
  - { offset: 0x46D5C, size: 0x8, addend: 0x0, symName: __ZNSt3__117__hash_value_typeINS_12basic_stringIcNS_11char_traitsIcEENS_9allocatorIcEEEE4itemEaSB8ne180100ERKS8_, symObjAddr: 0x16550, symBinAddr: 0x100019EC4, symSize: 0x60 }
  - { offset: 0x46D92, size: 0x8, addend: 0x0, symName: __ZNSt3__112__hash_tableINS_17__hash_value_typeINS_12basic_stringIcNS_11char_traitsIcEENS_9allocatorIcEEEE4itemEENS_22__unordered_map_hasherIS7_S9_NS_4hashIS7_EENS_8equal_toIS7_EELb1EEENS_21__unordered_map_equalIS7_S9_SE_SC_Lb1EEENS5_IS9_EEE19__node_insert_multiEPNS_11__hash_nodeIS9_PvEE, symObjAddr: 0x165B0, symBinAddr: 0x100019F24, symSize: 0xA0 }
  - { offset: 0x46DDA, size: 0x8, addend: 0x0, symName: __ZNSt3__121__hash_const_iteratorIPNS_11__hash_nodeINS_17__hash_value_typeINS_12basic_stringIcNS_11char_traitsIcEENS_9allocatorIcEEEE4itemEEPvEEEppB8ne180100Ev, symObjAddr: 0x16650, symBinAddr: 0x100019FC4, symSize: 0x20 }
  - { offset: 0x46E00, size: 0x8, addend: 0x0, symName: __ZNSt3__112__hash_tableINS_17__hash_value_typeINS_12basic_stringIcNS_11char_traitsIcEENS_9allocatorIcEEEE4itemEENS_22__unordered_map_hasherIS7_S9_NS_4hashIS7_EENS_8equal_toIS7_EELb1EEENS_21__unordered_map_equalIS7_S9_SE_SC_Lb1EEENS5_IS9_EEE17__deallocate_nodeEPNS_16__hash_node_baseIPNS_11__hash_nodeIS9_PvEEEE, symObjAddr: 0x16670, symBinAddr: 0x100019FE4, symSize: 0xB4 }
  - { offset: 0x46E6F, size: 0x8, addend: 0x0, symName: __ZNSt3__112__hash_tableINS_17__hash_value_typeINS_12basic_stringIcNS_11char_traitsIcEENS_9allocatorIcEEEE4itemEENS_22__unordered_map_hasherIS7_S9_NS_4hashIS7_EENS_8equal_toIS7_EELb1EEENS_21__unordered_map_equalIS7_S9_SE_SC_Lb1EEENS5_IS9_EEE14__insert_multiB8ne180100IRKNS_4pairIKS7_S8_EEEENS_15__hash_iteratorIPNS_11__hash_nodeIS9_PvEEEEOT_, symObjAddr: 0x16724, symBinAddr: 0x10001A098, symSize: 0x34 }
  - { offset: 0x46EAE, size: 0x8, addend: 0x0, symName: __ZNSt3__122__hash_key_value_typesINS_17__hash_value_typeINS_12basic_stringIcNS_11char_traitsIcEENS_9allocatorIcEEEE4itemEEE11__get_valueB8ne180100IKS9_Li0EEERKNS_4pairIKS7_S8_EERT_, symObjAddr: 0x16758, symBinAddr: 0x10001A0CC, symSize: 0x24 }
  - { offset: 0x46EE0, size: 0x8, addend: 0x0, symName: __ZNKSt3__110unique_ptrIA_PNS_16__hash_node_baseIPNS_11__hash_nodeINS_17__hash_value_typeINS_12basic_stringIcNS_11char_traitsIcEENS_9allocatorIcEEEE4itemEEPvEEEENS_25__bucket_list_deallocatorINS7_ISG_EEEEE11get_deleterB8ne180100Ev, symObjAddr: 0x1677C, symBinAddr: 0x10001A0F0, symSize: 0x24 }
  - { offset: 0x46F06, size: 0x8, addend: 0x0, symName: __ZNKSt3__125__bucket_list_deallocatorINS_9allocatorIPNS_16__hash_node_baseIPNS_11__hash_nodeINS_17__hash_value_typeINS_12basic_stringIcNS_11char_traitsIcEENS1_IcEEEE4itemEEPvEEEEEEE4sizeB8ne180100Ev, symObjAddr: 0x167A0, symBinAddr: 0x10001A114, symSize: 0x28 }
  - { offset: 0x46F2C, size: 0x8, addend: 0x0, symName: __ZNKSt3__117__compressed_pairIPPNS_16__hash_node_baseIPNS_11__hash_nodeINS_17__hash_value_typeINS_12basic_stringIcNS_11char_traitsIcEENS_9allocatorIcEEEE4itemEEPvEEEENS_25__bucket_list_deallocatorINS7_ISG_EEEEE6secondB8ne180100Ev, symObjAddr: 0x167C8, symBinAddr: 0x10001A13C, symSize: 0x28 }
  - { offset: 0x46F52, size: 0x8, addend: 0x0, symName: __ZNKSt3__122__compressed_pair_elemINS_25__bucket_list_deallocatorINS_9allocatorIPNS_16__hash_node_baseIPNS_11__hash_nodeINS_17__hash_value_typeINS_12basic_stringIcNS_11char_traitsIcEENS2_IcEEEE4itemEEPvEEEEEEEELi1ELb0EE5__getB8ne180100Ev, symObjAddr: 0x167F0, symBinAddr: 0x10001A164, symSize: 0x14 }
  - { offset: 0x46F78, size: 0x8, addend: 0x0, symName: __ZNKSt3__117__compressed_pairImNS_9allocatorIPNS_16__hash_node_baseIPNS_11__hash_nodeINS_17__hash_value_typeINS_12basic_stringIcNS_11char_traitsIcEENS1_IcEEEE4itemEEPvEEEEEEE5firstB8ne180100Ev, symObjAddr: 0x16804, symBinAddr: 0x10001A178, symSize: 0x24 }
  - { offset: 0x46F9E, size: 0x8, addend: 0x0, symName: __ZNKSt3__110unique_ptrIA_PNS_16__hash_node_baseIPNS_11__hash_nodeINS_17__hash_value_typeINS_12basic_stringIcNS_11char_traitsIcEENS_9allocatorIcEEEE4itemEEPvEEEENS_25__bucket_list_deallocatorINS7_ISG_EEEEEixB8ne180100Em, symObjAddr: 0x16828, symBinAddr: 0x10001A19C, symSize: 0x34 }
  - { offset: 0x46FD4, size: 0x8, addend: 0x0, symName: __ZNSt3__112__hash_tableINS_17__hash_value_typeINS_12basic_stringIcNS_11char_traitsIcEENS_9allocatorIcEEEE4itemEENS_22__unordered_map_hasherIS7_S9_NS_4hashIS7_EENS_8equal_toIS7_EELb1EEENS_21__unordered_map_equalIS7_S9_SE_SC_Lb1EEENS5_IS9_EEE4sizeB8ne180100Ev, symObjAddr: 0x1685C, symBinAddr: 0x10001A1D0, symSize: 0x28 }
  - { offset: 0x46FFA, size: 0x8, addend: 0x0, symName: __ZNSt3__117__compressed_pairINS_16__hash_node_baseIPNS_11__hash_nodeINS_17__hash_value_typeINS_12basic_stringIcNS_11char_traitsIcEENS_9allocatorIcEEEE4itemEEPvEEEENS7_ISD_EEE5firstB8ne180100Ev, symObjAddr: 0x16884, symBinAddr: 0x10001A1F8, symSize: 0x24 }
  - { offset: 0x47020, size: 0x8, addend: 0x0, symName: __ZNKSt3__117__compressed_pairIPPNS_16__hash_node_baseIPNS_11__hash_nodeINS_17__hash_value_typeINS_12basic_stringIcNS_11char_traitsIcEENS_9allocatorIcEEEE4itemEEPvEEEENS_25__bucket_list_deallocatorINS7_ISG_EEEEE5firstB8ne180100Ev, symObjAddr: 0x168A8, symBinAddr: 0x10001A21C, symSize: 0x24 }
  - { offset: 0x47046, size: 0x8, addend: 0x0, symName: __ZNKSt3__122__compressed_pair_elemIPPNS_16__hash_node_baseIPNS_11__hash_nodeINS_17__hash_value_typeINS_12basic_stringIcNS_11char_traitsIcEENS_9allocatorIcEEEE4itemEEPvEEEELi0ELb0EE5__getB8ne180100Ev, symObjAddr: 0x168CC, symBinAddr: 0x10001A240, symSize: 0x14 }
  - { offset: 0x4706C, size: 0x8, addend: 0x0, symName: __ZNSt3__117__compressed_pairImNS_22__unordered_map_hasherINS_12basic_stringIcNS_11char_traitsIcEENS_9allocatorIcEEEENS_17__hash_value_typeIS7_4itemEENS_4hashIS7_EENS_8equal_toIS7_EELb1EEEE5firstB8ne180100Ev, symObjAddr: 0x168E0, symBinAddr: 0x10001A254, symSize: 0x24 }
  - { offset: 0x47092, size: 0x8, addend: 0x0, symName: __ZNSt3__122__compressed_pair_elemINS_16__hash_node_baseIPNS_11__hash_nodeINS_17__hash_value_typeINS_12basic_stringIcNS_11char_traitsIcEENS_9allocatorIcEEEE4itemEEPvEEEELi0ELb0EE5__getB8ne180100Ev, symObjAddr: 0x16904, symBinAddr: 0x10001A278, symSize: 0x14 }
  - { offset: 0x470B8, size: 0x8, addend: 0x0, symName: __ZNSt3__114pointer_traitsIPNS_16__hash_node_baseIPNS_11__hash_nodeINS_17__hash_value_typeINS_12basic_stringIcNS_11char_traitsIcEENS_9allocatorIcEEEE4itemEEPvEEEEE10pointer_toB8ne180100ERSF_, symObjAddr: 0x16948, symBinAddr: 0x10001A2BC, symSize: 0x14 }
  - { offset: 0x470DB, size: 0x8, addend: 0x0, symName: __ZNKSt3__117__hash_value_typeINS_12basic_stringIcNS_11char_traitsIcEENS_9allocatorIcEEEE4itemE11__get_valueB8ne180100Ev, symObjAddr: 0x1695C, symBinAddr: 0x10001A2D0, symSize: 0x24 }
  - { offset: 0x47101, size: 0x8, addend: 0x0, symName: __ZNSt3__117__hash_value_typeINS_12basic_stringIcNS_11char_traitsIcEENS_9allocatorIcEEEE4itemE5__refB8ne180100Ev, symObjAddr: 0x16980, symBinAddr: 0x10001A2F4, symSize: 0x44 }
  - { offset: 0x47137, size: 0x8, addend: 0x0, symName: __ZNSt3__14pairIRNS_12basic_stringIcNS_11char_traitsIcEENS_9allocatorIcEEEER4itemEaSB8ne180100IKS6_S8_LPv0EEERSA_RKNS0_IT_T0_EE, symObjAddr: 0x169C4, symBinAddr: 0x10001A338, symSize: 0x4C }
  - { offset: 0x47185, size: 0x8, addend: 0x0, symName: __ZNSt3__117__hash_value_typeINS_12basic_stringIcNS_11char_traitsIcEENS_9allocatorIcEEEE4itemE11__get_valueB8ne180100Ev, symObjAddr: 0x16A48, symBinAddr: 0x10001A3BC, symSize: 0x24 }
  - { offset: 0x471AB, size: 0x8, addend: 0x0, symName: __ZNSt3__14pairIRNS_12basic_stringIcNS_11char_traitsIcEENS_9allocatorIcEEEER4itemEC1B8ne180100ILb1ELi0EEES7_S9_, symObjAddr: 0x16A6C, symBinAddr: 0x10001A3E0, symSize: 0x3C }
  - { offset: 0x47201, size: 0x8, addend: 0x0, symName: __ZNSt3__14pairIRNS_12basic_stringIcNS_11char_traitsIcEENS_9allocatorIcEEEER4itemEC2B8ne180100ILb1ELi0EEES7_S9_, symObjAddr: 0x16AE0, symBinAddr: 0x10001A454, symSize: 0x2C }
  - { offset: 0x47257, size: 0x8, addend: 0x0, symName: __ZNKSt3__122__unordered_map_hasherINS_12basic_stringIcNS_11char_traitsIcEENS_9allocatorIcEEEENS_17__hash_value_typeIS6_4itemEENS_4hashIS6_EENS_8equal_toIS6_EELb1EEclB8ne180100ERKS9_, symObjAddr: 0x16B0C, symBinAddr: 0x10001A480, symSize: 0x3C }
  - { offset: 0x4728D, size: 0x8, addend: 0x0, symName: __ZNSt3__112__hash_tableINS_17__hash_value_typeINS_12basic_stringIcNS_11char_traitsIcEENS_9allocatorIcEEEE4itemEENS_22__unordered_map_hasherIS7_S9_NS_4hashIS7_EENS_8equal_toIS7_EELb1EEENS_21__unordered_map_equalIS7_S9_SE_SC_Lb1EEENS5_IS9_EEE27__node_insert_multi_prepareEmRS9_, symObjAddr: 0x16B48, symBinAddr: 0x10001A4BC, symSize: 0x29C }
  - { offset: 0x47325, size: 0x8, addend: 0x0, symName: __ZNKSt3__116__hash_node_baseIPNS_11__hash_nodeINS_17__hash_value_typeINS_12basic_stringIcNS_11char_traitsIcEENS_9allocatorIcEEEE4itemEEPvEEE6__hashB8ne180100Ev, symObjAddr: 0x16DE4, symBinAddr: 0x10001A758, symSize: 0x18 }
  - { offset: 0x4734B, size: 0x8, addend: 0x0, symName: __ZNSt3__112__hash_tableINS_17__hash_value_typeINS_12basic_stringIcNS_11char_traitsIcEENS_9allocatorIcEEEE4itemEENS_22__unordered_map_hasherIS7_S9_NS_4hashIS7_EENS_8equal_toIS7_EELb1EEENS_21__unordered_map_equalIS7_S9_SE_SC_Lb1EEENS5_IS9_EEE27__node_insert_multi_performEPNS_11__hash_nodeIS9_PvEEPNS_16__hash_node_baseISN_EE, symObjAddr: 0x16DFC, symBinAddr: 0x10001A770, symSize: 0x1B8 }
  - { offset: 0x473D2, size: 0x8, addend: 0x0, symName: __ZNSt3__116__hash_node_baseIPNS_11__hash_nodeINS_17__hash_value_typeINS_12basic_stringIcNS_11char_traitsIcEENS_9allocatorIcEEEE4itemEEPvEEE5__ptrB8ne180100Ev, symObjAddr: 0x16FB4, symBinAddr: 0x10001A928, symSize: 0x24 }
  - { offset: 0x473F8, size: 0x8, addend: 0x0, symName: __ZNSt3__115__hash_iteratorIPNS_11__hash_nodeINS_17__hash_value_typeINS_12basic_stringIcNS_11char_traitsIcEENS_9allocatorIcEEEE4itemEEPvEEEC1B8ne180100EPNS_16__hash_node_baseISD_EE, symObjAddr: 0x16FD8, symBinAddr: 0x10001A94C, symSize: 0x34 }
  - { offset: 0x47432, size: 0x8, addend: 0x0, symName: __ZNSt3__112__hash_tableINS_17__hash_value_typeINS_12basic_stringIcNS_11char_traitsIcEENS_9allocatorIcEEEE4itemEENS_22__unordered_map_hasherIS7_S9_NS_4hashIS7_EENS_8equal_toIS7_EELb1EEENS_21__unordered_map_equalIS7_S9_SE_SC_Lb1EEENS5_IS9_EEE14__rehash_multiB8ne180100Em, symObjAddr: 0x1700C, symBinAddr: 0x10001A980, symSize: 0x2C }
  - { offset: 0x47468, size: 0x8, addend: 0x0, symName: __ZNKSt3__121__unordered_map_equalINS_12basic_stringIcNS_11char_traitsIcEENS_9allocatorIcEEEENS_17__hash_value_typeIS6_4itemEENS_8equal_toIS6_EENS_4hashIS6_EELb1EEclB8ne180100ERKS9_SG_, symObjAddr: 0x17038, symBinAddr: 0x10001A9AC, symSize: 0x54 }
  - { offset: 0x474AE, size: 0x8, addend: 0x0, symName: __ZNSt3__112__hash_tableINS_17__hash_value_typeINS_12basic_stringIcNS_11char_traitsIcEENS_9allocatorIcEEEE4itemEENS_22__unordered_map_hasherIS7_S9_NS_4hashIS7_EENS_8equal_toIS7_EELb1EEENS_21__unordered_map_equalIS7_S9_SE_SC_Lb1EEENS5_IS9_EEE8__rehashILb0EEEvm, symObjAddr: 0x1708C, symBinAddr: 0x10001AA00, symSize: 0x1A8 }
  - { offset: 0x47500, size: 0x8, addend: 0x0, symName: __ZNSt3__112__hash_tableINS_17__hash_value_typeINS_12basic_stringIcNS_11char_traitsIcEENS_9allocatorIcEEEE4itemEENS_22__unordered_map_hasherIS7_S9_NS_4hashIS7_EENS_8equal_toIS7_EELb1EEENS_21__unordered_map_equalIS7_S9_SE_SC_Lb1EEENS5_IS9_EEE11__do_rehashILb0EEEvm, symObjAddr: 0x17234, symBinAddr: 0x10001ABA8, symSize: 0x310 }
  - { offset: 0x475EF, size: 0x8, addend: 0x0, symName: __ZNSt3__110unique_ptrIA_PNS_16__hash_node_baseIPNS_11__hash_nodeINS_17__hash_value_typeINS_12basic_stringIcNS_11char_traitsIcEENS_9allocatorIcEEEE4itemEEPvEEEENS_25__bucket_list_deallocatorINS7_ISG_EEEEE11get_deleterB8ne180100Ev, symObjAddr: 0x17544, symBinAddr: 0x10001AEB8, symSize: 0x24 }
  - { offset: 0x47615, size: 0x8, addend: 0x0, symName: __ZNSt3__125__bucket_list_deallocatorINS_9allocatorIPNS_16__hash_node_baseIPNS_11__hash_nodeINS_17__hash_value_typeINS_12basic_stringIcNS_11char_traitsIcEENS1_IcEEEE4itemEEPvEEEEEEE7__allocB8ne180100Ev, symObjAddr: 0x17568, symBinAddr: 0x10001AEDC, symSize: 0x24 }
  - { offset: 0x4763B, size: 0x8, addend: 0x0, symName: __ZNSt3__110unique_ptrIA_PNS_16__hash_node_baseIPNS_11__hash_nodeINS_17__hash_value_typeINS_12basic_stringIcNS_11char_traitsIcEENS_9allocatorIcEEEE4itemEEPvEEEENS_25__bucket_list_deallocatorINS7_ISG_EEEEE5resetB8ne180100IPSG_Li0EEEvT_, symObjAddr: 0x1758C, symBinAddr: 0x10001AF00, symSize: 0x78 }
  - { offset: 0x47690, size: 0x8, addend: 0x0, symName: __ZNSt3__116allocator_traitsINS_9allocatorIPNS_16__hash_node_baseIPNS_11__hash_nodeINS_17__hash_value_typeINS_12basic_stringIcNS_11char_traitsIcEENS1_IcEEEE4itemEEPvEEEEEEE8allocateB8ne180100ERSH_m, symObjAddr: 0x17604, symBinAddr: 0x10001AF78, symSize: 0x2C }
  - { offset: 0x476C5, size: 0x8, addend: 0x0, symName: __ZNSt3__125__bucket_list_deallocatorINS_9allocatorIPNS_16__hash_node_baseIPNS_11__hash_nodeINS_17__hash_value_typeINS_12basic_stringIcNS_11char_traitsIcEENS1_IcEEEE4itemEEPvEEEEEEE4sizeB8ne180100Ev, symObjAddr: 0x17630, symBinAddr: 0x10001AFA4, symSize: 0x24 }
  - { offset: 0x476EB, size: 0x8, addend: 0x0, symName: __ZNSt3__117__compressed_pairIPPNS_16__hash_node_baseIPNS_11__hash_nodeINS_17__hash_value_typeINS_12basic_stringIcNS_11char_traitsIcEENS_9allocatorIcEEEE4itemEEPvEEEENS_25__bucket_list_deallocatorINS7_ISG_EEEEE6secondB8ne180100Ev, symObjAddr: 0x17654, symBinAddr: 0x10001AFC8, symSize: 0x28 }
  - { offset: 0x47711, size: 0x8, addend: 0x0, symName: __ZNSt3__122__compressed_pair_elemINS_25__bucket_list_deallocatorINS_9allocatorIPNS_16__hash_node_baseIPNS_11__hash_nodeINS_17__hash_value_typeINS_12basic_stringIcNS_11char_traitsIcEENS2_IcEEEE4itemEEPvEEEEEEEELi1ELb0EE5__getB8ne180100Ev, symObjAddr: 0x1767C, symBinAddr: 0x10001AFF0, symSize: 0x14 }
  - { offset: 0x47737, size: 0x8, addend: 0x0, symName: __ZNSt3__117__compressed_pairImNS_9allocatorIPNS_16__hash_node_baseIPNS_11__hash_nodeINS_17__hash_value_typeINS_12basic_stringIcNS_11char_traitsIcEENS1_IcEEEE4itemEEPvEEEEEEE6secondB8ne180100Ev, symObjAddr: 0x17690, symBinAddr: 0x10001B004, symSize: 0x24 }
  - { offset: 0x4775D, size: 0x8, addend: 0x0, symName: __ZNSt3__122__compressed_pair_elemINS_9allocatorIPNS_16__hash_node_baseIPNS_11__hash_nodeINS_17__hash_value_typeINS_12basic_stringIcNS_11char_traitsIcEENS1_IcEEEE4itemEEPvEEEEEELi1ELb1EE5__getB8ne180100Ev, symObjAddr: 0x176B4, symBinAddr: 0x10001B028, symSize: 0x14 }
  - { offset: 0x47783, size: 0x8, addend: 0x0, symName: __ZNSt3__117__compressed_pairIPPNS_16__hash_node_baseIPNS_11__hash_nodeINS_17__hash_value_typeINS_12basic_stringIcNS_11char_traitsIcEENS_9allocatorIcEEEE4itemEEPvEEEENS_25__bucket_list_deallocatorINS7_ISG_EEEEE5firstB8ne180100Ev, symObjAddr: 0x176C8, symBinAddr: 0x10001B03C, symSize: 0x24 }
  - { offset: 0x477A9, size: 0x8, addend: 0x0, symName: __ZNSt3__125__bucket_list_deallocatorINS_9allocatorIPNS_16__hash_node_baseIPNS_11__hash_nodeINS_17__hash_value_typeINS_12basic_stringIcNS_11char_traitsIcEENS1_IcEEEE4itemEEPvEEEEEEEclB8ne180100EPSG_, symObjAddr: 0x176EC, symBinAddr: 0x10001B060, symSize: 0x58 }
  - { offset: 0x477DF, size: 0x8, addend: 0x0, symName: __ZNSt3__122__compressed_pair_elemIPPNS_16__hash_node_baseIPNS_11__hash_nodeINS_17__hash_value_typeINS_12basic_stringIcNS_11char_traitsIcEENS_9allocatorIcEEEE4itemEEPvEEEELi0ELb0EE5__getB8ne180100Ev, symObjAddr: 0x17744, symBinAddr: 0x10001B0B8, symSize: 0x14 }
  - { offset: 0x47805, size: 0x8, addend: 0x0, symName: __ZNSt3__116allocator_traitsINS_9allocatorIPNS_16__hash_node_baseIPNS_11__hash_nodeINS_17__hash_value_typeINS_12basic_stringIcNS_11char_traitsIcEENS1_IcEEEE4itemEEPvEEEEEEE10deallocateB8ne180100ERSH_PSG_m, symObjAddr: 0x17758, symBinAddr: 0x10001B0CC, symSize: 0x34 }
  - { offset: 0x4784A, size: 0x8, addend: 0x0, symName: __ZNSt3__19allocatorIPNS_16__hash_node_baseIPNS_11__hash_nodeINS_17__hash_value_typeINS_12basic_stringIcNS_11char_traitsIcEENS0_IcEEEE4itemEEPvEEEEE10deallocateB8ne180100EPSF_m, symObjAddr: 0x1778C, symBinAddr: 0x10001B100, symSize: 0x40 }
  - { offset: 0x4788C, size: 0x8, addend: 0x0, symName: __ZNSt3__19allocatorIPNS_16__hash_node_baseIPNS_11__hash_nodeINS_17__hash_value_typeINS_12basic_stringIcNS_11char_traitsIcEENS0_IcEEEE4itemEEPvEEEEE8allocateB8ne180100Em, symObjAddr: 0x177CC, symBinAddr: 0x10001B140, symSize: 0x58 }
  - { offset: 0x478CA, size: 0x8, addend: 0x0, symName: __ZNSt3__116allocator_traitsINS_9allocatorIPNS_16__hash_node_baseIPNS_11__hash_nodeINS_17__hash_value_typeINS_12basic_stringIcNS_11char_traitsIcEENS1_IcEEEE4itemEEPvEEEEEEE8max_sizeB8ne180100ISH_vEEmRKSH_, symObjAddr: 0x17824, symBinAddr: 0x10001B198, symSize: 0x24 }
  - { offset: 0x478F9, size: 0x8, addend: 0x0, symName: __ZNKSt3__19allocatorIPNS_16__hash_node_baseIPNS_11__hash_nodeINS_17__hash_value_typeINS_12basic_stringIcNS_11char_traitsIcEENS0_IcEEEE4itemEEPvEEEEE8max_sizeB8ne180100Ev, symObjAddr: 0x17848, symBinAddr: 0x10001B1BC, symSize: 0x14 }
  - { offset: 0x4791F, size: 0x8, addend: 0x0, symName: __ZNSt3__117__compressed_pairImNS_9allocatorIPNS_16__hash_node_baseIPNS_11__hash_nodeINS_17__hash_value_typeINS_12basic_stringIcNS_11char_traitsIcEENS1_IcEEEE4itemEEPvEEEEEEE5firstB8ne180100Ev, symObjAddr: 0x1785C, symBinAddr: 0x10001B1D0, symSize: 0x24 }
  - { offset: 0x47945, size: 0x8, addend: 0x0, symName: __ZNSt3__115__hash_iteratorIPNS_11__hash_nodeINS_17__hash_value_typeINS_12basic_stringIcNS_11char_traitsIcEENS_9allocatorIcEEEE4itemEEPvEEEC2B8ne180100EPNS_16__hash_node_baseISD_EE, symObjAddr: 0x17880, symBinAddr: 0x10001B1F4, symSize: 0x20 }
  - { offset: 0x4797F, size: 0x8, addend: 0x0, symName: __ZNSt3__112__hash_tableINS_17__hash_value_typeINS_12basic_stringIcNS_11char_traitsIcEENS_9allocatorIcEEEE4itemEENS_22__unordered_map_hasherIS7_S9_NS_4hashIS7_EENS_8equal_toIS7_EELb1EEENS_21__unordered_map_equalIS7_S9_SE_SC_Lb1EEENS5_IS9_EEE12__node_allocB8ne180100Ev, symObjAddr: 0x178A0, symBinAddr: 0x10001B214, symSize: 0x28 }
  - { offset: 0x479A5, size: 0x8, addend: 0x0, symName: __ZNSt3__116allocator_traitsINS_9allocatorINS_11__hash_nodeINS_17__hash_value_typeINS_12basic_stringIcNS_11char_traitsIcEENS1_IcEEEE4itemEEPvEEEEE7destroyB8ne180100INS_4pairIKS8_S9_EEvvEEvRSD_PT_, symObjAddr: 0x178C8, symBinAddr: 0x10001B23C, symSize: 0x28 }
  - { offset: 0x479E1, size: 0x8, addend: 0x0, symName: __ZNSt3__122__hash_key_value_typesINS_17__hash_value_typeINS_12basic_stringIcNS_11char_traitsIcEENS_9allocatorIcEEEE4itemEEE9__get_ptrB8ne180100ERS9_, symObjAddr: 0x178F0, symBinAddr: 0x10001B264, symSize: 0x24 }
  - { offset: 0x47A04, size: 0x8, addend: 0x0, symName: __ZNSt3__116allocator_traitsINS_9allocatorINS_11__hash_nodeINS_17__hash_value_typeINS_12basic_stringIcNS_11char_traitsIcEENS1_IcEEEE4itemEEPvEEEEE10deallocateB8ne180100ERSD_PSC_m, symObjAddr: 0x17938, symBinAddr: 0x10001B2AC, symSize: 0x34 }
  - { offset: 0x47A49, size: 0x8, addend: 0x0, symName: __ZNSt3__117__compressed_pairINS_16__hash_node_baseIPNS_11__hash_nodeINS_17__hash_value_typeINS_12basic_stringIcNS_11char_traitsIcEENS_9allocatorIcEEEE4itemEEPvEEEENS7_ISD_EEE6secondB8ne180100Ev, symObjAddr: 0x1796C, symBinAddr: 0x10001B2E0, symSize: 0x24 }
  - { offset: 0x47A6F, size: 0x8, addend: 0x0, symName: __ZNSt3__122__compressed_pair_elemINS_9allocatorINS_11__hash_nodeINS_17__hash_value_typeINS_12basic_stringIcNS_11char_traitsIcEENS1_IcEEEE4itemEEPvEEEELi1ELb1EE5__getB8ne180100Ev, symObjAddr: 0x17990, symBinAddr: 0x10001B304, symSize: 0x14 }
  - { offset: 0x47A95, size: 0x8, addend: 0x0, symName: __ZNSt3__14pairIKNS_12basic_stringIcNS_11char_traitsIcEENS_9allocatorIcEEEE4itemED1Ev, symObjAddr: 0x179C8, symBinAddr: 0x10001B33C, symSize: 0x2C }
  - { offset: 0x47AC1, size: 0x8, addend: 0x0, symName: __ZNSt3__14pairIKNS_12basic_stringIcNS_11char_traitsIcEENS_9allocatorIcEEEE4itemED2Ev, symObjAddr: 0x179F4, symBinAddr: 0x10001B368, symSize: 0x38 }
  - { offset: 0x47AED, size: 0x8, addend: 0x0, symName: __ZNSt3__111__hash_nodeINS_17__hash_value_typeINS_12basic_stringIcNS_11char_traitsIcEENS_9allocatorIcEEEE4itemEEPvED1B8ne180100Ev, symObjAddr: 0x17A2C, symBinAddr: 0x10001B3A0, symSize: 0x2C }
  - { offset: 0x47B17, size: 0x8, addend: 0x0, symName: __ZNSt3__111__hash_nodeINS_17__hash_value_typeINS_12basic_stringIcNS_11char_traitsIcEENS_9allocatorIcEEEE4itemEEPvED2B8ne180100Ev, symObjAddr: 0x17A58, symBinAddr: 0x10001B3CC, symSize: 0x14 }
  - { offset: 0x47B41, size: 0x8, addend: 0x0, symName: __ZNSt3__19allocatorINS_11__hash_nodeINS_17__hash_value_typeINS_12basic_stringIcNS_11char_traitsIcEENS0_IcEEEE4itemEEPvEEE10deallocateB8ne180100EPSB_m, symObjAddr: 0x17A6C, symBinAddr: 0x10001B3E0, symSize: 0x44 }
  - { offset: 0x47B83, size: 0x8, addend: 0x0, symName: __ZNSt3__112__hash_tableINS_17__hash_value_typeINS_12basic_stringIcNS_11char_traitsIcEENS_9allocatorIcEEEE4itemEENS_22__unordered_map_hasherIS7_S9_NS_4hashIS7_EENS_8equal_toIS7_EELb1EEENS_21__unordered_map_equalIS7_S9_SE_SC_Lb1EEENS5_IS9_EEE15__emplace_multiIJRKNS_4pairIKS7_S8_EEEEENS_15__hash_iteratorIPNS_11__hash_nodeIS9_PvEEEEDpOT_, symObjAddr: 0x17AB0, symBinAddr: 0x10001B424, symSize: 0x94 }
  - { offset: 0x47BE6, size: 0x8, addend: 0x0, symName: __ZNSt3__112__hash_tableINS_17__hash_value_typeINS_12basic_stringIcNS_11char_traitsIcEENS_9allocatorIcEEEE4itemEENS_22__unordered_map_hasherIS7_S9_NS_4hashIS7_EENS_8equal_toIS7_EELb1EEENS_21__unordered_map_equalIS7_S9_SE_SC_Lb1EEENS5_IS9_EEE16__construct_nodeIJRKNS_4pairIKS7_S8_EEEEENS_10unique_ptrINS_11__hash_nodeIS9_PvEENS_22__hash_node_destructorINS5_IST_EEEEEEDpOT_, symObjAddr: 0x17B44, symBinAddr: 0x10001B4B8, symSize: 0x180 }
  - { offset: 0x47C4A, size: 0x8, addend: 0x0, symName: __ZNKSt3__110unique_ptrINS_11__hash_nodeINS_17__hash_value_typeINS_12basic_stringIcNS_11char_traitsIcEENS_9allocatorIcEEEE4itemEEPvEENS_22__hash_node_destructorINS6_ISC_EEEEE3getB8ne180100Ev, symObjAddr: 0x17CC4, symBinAddr: 0x10001B638, symSize: 0x28 }
  - { offset: 0x47C70, size: 0x8, addend: 0x0, symName: __ZNSt3__110unique_ptrINS_11__hash_nodeINS_17__hash_value_typeINS_12basic_stringIcNS_11char_traitsIcEENS_9allocatorIcEEEE4itemEEPvEENS_22__hash_node_destructorINS6_ISC_EEEEE7releaseB8ne180100Ev, symObjAddr: 0x17CEC, symBinAddr: 0x10001B660, symSize: 0x44 }
  - { offset: 0x47CA6, size: 0x8, addend: 0x0, symName: __ZNSt3__110unique_ptrINS_11__hash_nodeINS_17__hash_value_typeINS_12basic_stringIcNS_11char_traitsIcEENS_9allocatorIcEEEE4itemEEPvEENS_22__hash_node_destructorINS6_ISC_EEEEED1B8ne180100Ev, symObjAddr: 0x17D30, symBinAddr: 0x10001B6A4, symSize: 0x2C }
  - { offset: 0x47CD0, size: 0x8, addend: 0x0, symName: __ZNSt3__116allocator_traitsINS_9allocatorINS_11__hash_nodeINS_17__hash_value_typeINS_12basic_stringIcNS_11char_traitsIcEENS1_IcEEEE4itemEEPvEEEEE8allocateB8ne180100ERSD_m, symObjAddr: 0x17D5C, symBinAddr: 0x10001B6D0, symSize: 0x2C }
  - { offset: 0x47D05, size: 0x8, addend: 0x0, symName: __ZNSt3__122__hash_node_destructorINS_9allocatorINS_11__hash_nodeINS_17__hash_value_typeINS_12basic_stringIcNS_11char_traitsIcEENS1_IcEEEE4itemEEPvEEEEEC1B8ne180100ERSD_b, symObjAddr: 0x17D88, symBinAddr: 0x10001B6FC, symSize: 0x48 }
  - { offset: 0x47D54, size: 0x8, addend: 0x0, symName: __ZNSt3__110unique_ptrINS_11__hash_nodeINS_17__hash_value_typeINS_12basic_stringIcNS_11char_traitsIcEENS_9allocatorIcEEEE4itemEEPvEENS_22__hash_node_destructorINS6_ISC_EEEEEC1B8ne180100ILb1EvEEPSC_NS_16__dependent_typeINS_27__unique_ptr_deleter_sfinaeISF_EEXT_EE20__good_rval_ref_typeE, symObjAddr: 0x17DD0, symBinAddr: 0x10001B744, symSize: 0x3C }
  - { offset: 0x47DA5, size: 0x8, addend: 0x0, symName: __ZNKSt3__110unique_ptrINS_11__hash_nodeINS_17__hash_value_typeINS_12basic_stringIcNS_11char_traitsIcEENS_9allocatorIcEEEE4itemEEPvEENS_22__hash_node_destructorINS6_ISC_EEEEEdeB8ne180100Ev, symObjAddr: 0x17E4C, symBinAddr: 0x10001B7C0, symSize: 0x28 }
  - { offset: 0x47DCB, size: 0x8, addend: 0x0, symName: __ZNSt3__116allocator_traitsINS_9allocatorINS_11__hash_nodeINS_17__hash_value_typeINS_12basic_stringIcNS_11char_traitsIcEENS1_IcEEEE4itemEEPvEEEEE9constructB8ne180100INS_4pairIKS8_S9_EEJRKSI_EvEEvRSD_PT_DpOT0_, symObjAddr: 0x17E74, symBinAddr: 0x10001B7E8, symSize: 0x34 }
  - { offset: 0x47E25, size: 0x8, addend: 0x0, symName: __ZNKSt3__110unique_ptrINS_11__hash_nodeINS_17__hash_value_typeINS_12basic_stringIcNS_11char_traitsIcEENS_9allocatorIcEEEE4itemEEPvEENS_22__hash_node_destructorINS6_ISC_EEEEEptB8ne180100Ev, symObjAddr: 0x17EA8, symBinAddr: 0x10001B81C, symSize: 0x28 }
  - { offset: 0x47E4B, size: 0x8, addend: 0x0, symName: __ZNSt3__110unique_ptrINS_11__hash_nodeINS_17__hash_value_typeINS_12basic_stringIcNS_11char_traitsIcEENS_9allocatorIcEEEE4itemEEPvEENS_22__hash_node_destructorINS6_ISC_EEEEE11get_deleterB8ne180100Ev, symObjAddr: 0x17ED0, symBinAddr: 0x10001B844, symSize: 0x24 }
  - { offset: 0x47E71, size: 0x8, addend: 0x0, symName: __ZNSt3__19allocatorINS_11__hash_nodeINS_17__hash_value_typeINS_12basic_stringIcNS_11char_traitsIcEENS0_IcEEEE4itemEEPvEEE8allocateB8ne180100Em, symObjAddr: 0x17EF4, symBinAddr: 0x10001B868, symSize: 0x5C }
  - { offset: 0x47EAF, size: 0x8, addend: 0x0, symName: __ZNSt3__116allocator_traitsINS_9allocatorINS_11__hash_nodeINS_17__hash_value_typeINS_12basic_stringIcNS_11char_traitsIcEENS1_IcEEEE4itemEEPvEEEEE8max_sizeB8ne180100ISD_vEEmRKSD_, symObjAddr: 0x17F50, symBinAddr: 0x10001B8C4, symSize: 0x24 }
  - { offset: 0x47EDE, size: 0x8, addend: 0x0, symName: __ZNKSt3__19allocatorINS_11__hash_nodeINS_17__hash_value_typeINS_12basic_stringIcNS_11char_traitsIcEENS0_IcEEEE4itemEEPvEEE8max_sizeB8ne180100Ev, symObjAddr: 0x17F74, symBinAddr: 0x10001B8E8, symSize: 0x18 }
  - { offset: 0x47F04, size: 0x8, addend: 0x0, symName: __ZNSt3__122__hash_node_destructorINS_9allocatorINS_11__hash_nodeINS_17__hash_value_typeINS_12basic_stringIcNS_11char_traitsIcEENS1_IcEEEE4itemEEPvEEEEEC2B8ne180100ERSD_b, symObjAddr: 0x17F8C, symBinAddr: 0x10001B900, symSize: 0x38 }
  - { offset: 0x47F4E, size: 0x8, addend: 0x0, symName: __ZNSt3__110unique_ptrINS_11__hash_nodeINS_17__hash_value_typeINS_12basic_stringIcNS_11char_traitsIcEENS_9allocatorIcEEEE4itemEEPvEENS_22__hash_node_destructorINS6_ISC_EEEEEC2B8ne180100ILb1EvEEPSC_NS_16__dependent_typeINS_27__unique_ptr_deleter_sfinaeISF_EEXT_EE20__good_rval_ref_typeE, symObjAddr: 0x17FC4, symBinAddr: 0x10001B938, symSize: 0x48 }
  - { offset: 0x47F9F, size: 0x8, addend: 0x0, symName: __ZNSt3__117__compressed_pairIPNS_11__hash_nodeINS_17__hash_value_typeINS_12basic_stringIcNS_11char_traitsIcEENS_9allocatorIcEEEE4itemEEPvEENS_22__hash_node_destructorINS6_ISC_EEEEEC1B8ne180100IRSD_SG_EEOT_OT0_, symObjAddr: 0x1800C, symBinAddr: 0x10001B980, symSize: 0x3C }
  - { offset: 0x47FF7, size: 0x8, addend: 0x0, symName: __ZNSt3__117__compressed_pairIPNS_11__hash_nodeINS_17__hash_value_typeINS_12basic_stringIcNS_11char_traitsIcEENS_9allocatorIcEEEE4itemEEPvEENS_22__hash_node_destructorINS6_ISC_EEEEEC2B8ne180100IRSD_SG_EEOT_OT0_, symObjAddr: 0x18048, symBinAddr: 0x10001B9BC, symSize: 0x48 }
  - { offset: 0x4804F, size: 0x8, addend: 0x0, symName: __ZNSt3__122__compressed_pair_elemIPNS_11__hash_nodeINS_17__hash_value_typeINS_12basic_stringIcNS_11char_traitsIcEENS_9allocatorIcEEEE4itemEEPvEELi0ELb0EEC2B8ne180100IRSD_vEEOT_, symObjAddr: 0x18090, symBinAddr: 0x10001BA04, symSize: 0x24 }
  - { offset: 0x48091, size: 0x8, addend: 0x0, symName: __ZNSt3__122__compressed_pair_elemINS_22__hash_node_destructorINS_9allocatorINS_11__hash_nodeINS_17__hash_value_typeINS_12basic_stringIcNS_11char_traitsIcEENS2_IcEEEE4itemEEPvEEEEEELi1ELb0EEC2B8ne180100ISF_vEEOT_, symObjAddr: 0x180B4, symBinAddr: 0x10001BA28, symSize: 0x24 }
  - { offset: 0x480D3, size: 0x8, addend: 0x0, symName: __ZNSt3__111__hash_nodeINS_17__hash_value_typeINS_12basic_stringIcNS_11char_traitsIcEENS_9allocatorIcEEEE4itemEEPvEC1B8ne180100EPNS_16__hash_node_baseIPSB_EEm, symObjAddr: 0x180D8, symBinAddr: 0x10001BA4C, symSize: 0x3C }
  - { offset: 0x48119, size: 0x8, addend: 0x0, symName: __ZNSt3__111__hash_nodeINS_17__hash_value_typeINS_12basic_stringIcNS_11char_traitsIcEENS_9allocatorIcEEEE4itemEEPvEC2B8ne180100EPNS_16__hash_node_baseIPSB_EEm, symObjAddr: 0x18114, symBinAddr: 0x10001BA88, symSize: 0x40 }
  - { offset: 0x4815F, size: 0x8, addend: 0x0, symName: __ZNSt3__116__hash_node_baseIPNS_11__hash_nodeINS_17__hash_value_typeINS_12basic_stringIcNS_11char_traitsIcEENS_9allocatorIcEEEE4itemEEPvEEEC2B8ne180100EPSE_, symObjAddr: 0x18154, symBinAddr: 0x10001BAC8, symSize: 0x20 }
  - { offset: 0x48197, size: 0x8, addend: 0x0, symName: __ZNKSt3__117__compressed_pairIPNS_11__hash_nodeINS_17__hash_value_typeINS_12basic_stringIcNS_11char_traitsIcEENS_9allocatorIcEEEE4itemEEPvEENS_22__hash_node_destructorINS6_ISC_EEEEE5firstB8ne180100Ev, symObjAddr: 0x18174, symBinAddr: 0x10001BAE8, symSize: 0x24 }
  - { offset: 0x481BD, size: 0x8, addend: 0x0, symName: __ZNKSt3__122__compressed_pair_elemIPNS_11__hash_nodeINS_17__hash_value_typeINS_12basic_stringIcNS_11char_traitsIcEENS_9allocatorIcEEEE4itemEEPvEELi0ELb0EE5__getB8ne180100Ev, symObjAddr: 0x18198, symBinAddr: 0x10001BB0C, symSize: 0x14 }
  - { offset: 0x481E3, size: 0x8, addend: 0x0, symName: __ZNSt3__19allocatorINS_11__hash_nodeINS_17__hash_value_typeINS_12basic_stringIcNS_11char_traitsIcEENS0_IcEEEE4itemEEPvEEE9constructB8ne180100INS_4pairIKS7_S8_EEJRKSG_EEEvPT_DpOT0_, symObjAddr: 0x181AC, symBinAddr: 0x10001BB20, symSize: 0x30 }
  - { offset: 0x48239, size: 0x8, addend: 0x0, symName: __ZNSt3__14pairIKNS_12basic_stringIcNS_11char_traitsIcEENS_9allocatorIcEEEE4itemEC1B8ne180100ERKS9_, symObjAddr: 0x181DC, symBinAddr: 0x10001BB50, symSize: 0x34 }
  - { offset: 0x4826E, size: 0x8, addend: 0x0, symName: __ZNSt3__14pairIKNS_12basic_stringIcNS_11char_traitsIcEENS_9allocatorIcEEEE4itemEC2B8ne180100ERKS9_, symObjAddr: 0x18210, symBinAddr: 0x10001BB84, symSize: 0x70 }
  - { offset: 0x482A3, size: 0x8, addend: 0x0, symName: __ZN4itemC1ERKS_, symObjAddr: 0x18280, symBinAddr: 0x10001BBF4, symSize: 0x34 }
  - { offset: 0x482D8, size: 0x8, addend: 0x0, symName: __ZN4itemC2ERKS_, symObjAddr: 0x182B4, symBinAddr: 0x10001BC28, symSize: 0xEC }
  - { offset: 0x4830D, size: 0x8, addend: 0x0, symName: __ZNSt3__113unordered_mapINS_12basic_stringIcNS_11char_traitsIcEENS_9allocatorIcEEEE4itemNS_4hashIS6_EENS_8equal_toIS6_EENS4_INS_4pairIKS6_S7_EEEEEC1ERKSG_, symObjAddr: 0x183A0, symBinAddr: 0x10001BD14, symSize: 0x34 }
  - { offset: 0x48349, size: 0x8, addend: 0x0, symName: __ZNSt3__113unordered_mapINS_12basic_stringIcNS_11char_traitsIcEENS_9allocatorIcEEEE4itemNS_4hashIS6_EENS_8equal_toIS6_EENS4_INS_4pairIKS6_S7_EEEEEC2ERKSG_, symObjAddr: 0x183D4, symBinAddr: 0x10001BD48, symSize: 0xA0 }
  - { offset: 0x48385, size: 0x8, addend: 0x0, symName: __ZNSt3__112__hash_tableINS_17__hash_value_typeINS_12basic_stringIcNS_11char_traitsIcEENS_9allocatorIcEEEE4itemEENS_22__unordered_map_hasherIS7_S9_NS_4hashIS7_EENS_8equal_toIS7_EELb1EEENS_21__unordered_map_equalIS7_S9_SE_SC_Lb1EEENS5_IS9_EEEC1ERKSJ_, symObjAddr: 0x18474, symBinAddr: 0x10001BDE8, symSize: 0x34 }
  - { offset: 0x483C1, size: 0x8, addend: 0x0, symName: __ZNSt3__112__hash_tableINS_17__hash_value_typeINS_12basic_stringIcNS_11char_traitsIcEENS_9allocatorIcEEEE4itemEENS_22__unordered_map_hasherIS7_S9_NS_4hashIS7_EENS_8equal_toIS7_EELb1EEENS_21__unordered_map_equalIS7_S9_SE_SC_Lb1EEENS5_IS9_EEE15__rehash_uniqueB8ne180100Em, symObjAddr: 0x184A8, symBinAddr: 0x10001BE1C, symSize: 0x2C }
  - { offset: 0x483F7, size: 0x8, addend: 0x0, symName: __ZNKSt3__113unordered_mapINS_12basic_stringIcNS_11char_traitsIcEENS_9allocatorIcEEEE4itemNS_4hashIS6_EENS_8equal_toIS6_EENS4_INS_4pairIKS6_S7_EEEEE12bucket_countB8ne180100Ev, symObjAddr: 0x184D4, symBinAddr: 0x10001BE48, symSize: 0x24 }
  - { offset: 0x4841D, size: 0x8, addend: 0x0, symName: __ZNSt3__113unordered_mapINS_12basic_stringIcNS_11char_traitsIcEENS_9allocatorIcEEEE4itemNS_4hashIS6_EENS_8equal_toIS6_EENS4_INS_4pairIKS6_S7_EEEEE6insertINS_25__hash_map_const_iteratorINS_21__hash_const_iteratorIPNS_11__hash_nodeINS_17__hash_value_typeIS6_S7_EEPvEEEEEEEEvT_SS_, symObjAddr: 0x184F8, symBinAddr: 0x10001BE6C, symSize: 0x70 }
  - { offset: 0x4846E, size: 0x8, addend: 0x0, symName: __ZNKSt3__113unordered_mapINS_12basic_stringIcNS_11char_traitsIcEENS_9allocatorIcEEEE4itemNS_4hashIS6_EENS_8equal_toIS6_EENS4_INS_4pairIKS6_S7_EEEEE5beginB8ne180100Ev, symObjAddr: 0x18568, symBinAddr: 0x10001BEDC, symSize: 0x38 }
  - { offset: 0x48494, size: 0x8, addend: 0x0, symName: __ZNKSt3__113unordered_mapINS_12basic_stringIcNS_11char_traitsIcEENS_9allocatorIcEEEE4itemNS_4hashIS6_EENS_8equal_toIS6_EENS4_INS_4pairIKS6_S7_EEEEE3endB8ne180100Ev, symObjAddr: 0x185A0, symBinAddr: 0x10001BF14, symSize: 0x38 }
  - { offset: 0x484BA, size: 0x8, addend: 0x0, symName: __ZNSt3__112__hash_tableINS_17__hash_value_typeINS_12basic_stringIcNS_11char_traitsIcEENS_9allocatorIcEEEE4itemEENS_22__unordered_map_hasherIS7_S9_NS_4hashIS7_EENS_8equal_toIS7_EELb1EEENS_21__unordered_map_equalIS7_S9_SE_SC_Lb1EEENS5_IS9_EEED1Ev, symObjAddr: 0x185D8, symBinAddr: 0x10001BF4C, symSize: 0x2C }
  - { offset: 0x484E6, size: 0x8, addend: 0x0, symName: __ZNSt3__112__hash_tableINS_17__hash_value_typeINS_12basic_stringIcNS_11char_traitsIcEENS_9allocatorIcEEEE4itemEENS_22__unordered_map_hasherIS7_S9_NS_4hashIS7_EENS_8equal_toIS7_EELb1EEENS_21__unordered_map_equalIS7_S9_SE_SC_Lb1EEENS5_IS9_EEEC2ERKSJ_, symObjAddr: 0x18604, symBinAddr: 0x10001BF78, symSize: 0xEC }
  - { offset: 0x48522, size: 0x8, addend: 0x0, symName: __ZNSt3__116allocator_traitsINS_9allocatorIPNS_16__hash_node_baseIPNS_11__hash_nodeINS_17__hash_value_typeINS_12basic_stringIcNS_11char_traitsIcEENS1_IcEEEE4itemEEPvEEEEEEE37select_on_container_copy_constructionB8ne180100ISH_vvEESH_RKSH_, symObjAddr: 0x186F0, symBinAddr: 0x10001C064, symSize: 0x10 }
  - { offset: 0x48552, size: 0x8, addend: 0x0, symName: __ZNKSt3__125__bucket_list_deallocatorINS_9allocatorIPNS_16__hash_node_baseIPNS_11__hash_nodeINS_17__hash_value_typeINS_12basic_stringIcNS_11char_traitsIcEENS1_IcEEEE4itemEEPvEEEEEEE7__allocB8ne180100Ev, symObjAddr: 0x18700, symBinAddr: 0x10001C074, symSize: 0x24 }
  - { offset: 0x48578, size: 0x8, addend: 0x0, symName: __ZNSt3__125__bucket_list_deallocatorINS_9allocatorIPNS_16__hash_node_baseIPNS_11__hash_nodeINS_17__hash_value_typeINS_12basic_stringIcNS_11char_traitsIcEENS1_IcEEEE4itemEEPvEEEEEEEC1B8ne180100ERKSH_m, symObjAddr: 0x18724, symBinAddr: 0x10001C098, symSize: 0x3C }
  - { offset: 0x485C2, size: 0x8, addend: 0x0, symName: __ZNSt3__110unique_ptrIA_PNS_16__hash_node_baseIPNS_11__hash_nodeINS_17__hash_value_typeINS_12basic_stringIcNS_11char_traitsIcEENS_9allocatorIcEEEE4itemEEPvEEEENS_25__bucket_list_deallocatorINS7_ISG_EEEEEC1B8ne180100ILb1EvEEDnNS_16__dependent_typeINS_27__unique_ptr_deleter_sfinaeISK_EEXT_EE20__good_rval_ref_typeE, symObjAddr: 0x18760, symBinAddr: 0x10001C0D4, symSize: 0x3C }
  - { offset: 0x48613, size: 0x8, addend: 0x0, symName: __ZNSt3__116allocator_traitsINS_9allocatorINS_11__hash_nodeINS_17__hash_value_typeINS_12basic_stringIcNS_11char_traitsIcEENS1_IcEEEE4itemEEPvEEEEE37select_on_container_copy_constructionB8ne180100ISD_vvEESD_RKSD_, symObjAddr: 0x1879C, symBinAddr: 0x10001C110, symSize: 0x10 }
  - { offset: 0x48643, size: 0x8, addend: 0x0, symName: __ZNKSt3__112__hash_tableINS_17__hash_value_typeINS_12basic_stringIcNS_11char_traitsIcEENS_9allocatorIcEEEE4itemEENS_22__unordered_map_hasherIS7_S9_NS_4hashIS7_EENS_8equal_toIS7_EELb1EEENS_21__unordered_map_equalIS7_S9_SE_SC_Lb1EEENS5_IS9_EEE12__node_allocB8ne180100Ev, symObjAddr: 0x187AC, symBinAddr: 0x10001C120, symSize: 0x28 }
  - { offset: 0x4866E, size: 0x8, addend: 0x0, symName: __ZNSt3__117__compressed_pairINS_16__hash_node_baseIPNS_11__hash_nodeINS_17__hash_value_typeINS_12basic_stringIcNS_11char_traitsIcEENS_9allocatorIcEEEE4itemEEPvEEEENS7_ISD_EEEC1B8ne180100INS_18__default_init_tagESG_EEOT_OT0_, symObjAddr: 0x187D4, symBinAddr: 0x10001C148, symSize: 0x3C }
  - { offset: 0x486C6, size: 0x8, addend: 0x0, symName: __ZNSt3__117__compressed_pairImNS_22__unordered_map_hasherINS_12basic_stringIcNS_11char_traitsIcEENS_9allocatorIcEEEENS_17__hash_value_typeIS7_4itemEENS_4hashIS7_EENS_8equal_toIS7_EELb1EEEEC1B8ne180100IiRKSF_EEOT_OT0_, symObjAddr: 0x18810, symBinAddr: 0x10001C184, symSize: 0x3C }
  - { offset: 0x4871E, size: 0x8, addend: 0x0, symName: __ZNSt3__110unique_ptrIA_PNS_16__hash_node_baseIPNS_11__hash_nodeINS_17__hash_value_typeINS_12basic_stringIcNS_11char_traitsIcEENS_9allocatorIcEEEE4itemEEPvEEEENS_25__bucket_list_deallocatorINS7_ISG_EEEEED1B8ne180100Ev, symObjAddr: 0x1884C, symBinAddr: 0x10001C1C0, symSize: 0x2C }
  - { offset: 0x48748, size: 0x8, addend: 0x0, symName: __ZNKSt3__117__compressed_pairImNS_9allocatorIPNS_16__hash_node_baseIPNS_11__hash_nodeINS_17__hash_value_typeINS_12basic_stringIcNS_11char_traitsIcEENS1_IcEEEE4itemEEPvEEEEEEE6secondB8ne180100Ev, symObjAddr: 0x18878, symBinAddr: 0x10001C1EC, symSize: 0x24 }
  - { offset: 0x4876E, size: 0x8, addend: 0x0, symName: __ZNKSt3__122__compressed_pair_elemINS_9allocatorIPNS_16__hash_node_baseIPNS_11__hash_nodeINS_17__hash_value_typeINS_12basic_stringIcNS_11char_traitsIcEENS1_IcEEEE4itemEEPvEEEEEELi1ELb1EE5__getB8ne180100Ev, symObjAddr: 0x1889C, symBinAddr: 0x10001C210, symSize: 0x14 }
  - { offset: 0x48794, size: 0x8, addend: 0x0, symName: __ZNSt3__125__bucket_list_deallocatorINS_9allocatorIPNS_16__hash_node_baseIPNS_11__hash_nodeINS_17__hash_value_typeINS_12basic_stringIcNS_11char_traitsIcEENS1_IcEEEE4itemEEPvEEEEEEEC2B8ne180100ERKSH_m, symObjAddr: 0x188B0, symBinAddr: 0x10001C224, symSize: 0x44 }
  - { offset: 0x487DE, size: 0x8, addend: 0x0, symName: __ZNSt3__117__compressed_pairImNS_9allocatorIPNS_16__hash_node_baseIPNS_11__hash_nodeINS_17__hash_value_typeINS_12basic_stringIcNS_11char_traitsIcEENS1_IcEEEE4itemEEPvEEEEEEEC1B8ne180100IRmRKSH_EEOT_OT0_, symObjAddr: 0x188F4, symBinAddr: 0x10001C268, symSize: 0x3C }
  - { offset: 0x48836, size: 0x8, addend: 0x0, symName: __ZNSt3__117__compressed_pairImNS_9allocatorIPNS_16__hash_node_baseIPNS_11__hash_nodeINS_17__hash_value_typeINS_12basic_stringIcNS_11char_traitsIcEENS1_IcEEEE4itemEEPvEEEEEEEC2B8ne180100IRmRKSH_EEOT_OT0_, symObjAddr: 0x18930, symBinAddr: 0x10001C2A4, symSize: 0x44 }
  - { offset: 0x4888E, size: 0x8, addend: 0x0, symName: __ZNSt3__122__compressed_pair_elemINS_9allocatorIPNS_16__hash_node_baseIPNS_11__hash_nodeINS_17__hash_value_typeINS_12basic_stringIcNS_11char_traitsIcEENS1_IcEEEE4itemEEPvEEEEEELi1ELb1EEC2B8ne180100IRKSH_vEEOT_, symObjAddr: 0x18974, symBinAddr: 0x10001C2E8, symSize: 0x18 }
  - { offset: 0x488D0, size: 0x8, addend: 0x0, symName: __ZNSt3__110unique_ptrIA_PNS_16__hash_node_baseIPNS_11__hash_nodeINS_17__hash_value_typeINS_12basic_stringIcNS_11char_traitsIcEENS_9allocatorIcEEEE4itemEEPvEEEENS_25__bucket_list_deallocatorINS7_ISG_EEEEEC2B8ne180100ILb1EvEEDnNS_16__dependent_typeINS_27__unique_ptr_deleter_sfinaeISK_EEXT_EE20__good_rval_ref_typeE, symObjAddr: 0x1898C, symBinAddr: 0x10001C300, symSize: 0x48 }
  - { offset: 0x48921, size: 0x8, addend: 0x0, symName: __ZNSt3__117__compressed_pairIPPNS_16__hash_node_baseIPNS_11__hash_nodeINS_17__hash_value_typeINS_12basic_stringIcNS_11char_traitsIcEENS_9allocatorIcEEEE4itemEEPvEEEENS_25__bucket_list_deallocatorINS7_ISG_EEEEEC1B8ne180100IDnSK_EEOT_OT0_, symObjAddr: 0x189D4, symBinAddr: 0x10001C348, symSize: 0x3C }
  - { offset: 0x48979, size: 0x8, addend: 0x0, symName: __ZNSt3__117__compressed_pairIPPNS_16__hash_node_baseIPNS_11__hash_nodeINS_17__hash_value_typeINS_12basic_stringIcNS_11char_traitsIcEENS_9allocatorIcEEEE4itemEEPvEEEENS_25__bucket_list_deallocatorINS7_ISG_EEEEEC2B8ne180100IDnSK_EEOT_OT0_, symObjAddr: 0x18A10, symBinAddr: 0x10001C384, symSize: 0x48 }
  - { offset: 0x489D1, size: 0x8, addend: 0x0, symName: __ZNSt3__122__compressed_pair_elemIPPNS_16__hash_node_baseIPNS_11__hash_nodeINS_17__hash_value_typeINS_12basic_stringIcNS_11char_traitsIcEENS_9allocatorIcEEEE4itemEEPvEEEELi0ELb0EEC2B8ne180100IDnvEEOT_, symObjAddr: 0x18A58, symBinAddr: 0x10001C3CC, symSize: 0x1C }
  - { offset: 0x48A13, size: 0x8, addend: 0x0, symName: __ZNSt3__122__compressed_pair_elemINS_25__bucket_list_deallocatorINS_9allocatorIPNS_16__hash_node_baseIPNS_11__hash_nodeINS_17__hash_value_typeINS_12basic_stringIcNS_11char_traitsIcEENS2_IcEEEE4itemEEPvEEEEEEEELi1ELb0EEC2B8ne180100ISJ_vEEOT_, symObjAddr: 0x18A74, symBinAddr: 0x10001C3E8, symSize: 0x34 }
  - { offset: 0x48A55, size: 0x8, addend: 0x0, symName: __ZNSt3__125__bucket_list_deallocatorINS_9allocatorIPNS_16__hash_node_baseIPNS_11__hash_nodeINS_17__hash_value_typeINS_12basic_stringIcNS_11char_traitsIcEENS1_IcEEEE4itemEEPvEEEEEEEC1B8ne180100EOSI_, symObjAddr: 0x18AA8, symBinAddr: 0x10001C41C, symSize: 0x34 }
  - { offset: 0x48A8F, size: 0x8, addend: 0x0, symName: __ZNSt3__125__bucket_list_deallocatorINS_9allocatorIPNS_16__hash_node_baseIPNS_11__hash_nodeINS_17__hash_value_typeINS_12basic_stringIcNS_11char_traitsIcEENS1_IcEEEE4itemEEPvEEEEEEEC2B8ne180100EOSI_, symObjAddr: 0x18ADC, symBinAddr: 0x10001C450, symSize: 0x48 }
  - { offset: 0x48AC9, size: 0x8, addend: 0x0, symName: __ZNKSt3__117__compressed_pairINS_16__hash_node_baseIPNS_11__hash_nodeINS_17__hash_value_typeINS_12basic_stringIcNS_11char_traitsIcEENS_9allocatorIcEEEE4itemEEPvEEEENS7_ISD_EEE6secondB8ne180100Ev, symObjAddr: 0x18B24, symBinAddr: 0x10001C498, symSize: 0x24 }
  - { offset: 0x48AEF, size: 0x8, addend: 0x0, symName: __ZNKSt3__122__compressed_pair_elemINS_9allocatorINS_11__hash_nodeINS_17__hash_value_typeINS_12basic_stringIcNS_11char_traitsIcEENS1_IcEEEE4itemEEPvEEEELi1ELb1EE5__getB8ne180100Ev, symObjAddr: 0x18B48, symBinAddr: 0x10001C4BC, symSize: 0x14 }
  - { offset: 0x48B15, size: 0x8, addend: 0x0, symName: __ZNSt3__117__compressed_pairINS_16__hash_node_baseIPNS_11__hash_nodeINS_17__hash_value_typeINS_12basic_stringIcNS_11char_traitsIcEENS_9allocatorIcEEEE4itemEEPvEEEENS7_ISD_EEEC2B8ne180100INS_18__default_init_tagESG_EEOT_OT0_, symObjAddr: 0x18B5C, symBinAddr: 0x10001C4D0, symSize: 0x40 }
  - { offset: 0x48B6D, size: 0x8, addend: 0x0, symName: __ZNSt3__122__compressed_pair_elemINS_16__hash_node_baseIPNS_11__hash_nodeINS_17__hash_value_typeINS_12basic_stringIcNS_11char_traitsIcEENS_9allocatorIcEEEE4itemEEPvEEEELi0ELb0EEC2B8ne180100ENS_18__default_init_tagE, symObjAddr: 0x18B9C, symBinAddr: 0x10001C510, symSize: 0x2C }
  - { offset: 0x48BA2, size: 0x8, addend: 0x0, symName: __ZNSt3__122__compressed_pair_elemINS_9allocatorINS_11__hash_nodeINS_17__hash_value_typeINS_12basic_stringIcNS_11char_traitsIcEENS1_IcEEEE4itemEEPvEEEELi1ELb1EEC2B8ne180100ISD_vEEOT_, symObjAddr: 0x18BC8, symBinAddr: 0x10001C53C, symSize: 0x18 }
  - { offset: 0x48BE4, size: 0x8, addend: 0x0, symName: __ZNSt3__116__hash_node_baseIPNS_11__hash_nodeINS_17__hash_value_typeINS_12basic_stringIcNS_11char_traitsIcEENS_9allocatorIcEEEE4itemEEPvEEEC1B8ne180100Ev, symObjAddr: 0x18BE0, symBinAddr: 0x10001C554, symSize: 0x2C }
  - { offset: 0x48C0E, size: 0x8, addend: 0x0, symName: __ZNSt3__116__hash_node_baseIPNS_11__hash_nodeINS_17__hash_value_typeINS_12basic_stringIcNS_11char_traitsIcEENS_9allocatorIcEEEE4itemEEPvEEEC2B8ne180100Ev, symObjAddr: 0x18C0C, symBinAddr: 0x10001C580, symSize: 0x18 }
  - { offset: 0x48C38, size: 0x8, addend: 0x0, symName: __ZNSt3__117__compressed_pairImNS_22__unordered_map_hasherINS_12basic_stringIcNS_11char_traitsIcEENS_9allocatorIcEEEENS_17__hash_value_typeIS7_4itemEENS_4hashIS7_EENS_8equal_toIS7_EELb1EEEEC2B8ne180100IiRKSF_EEOT_OT0_, symObjAddr: 0x18C24, symBinAddr: 0x10001C598, symSize: 0x44 }
  - { offset: 0x48C90, size: 0x8, addend: 0x0, symName: __ZNSt3__122__compressed_pair_elemINS_22__unordered_map_hasherINS_12basic_stringIcNS_11char_traitsIcEENS_9allocatorIcEEEENS_17__hash_value_typeIS7_4itemEENS_4hashIS7_EENS_8equal_toIS7_EELb1EEELi1ELb1EEC2B8ne180100IRKSF_vEEOT_, symObjAddr: 0x18C68, symBinAddr: 0x10001C5DC, symSize: 0x18 }
  - { offset: 0x48CD2, size: 0x8, addend: 0x0, symName: __ZNSt3__110unique_ptrIA_PNS_16__hash_node_baseIPNS_11__hash_nodeINS_17__hash_value_typeINS_12basic_stringIcNS_11char_traitsIcEENS_9allocatorIcEEEE4itemEEPvEEEENS_25__bucket_list_deallocatorINS7_ISG_EEEEED2B8ne180100Ev, symObjAddr: 0x18C80, symBinAddr: 0x10001C5F4, symSize: 0x30 }
  - { offset: 0x48CFC, size: 0x8, addend: 0x0, symName: __ZNSt3__110unique_ptrIA_PNS_16__hash_node_baseIPNS_11__hash_nodeINS_17__hash_value_typeINS_12basic_stringIcNS_11char_traitsIcEENS_9allocatorIcEEEE4itemEEPvEEEENS_25__bucket_list_deallocatorINS7_ISG_EEEEE5resetB8ne180100EDn, symObjAddr: 0x18CB0, symBinAddr: 0x10001C624, symSize: 0x6C }
  - { offset: 0x48D3E, size: 0x8, addend: 0x0, symName: __ZNSt3__112__hash_tableINS_17__hash_value_typeINS_12basic_stringIcNS_11char_traitsIcEENS_9allocatorIcEEEE4itemEENS_22__unordered_map_hasherIS7_S9_NS_4hashIS7_EENS_8equal_toIS7_EELb1EEENS_21__unordered_map_equalIS7_S9_SE_SC_Lb1EEENS5_IS9_EEE8__rehashILb1EEEvm, symObjAddr: 0x18D1C, symBinAddr: 0x10001C690, symSize: 0x1A8 }
  - { offset: 0x48D90, size: 0x8, addend: 0x0, symName: __ZNSt3__112__hash_tableINS_17__hash_value_typeINS_12basic_stringIcNS_11char_traitsIcEENS_9allocatorIcEEEE4itemEENS_22__unordered_map_hasherIS7_S9_NS_4hashIS7_EENS_8equal_toIS7_EELb1EEENS_21__unordered_map_equalIS7_S9_SE_SC_Lb1EEENS5_IS9_EEE11__do_rehashILb1EEEvm, symObjAddr: 0x18EC4, symBinAddr: 0x10001C838, symSize: 0x288 }
  - { offset: 0x48E7F, size: 0x8, addend: 0x0, symName: __ZNSt3__112__hash_tableINS_17__hash_value_typeINS_12basic_stringIcNS_11char_traitsIcEENS_9allocatorIcEEEE4itemEENS_22__unordered_map_hasherIS7_S9_NS_4hashIS7_EENS_8equal_toIS7_EELb1EEENS_21__unordered_map_equalIS7_S9_SE_SC_Lb1EEENS5_IS9_EEE15__insert_uniqueB8ne180100ERKNS_4pairIKS7_S8_EE, symObjAddr: 0x1917C, symBinAddr: 0x10001CAF0, symSize: 0x50 }
  - { offset: 0x48EB5, size: 0x8, addend: 0x0, symName: __ZNKSt3__125__hash_map_const_iteratorINS_21__hash_const_iteratorIPNS_11__hash_nodeINS_17__hash_value_typeINS_12basic_stringIcNS_11char_traitsIcEENS_9allocatorIcEEEE4itemEEPvEEEEEdeB8ne180100Ev, symObjAddr: 0x191CC, symBinAddr: 0x10001CB40, symSize: 0x28 }
  - { offset: 0x48EDB, size: 0x8, addend: 0x0, symName: __ZNSt3__125__hash_map_const_iteratorINS_21__hash_const_iteratorIPNS_11__hash_nodeINS_17__hash_value_typeINS_12basic_stringIcNS_11char_traitsIcEENS_9allocatorIcEEEE4itemEEPvEEEEEppB8ne180100Ev, symObjAddr: 0x191F4, symBinAddr: 0x10001CB68, symSize: 0x2C }
  - { offset: 0x48F01, size: 0x8, addend: 0x0, symName: __ZNSt3__112__hash_tableINS_17__hash_value_typeINS_12basic_stringIcNS_11char_traitsIcEENS_9allocatorIcEEEE4itemEENS_22__unordered_map_hasherIS7_S9_NS_4hashIS7_EENS_8equal_toIS7_EELb1EEENS_21__unordered_map_equalIS7_S9_SE_SC_Lb1EEENS5_IS9_EEE25__emplace_unique_key_argsIS7_JRKNS_4pairIKS7_S8_EEEEENSL_INS_15__hash_iteratorIPNS_11__hash_nodeIS9_PvEEEEbEERKT_DpOT0_, symObjAddr: 0x19220, symBinAddr: 0x10001CB94, symSize: 0x4A0 }
  - { offset: 0x48FEB, size: 0x8, addend: 0x0, symName: __ZNSt3__122__hash_key_value_typesINS_17__hash_value_typeINS_12basic_stringIcNS_11char_traitsIcEENS_9allocatorIcEEEE4itemEEE9__get_keyB8ne180100ERKNS_4pairIKS7_S8_EE, symObjAddr: 0x196C0, symBinAddr: 0x10001D034, symSize: 0x14 }
  - { offset: 0x4900E, size: 0x8, addend: 0x0, symName: __ZNKSt3__122__unordered_map_hasherINS_12basic_stringIcNS_11char_traitsIcEENS_9allocatorIcEEEENS_17__hash_value_typeIS6_4itemEENS_4hashIS6_EENS_8equal_toIS6_EELb1EEclB8ne180100ERKS6_, symObjAddr: 0x196D4, symBinAddr: 0x10001D048, symSize: 0x2C }
  - { offset: 0x49044, size: 0x8, addend: 0x0, symName: __ZNKSt3__121__unordered_map_equalINS_12basic_stringIcNS_11char_traitsIcEENS_9allocatorIcEEEENS_17__hash_value_typeIS6_4itemEENS_8equal_toIS6_EENS_4hashIS6_EELb1EEclB8ne180100ERKS9_RKS6_, symObjAddr: 0x19700, symBinAddr: 0x10001D074, symSize: 0x48 }
  - { offset: 0x4908A, size: 0x8, addend: 0x0, symName: __ZNSt3__112__hash_tableINS_17__hash_value_typeINS_12basic_stringIcNS_11char_traitsIcEENS_9allocatorIcEEEE4itemEENS_22__unordered_map_hasherIS7_S9_NS_4hashIS7_EENS_8equal_toIS7_EELb1EEENS_21__unordered_map_equalIS7_S9_SE_SC_Lb1EEENS5_IS9_EEE21__construct_node_hashIRKNS_4pairIKS7_S8_EEJEEENS_10unique_ptrINS_11__hash_nodeIS9_PvEENS_22__hash_node_destructorINS5_IST_EEEEEEmOT_DpOT0_, symObjAddr: 0x19748, symBinAddr: 0x10001D0BC, symSize: 0x130 }
  - { offset: 0x49106, size: 0x8, addend: 0x0, symName: __ZNSt3__14pairINS_15__hash_iteratorIPNS_11__hash_nodeINS_17__hash_value_typeINS_12basic_stringIcNS_11char_traitsIcEENS_9allocatorIcEEEE4itemEEPvEEEEbEC1B8ne180100ISF_RbLi0EEEOT_OT0_, symObjAddr: 0x19878, symBinAddr: 0x10001D1EC, symSize: 0x3C }
  - { offset: 0x49164, size: 0x8, addend: 0x0, symName: __ZNSt3__14pairINS_15__hash_iteratorIPNS_11__hash_nodeINS_17__hash_value_typeINS_12basic_stringIcNS_11char_traitsIcEENS_9allocatorIcEEEE4itemEEPvEEEEbEC2B8ne180100ISF_RbLi0EEEOT_OT0_, symObjAddr: 0x198F4, symBinAddr: 0x10001D268, symSize: 0x38 }
  - { offset: 0x491C2, size: 0x8, addend: 0x0, symName: __ZNKSt3__121__hash_const_iteratorIPNS_11__hash_nodeINS_17__hash_value_typeINS_12basic_stringIcNS_11char_traitsIcEENS_9allocatorIcEEEE4itemEEPvEEEptB8ne180100Ev, symObjAddr: 0x1992C, symBinAddr: 0x10001D2A0, symSize: 0x30 }
  - { offset: 0x491E8, size: 0x8, addend: 0x0, symName: __ZNSt3__114pointer_traitsIPKNS_17__hash_value_typeINS_12basic_stringIcNS_11char_traitsIcEENS_9allocatorIcEEEE4itemEEE10pointer_toB8ne180100ERSA_, symObjAddr: 0x1995C, symBinAddr: 0x10001D2D0, symSize: 0x14 }
  - { offset: 0x4920B, size: 0x8, addend: 0x0, symName: __ZNSt3__125__hash_map_const_iteratorINS_21__hash_const_iteratorIPNS_11__hash_nodeINS_17__hash_value_typeINS_12basic_stringIcNS_11char_traitsIcEENS_9allocatorIcEEEE4itemEEPvEEEEEC1B8ne180100ESF_, symObjAddr: 0x19970, symBinAddr: 0x10001D2E4, symSize: 0x34 }
  - { offset: 0x49245, size: 0x8, addend: 0x0, symName: __ZNSt3__125__hash_map_const_iteratorINS_21__hash_const_iteratorIPNS_11__hash_nodeINS_17__hash_value_typeINS_12basic_stringIcNS_11char_traitsIcEENS_9allocatorIcEEEE4itemEEPvEEEEEC2B8ne180100ESF_, symObjAddr: 0x199A4, symBinAddr: 0x10001D318, symSize: 0x20 }
  - { offset: 0x4927F, size: 0x8, addend: 0x0, symName: __ZNSt3__112__hash_tableINS_17__hash_value_typeINS_12basic_stringIcNS_11char_traitsIcEENS_9allocatorIcEEEE4itemEENS_22__unordered_map_hasherIS7_S9_NS_4hashIS7_EENS_8equal_toIS7_EELb1EEENS_21__unordered_map_equalIS7_S9_SE_SC_Lb1EEENS5_IS9_EEED2Ev, symObjAddr: 0x199C4, symBinAddr: 0x10001D338, symSize: 0x48 }
  - { offset: 0x492AB, size: 0x8, addend: 0x0, symName: __ZNSt3__117__compressed_pairIPNS_11__hash_nodeINS_17__hash_value_typeINS_12basic_stringIcNS_11char_traitsIcEENS_9allocatorIcEEEE4itemEEPvEENS_22__hash_node_destructorINS6_ISC_EEEEE6secondB8ne180100Ev, symObjAddr: 0x19A0C, symBinAddr: 0x10001D380, symSize: 0x28 }
  - { offset: 0x492D1, size: 0x8, addend: 0x0, symName: __ZNSt3__122__compressed_pair_elemINS_22__hash_node_destructorINS_9allocatorINS_11__hash_nodeINS_17__hash_value_typeINS_12basic_stringIcNS_11char_traitsIcEENS2_IcEEEE4itemEEPvEEEEEELi1ELb0EE5__getB8ne180100Ev, symObjAddr: 0x19A34, symBinAddr: 0x10001D3A8, symSize: 0x14 }
  - { offset: 0x492F7, size: 0x8, addend: 0x0, symName: __ZNSt3__117__compressed_pairIPNS_11__hash_nodeINS_17__hash_value_typeINS_12basic_stringIcNS_11char_traitsIcEENS_9allocatorIcEEEE4itemEEPvEENS_22__hash_node_destructorINS6_ISC_EEEEE5firstB8ne180100Ev, symObjAddr: 0x19A48, symBinAddr: 0x10001D3BC, symSize: 0x24 }
  - { offset: 0x4931D, size: 0x8, addend: 0x0, symName: __ZNSt3__122__compressed_pair_elemIPNS_11__hash_nodeINS_17__hash_value_typeINS_12basic_stringIcNS_11char_traitsIcEENS_9allocatorIcEEEE4itemEEPvEELi0ELb0EE5__getB8ne180100Ev, symObjAddr: 0x19A6C, symBinAddr: 0x10001D3E0, symSize: 0x14 }
  - { offset: 0x49343, size: 0x8, addend: 0x0, symName: __ZNSt3__110unique_ptrINS_11__hash_nodeINS_17__hash_value_typeINS_12basic_stringIcNS_11char_traitsIcEENS_9allocatorIcEEEE4itemEEPvEENS_22__hash_node_destructorINS6_ISC_EEEEED2B8ne180100Ev, symObjAddr: 0x19A80, symBinAddr: 0x10001D3F4, symSize: 0x30 }
  - { offset: 0x4936D, size: 0x8, addend: 0x0, symName: __ZNSt3__110unique_ptrINS_11__hash_nodeINS_17__hash_value_typeINS_12basic_stringIcNS_11char_traitsIcEENS_9allocatorIcEEEE4itemEEPvEENS_22__hash_node_destructorINS6_ISC_EEEEE5resetB8ne180100EPSC_, symObjAddr: 0x19AB0, symBinAddr: 0x10001D424, symSize: 0x78 }
  - { offset: 0x493B3, size: 0x8, addend: 0x0, symName: __ZNSt3__122__hash_node_destructorINS_9allocatorINS_11__hash_nodeINS_17__hash_value_typeINS_12basic_stringIcNS_11char_traitsIcEENS1_IcEEEE4itemEEPvEEEEEclB8ne180100EPSC_, symObjAddr: 0x19B28, symBinAddr: 0x10001D49C, symSize: 0x98 }
  - { offset: 0x493E9, size: 0x8, addend: 0x0, symName: __ZNKSt3__117__compressed_pairINS_16__hash_node_baseIPNS_11__hash_nodeINS_17__hash_value_typeINS_12basic_stringIcNS_11char_traitsIcEENS_9allocatorIcEEEE4itemEEPvEEEENS7_ISD_EEE5firstB8ne180100Ev, symObjAddr: 0x19BC0, symBinAddr: 0x10001D534, symSize: 0x24 }
  - { offset: 0x4940F, size: 0x8, addend: 0x0, symName: __ZNSt3__121__hash_const_iteratorIPNS_11__hash_nodeINS_17__hash_value_typeINS_12basic_stringIcNS_11char_traitsIcEENS_9allocatorIcEEEE4itemEEPvEEEC1B8ne180100EPNS_16__hash_node_baseISD_EE, symObjAddr: 0x19BE4, symBinAddr: 0x10001D558, symSize: 0x34 }
  - { offset: 0x49449, size: 0x8, addend: 0x0, symName: __ZNKSt3__122__compressed_pair_elemINS_16__hash_node_baseIPNS_11__hash_nodeINS_17__hash_value_typeINS_12basic_stringIcNS_11char_traitsIcEENS_9allocatorIcEEEE4itemEEPvEEEELi0ELb0EE5__getB8ne180100Ev, symObjAddr: 0x19C18, symBinAddr: 0x10001D58C, symSize: 0x14 }
  - { offset: 0x4946F, size: 0x8, addend: 0x0, symName: __ZNSt3__121__hash_const_iteratorIPNS_11__hash_nodeINS_17__hash_value_typeINS_12basic_stringIcNS_11char_traitsIcEENS_9allocatorIcEEEE4itemEEPvEEEC2B8ne180100EPNS_16__hash_node_baseISD_EE, symObjAddr: 0x19C2C, symBinAddr: 0x10001D5A0, symSize: 0x20 }
  - { offset: 0x494A9, size: 0x8, addend: 0x0, symName: __Z8__istypeim, symObjAddr: 0x19C4C, symBinAddr: 0x10001D5C0, symSize: 0x84 }
  - { offset: 0x494E4, size: 0x8, addend: 0x0, symName: __Z7isasciii, symObjAddr: 0x19CD0, symBinAddr: 0x10001D644, symSize: 0x24 }
  - { offset: 0x49511, size: 0x8, addend: 0x0, symName: __ZNSt3__111__wrap_iterIPKcEC2B8ne180100IPcLi0EEERKNS0_IT_EE, symObjAddr: 0x19CF4, symBinAddr: 0x10001D668, symSize: 0x3C }
  - { offset: 0x49558, size: 0x8, addend: 0x0, symName: __ZNKSt3__111__wrap_iterIPcE4baseB8ne180100Ev, symObjAddr: 0x19D30, symBinAddr: 0x10001D6A4, symSize: 0x18 }
  - { offset: 0x4957E, size: 0x8, addend: 0x0, symName: __ZN4itemD2Ev, symObjAddr: 0x19D48, symBinAddr: 0x10001D6BC, symSize: 0x50 }
  - { offset: 0x495AA, size: 0x8, addend: 0x0, symName: __ZNSt3__113unordered_mapINS_12basic_stringIcNS_11char_traitsIcEENS_9allocatorIcEEEE4itemNS_4hashIS6_EENS_8equal_toIS6_EENS4_INS_4pairIKS6_S7_EEEEED1B8ne180100Ev, symObjAddr: 0x19D98, symBinAddr: 0x10001D70C, symSize: 0x2C }
  - { offset: 0x495D4, size: 0x8, addend: 0x0, symName: __ZNSt3__113unordered_mapINS_12basic_stringIcNS_11char_traitsIcEENS_9allocatorIcEEEE4itemNS_4hashIS6_EENS_8equal_toIS6_EENS4_INS_4pairIKS6_S7_EEEEED2B8ne180100Ev, symObjAddr: 0x19DC4, symBinAddr: 0x10001D738, symSize: 0x2C }
  - { offset: 0x495FE, size: 0x8, addend: 0x0, symName: __ZNSt3__113unordered_mapINS_12basic_stringIcNS_11char_traitsIcEENS_9allocatorIcEEEE9characterNS_4hashIS6_EENS_8equal_toIS6_EENS4_INS_4pairIKS6_S7_EEEEEaSB8ne180100ERKSG_, symObjAddr: 0x19DF0, symBinAddr: 0x10001D764, symSize: 0x34 }
  - { offset: 0x49634, size: 0x8, addend: 0x0, symName: __ZNSt3__112__hash_tableINS_17__hash_value_typeINS_12basic_stringIcNS_11char_traitsIcEENS_9allocatorIcEEEE9characterEENS_22__unordered_map_hasherIS7_S9_NS_4hashIS7_EENS_8equal_toIS7_EELb1EEENS_21__unordered_map_equalIS7_S9_SE_SC_Lb1EEENS5_IS9_EEEaSERKSJ_, symObjAddr: 0x19E24, symBinAddr: 0x10001D798, symSize: 0xB8 }
  - { offset: 0x4966C, size: 0x8, addend: 0x0, symName: __ZNSt3__112__hash_tableINS_17__hash_value_typeINS_12basic_stringIcNS_11char_traitsIcEENS_9allocatorIcEEEE9characterEENS_22__unordered_map_hasherIS7_S9_NS_4hashIS7_EENS_8equal_toIS7_EELb1EEENS_21__unordered_map_equalIS7_S9_SE_SC_Lb1EEENS5_IS9_EEE19__copy_assign_allocB8ne180100ERKSJ_, symObjAddr: 0x19EDC, symBinAddr: 0x10001D850, symSize: 0x2C }
  - { offset: 0x496A2, size: 0x8, addend: 0x0, symName: __ZNKSt3__112__hash_tableINS_17__hash_value_typeINS_12basic_stringIcNS_11char_traitsIcEENS_9allocatorIcEEEE9characterEENS_22__unordered_map_hasherIS7_S9_NS_4hashIS7_EENS_8equal_toIS7_EELb1EEENS_21__unordered_map_equalIS7_S9_SE_SC_Lb1EEENS5_IS9_EEE13hash_functionB8ne180100Ev, symObjAddr: 0x19F08, symBinAddr: 0x10001D87C, symSize: 0x28 }
  - { offset: 0x496C8, size: 0x8, addend: 0x0, symName: __ZNSt3__112__hash_tableINS_17__hash_value_typeINS_12basic_stringIcNS_11char_traitsIcEENS_9allocatorIcEEEE9characterEENS_22__unordered_map_hasherIS7_S9_NS_4hashIS7_EENS_8equal_toIS7_EELb1EEENS_21__unordered_map_equalIS7_S9_SE_SC_Lb1EEENS5_IS9_EEE13hash_functionB8ne180100Ev, symObjAddr: 0x19F30, symBinAddr: 0x10001D8A4, symSize: 0x28 }
  - { offset: 0x496EE, size: 0x8, addend: 0x0, symName: __ZNKSt3__112__hash_tableINS_17__hash_value_typeINS_12basic_stringIcNS_11char_traitsIcEENS_9allocatorIcEEEE9characterEENS_22__unordered_map_hasherIS7_S9_NS_4hashIS7_EENS_8equal_toIS7_EELb1EEENS_21__unordered_map_equalIS7_S9_SE_SC_Lb1EEENS5_IS9_EEE6key_eqB8ne180100Ev, symObjAddr: 0x19F58, symBinAddr: 0x10001D8CC, symSize: 0x28 }
  - { offset: 0x49714, size: 0x8, addend: 0x0, symName: __ZNSt3__112__hash_tableINS_17__hash_value_typeINS_12basic_stringIcNS_11char_traitsIcEENS_9allocatorIcEEEE9characterEENS_22__unordered_map_hasherIS7_S9_NS_4hashIS7_EENS_8equal_toIS7_EELb1EEENS_21__unordered_map_equalIS7_S9_SE_SC_Lb1EEENS5_IS9_EEE6key_eqB8ne180100Ev, symObjAddr: 0x19F80, symBinAddr: 0x10001D8F4, symSize: 0x28 }
  - { offset: 0x4973A, size: 0x8, addend: 0x0, symName: __ZNKSt3__112__hash_tableINS_17__hash_value_typeINS_12basic_stringIcNS_11char_traitsIcEENS_9allocatorIcEEEE9characterEENS_22__unordered_map_hasherIS7_S9_NS_4hashIS7_EENS_8equal_toIS7_EELb1EEENS_21__unordered_map_equalIS7_S9_SE_SC_Lb1EEENS5_IS9_EEE15max_load_factorB8ne180100Ev, symObjAddr: 0x19FA8, symBinAddr: 0x10001D91C, symSize: 0x2C }
  - { offset: 0x49760, size: 0x8, addend: 0x0, symName: __ZNSt3__112__hash_tableINS_17__hash_value_typeINS_12basic_stringIcNS_11char_traitsIcEENS_9allocatorIcEEEE9characterEENS_22__unordered_map_hasherIS7_S9_NS_4hashIS7_EENS_8equal_toIS7_EELb1EEENS_21__unordered_map_equalIS7_S9_SE_SC_Lb1EEENS5_IS9_EEE15max_load_factorB8ne180100Ev, symObjAddr: 0x19FD4, symBinAddr: 0x10001D948, symSize: 0x28 }
  - { offset: 0x49786, size: 0x8, addend: 0x0, symName: __ZNSt3__112__hash_tableINS_17__hash_value_typeINS_12basic_stringIcNS_11char_traitsIcEENS_9allocatorIcEEEE9characterEENS_22__unordered_map_hasherIS7_S9_NS_4hashIS7_EENS_8equal_toIS7_EELb1EEENS_21__unordered_map_equalIS7_S9_SE_SC_Lb1EEENS5_IS9_EEE14__assign_multiINS_21__hash_const_iteratorIPNS_11__hash_nodeIS9_PvEEEEEEvT_SR_, symObjAddr: 0x19FFC, symBinAddr: 0x10001D970, symSize: 0x1C4 }
  - { offset: 0x4980D, size: 0x8, addend: 0x0, symName: __ZNKSt3__112__hash_tableINS_17__hash_value_typeINS_12basic_stringIcNS_11char_traitsIcEENS_9allocatorIcEEEE9characterEENS_22__unordered_map_hasherIS7_S9_NS_4hashIS7_EENS_8equal_toIS7_EELb1EEENS_21__unordered_map_equalIS7_S9_SE_SC_Lb1EEENS5_IS9_EEE5beginEv, symObjAddr: 0x1A1C0, symBinAddr: 0x10001DB34, symSize: 0x38 }
  - { offset: 0x49835, size: 0x8, addend: 0x0, symName: __ZNKSt3__112__hash_tableINS_17__hash_value_typeINS_12basic_stringIcNS_11char_traitsIcEENS_9allocatorIcEEEE9characterEENS_22__unordered_map_hasherIS7_S9_NS_4hashIS7_EENS_8equal_toIS7_EELb1EEENS_21__unordered_map_equalIS7_S9_SE_SC_Lb1EEENS5_IS9_EEE3endEv, symObjAddr: 0x1A1F8, symBinAddr: 0x10001DB6C, symSize: 0x2C }
  - { offset: 0x4985D, size: 0x8, addend: 0x0, symName: __ZNSt3__112__hash_tableINS_17__hash_value_typeINS_12basic_stringIcNS_11char_traitsIcEENS_9allocatorIcEEEE9characterEENS_22__unordered_map_hasherIS7_S9_NS_4hashIS7_EENS_8equal_toIS7_EELb1EEENS_21__unordered_map_equalIS7_S9_SE_SC_Lb1EEENS5_IS9_EEE19__copy_assign_allocB8ne180100ERKSJ_NS_17integral_constantIbLb0EEE, symObjAddr: 0x1A224, symBinAddr: 0x10001DB98, symSize: 0x14 }
  - { offset: 0x4989B, size: 0x8, addend: 0x0, symName: __ZNKSt3__117__compressed_pairImNS_22__unordered_map_hasherINS_12basic_stringIcNS_11char_traitsIcEENS_9allocatorIcEEEENS_17__hash_value_typeIS7_9characterEENS_4hashIS7_EENS_8equal_toIS7_EELb1EEEE6secondB8ne180100Ev, symObjAddr: 0x1A238, symBinAddr: 0x10001DBAC, symSize: 0x24 }
  - { offset: 0x498C1, size: 0x8, addend: 0x0, symName: __ZNKSt3__122__compressed_pair_elemINS_22__unordered_map_hasherINS_12basic_stringIcNS_11char_traitsIcEENS_9allocatorIcEEEENS_17__hash_value_typeIS7_9characterEENS_4hashIS7_EENS_8equal_toIS7_EELb1EEELi1ELb1EE5__getB8ne180100Ev, symObjAddr: 0x1A25C, symBinAddr: 0x10001DBD0, symSize: 0x14 }
  - { offset: 0x498E7, size: 0x8, addend: 0x0, symName: __ZNSt3__117__compressed_pairImNS_22__unordered_map_hasherINS_12basic_stringIcNS_11char_traitsIcEENS_9allocatorIcEEEENS_17__hash_value_typeIS7_9characterEENS_4hashIS7_EENS_8equal_toIS7_EELb1EEEE6secondB8ne180100Ev, symObjAddr: 0x1A270, symBinAddr: 0x10001DBE4, symSize: 0x24 }
  - { offset: 0x4990D, size: 0x8, addend: 0x0, symName: __ZNSt3__122__compressed_pair_elemINS_22__unordered_map_hasherINS_12basic_stringIcNS_11char_traitsIcEENS_9allocatorIcEEEENS_17__hash_value_typeIS7_9characterEENS_4hashIS7_EENS_8equal_toIS7_EELb1EEELi1ELb1EE5__getB8ne180100Ev, symObjAddr: 0x1A294, symBinAddr: 0x10001DC08, symSize: 0x14 }
  - { offset: 0x49933, size: 0x8, addend: 0x0, symName: __ZNKSt3__117__compressed_pairIfNS_21__unordered_map_equalINS_12basic_stringIcNS_11char_traitsIcEENS_9allocatorIcEEEENS_17__hash_value_typeIS7_9characterEENS_8equal_toIS7_EENS_4hashIS7_EELb1EEEE6secondB8ne180100Ev, symObjAddr: 0x1A2A8, symBinAddr: 0x10001DC1C, symSize: 0x24 }
  - { offset: 0x49959, size: 0x8, addend: 0x0, symName: __ZNKSt3__122__compressed_pair_elemINS_21__unordered_map_equalINS_12basic_stringIcNS_11char_traitsIcEENS_9allocatorIcEEEENS_17__hash_value_typeIS7_9characterEENS_8equal_toIS7_EENS_4hashIS7_EELb1EEELi1ELb1EE5__getB8ne180100Ev, symObjAddr: 0x1A2CC, symBinAddr: 0x10001DC40, symSize: 0x14 }
  - { offset: 0x4997F, size: 0x8, addend: 0x0, symName: __ZNSt3__117__compressed_pairIfNS_21__unordered_map_equalINS_12basic_stringIcNS_11char_traitsIcEENS_9allocatorIcEEEENS_17__hash_value_typeIS7_9characterEENS_8equal_toIS7_EENS_4hashIS7_EELb1EEEE6secondB8ne180100Ev, symObjAddr: 0x1A2E0, symBinAddr: 0x10001DC54, symSize: 0x24 }
  - { offset: 0x499A5, size: 0x8, addend: 0x0, symName: __ZNSt3__122__compressed_pair_elemINS_21__unordered_map_equalINS_12basic_stringIcNS_11char_traitsIcEENS_9allocatorIcEEEENS_17__hash_value_typeIS7_9characterEENS_8equal_toIS7_EENS_4hashIS7_EELb1EEELi1ELb1EE5__getB8ne180100Ev, symObjAddr: 0x1A304, symBinAddr: 0x10001DC78, symSize: 0x14 }
  - { offset: 0x499CB, size: 0x8, addend: 0x0, symName: __ZNKSt3__117__compressed_pairIfNS_21__unordered_map_equalINS_12basic_stringIcNS_11char_traitsIcEENS_9allocatorIcEEEENS_17__hash_value_typeIS7_9characterEENS_8equal_toIS7_EENS_4hashIS7_EELb1EEEE5firstB8ne180100Ev, symObjAddr: 0x1A318, symBinAddr: 0x10001DC8C, symSize: 0x24 }
  - { offset: 0x499F1, size: 0x8, addend: 0x0, symName: __ZNSt3__117__compressed_pairIfNS_21__unordered_map_equalINS_12basic_stringIcNS_11char_traitsIcEENS_9allocatorIcEEEENS_17__hash_value_typeIS7_9characterEENS_8equal_toIS7_EENS_4hashIS7_EELb1EEEE5firstB8ne180100Ev, symObjAddr: 0x1A33C, symBinAddr: 0x10001DCB0, symSize: 0x24 }
  - { offset: 0x49A17, size: 0x8, addend: 0x0, symName: __ZNKSt3__112__hash_tableINS_17__hash_value_typeINS_12basic_stringIcNS_11char_traitsIcEENS_9allocatorIcEEEE9characterEENS_22__unordered_map_hasherIS7_S9_NS_4hashIS7_EENS_8equal_toIS7_EELb1EEENS_21__unordered_map_equalIS7_S9_SE_SC_Lb1EEENS5_IS9_EEE12bucket_countB8ne180100Ev, symObjAddr: 0x1A360, symBinAddr: 0x10001DCD4, symSize: 0x28 }
  - { offset: 0x49A3D, size: 0x8, addend: 0x0, symName: __ZNSt3__112__hash_tableINS_17__hash_value_typeINS_12basic_stringIcNS_11char_traitsIcEENS_9allocatorIcEEEE9characterEENS_22__unordered_map_hasherIS7_S9_NS_4hashIS7_EENS_8equal_toIS7_EELb1EEENS_21__unordered_map_equalIS7_S9_SE_SC_Lb1EEENS5_IS9_EEE8__detachEv, symObjAddr: 0x1A388, symBinAddr: 0x10001DCFC, symSize: 0xB4 }
  - { offset: 0x49A9C, size: 0x8, addend: 0x0, symName: __ZNKSt3__121__hash_const_iteratorIPNS_11__hash_nodeINS_17__hash_value_typeINS_12basic_stringIcNS_11char_traitsIcEENS_9allocatorIcEEEE9characterEEPvEEEdeB8ne180100Ev, symObjAddr: 0x1A470, symBinAddr: 0x10001DDE4, symSize: 0x2C }
  - { offset: 0x49AC2, size: 0x8, addend: 0x0, symName: __ZNSt3__116__hash_node_baseIPNS_11__hash_nodeINS_17__hash_value_typeINS_12basic_stringIcNS_11char_traitsIcEENS_9allocatorIcEEEE9characterEEPvEEE8__upcastB8ne180100Ev, symObjAddr: 0x1A49C, symBinAddr: 0x10001DE10, symSize: 0x24 }
  - { offset: 0x49AE8, size: 0x8, addend: 0x0, symName: __ZNSt3__111__hash_nodeINS_17__hash_value_typeINS_12basic_stringIcNS_11char_traitsIcEENS_9allocatorIcEEEE9characterEEPvE11__get_valueB8ne180100Ev, symObjAddr: 0x1A4C0, symBinAddr: 0x10001DE34, symSize: 0x18 }
  - { offset: 0x49B0E, size: 0x8, addend: 0x0, symName: __ZNSt3__117__hash_value_typeINS_12basic_stringIcNS_11char_traitsIcEENS_9allocatorIcEEEE9characterEaSB8ne180100ERKS8_, symObjAddr: 0x1A4D8, symBinAddr: 0x10001DE4C, symSize: 0x60 }
  - { offset: 0x49B44, size: 0x8, addend: 0x0, symName: __ZNSt3__112__hash_tableINS_17__hash_value_typeINS_12basic_stringIcNS_11char_traitsIcEENS_9allocatorIcEEEE9characterEENS_22__unordered_map_hasherIS7_S9_NS_4hashIS7_EENS_8equal_toIS7_EELb1EEENS_21__unordered_map_equalIS7_S9_SE_SC_Lb1EEENS5_IS9_EEE19__node_insert_multiEPNS_11__hash_nodeIS9_PvEE, symObjAddr: 0x1A538, symBinAddr: 0x10001DEAC, symSize: 0xA0 }
  - { offset: 0x49B8C, size: 0x8, addend: 0x0, symName: __ZNSt3__121__hash_const_iteratorIPNS_11__hash_nodeINS_17__hash_value_typeINS_12basic_stringIcNS_11char_traitsIcEENS_9allocatorIcEEEE9characterEEPvEEEppB8ne180100Ev, symObjAddr: 0x1A5D8, symBinAddr: 0x10001DF4C, symSize: 0x20 }
  - { offset: 0x49BB2, size: 0x8, addend: 0x0, symName: __ZNSt3__112__hash_tableINS_17__hash_value_typeINS_12basic_stringIcNS_11char_traitsIcEENS_9allocatorIcEEEE9characterEENS_22__unordered_map_hasherIS7_S9_NS_4hashIS7_EENS_8equal_toIS7_EELb1EEENS_21__unordered_map_equalIS7_S9_SE_SC_Lb1EEENS5_IS9_EEE17__deallocate_nodeEPNS_16__hash_node_baseIPNS_11__hash_nodeIS9_PvEEEE, symObjAddr: 0x1A5F8, symBinAddr: 0x10001DF6C, symSize: 0xB4 }
  - { offset: 0x49C21, size: 0x8, addend: 0x0, symName: __ZNSt3__112__hash_tableINS_17__hash_value_typeINS_12basic_stringIcNS_11char_traitsIcEENS_9allocatorIcEEEE9characterEENS_22__unordered_map_hasherIS7_S9_NS_4hashIS7_EENS_8equal_toIS7_EELb1EEENS_21__unordered_map_equalIS7_S9_SE_SC_Lb1EEENS5_IS9_EEE14__insert_multiB8ne180100IRKNS_4pairIKS7_S8_EEEENS_15__hash_iteratorIPNS_11__hash_nodeIS9_PvEEEEOT_, symObjAddr: 0x1A6AC, symBinAddr: 0x10001E020, symSize: 0x34 }
  - { offset: 0x49C60, size: 0x8, addend: 0x0, symName: __ZNSt3__122__hash_key_value_typesINS_17__hash_value_typeINS_12basic_stringIcNS_11char_traitsIcEENS_9allocatorIcEEEE9characterEEE11__get_valueB8ne180100IKS9_Li0EEERKNS_4pairIKS7_S8_EERT_, symObjAddr: 0x1A6E0, symBinAddr: 0x10001E054, symSize: 0x24 }
  - { offset: 0x49C92, size: 0x8, addend: 0x0, symName: __ZNKSt3__110unique_ptrIA_PNS_16__hash_node_baseIPNS_11__hash_nodeINS_17__hash_value_typeINS_12basic_stringIcNS_11char_traitsIcEENS_9allocatorIcEEEE9characterEEPvEEEENS_25__bucket_list_deallocatorINS7_ISG_EEEEE11get_deleterB8ne180100Ev, symObjAddr: 0x1A704, symBinAddr: 0x10001E078, symSize: 0x24 }
  - { offset: 0x49CB8, size: 0x8, addend: 0x0, symName: __ZNKSt3__125__bucket_list_deallocatorINS_9allocatorIPNS_16__hash_node_baseIPNS_11__hash_nodeINS_17__hash_value_typeINS_12basic_stringIcNS_11char_traitsIcEENS1_IcEEEE9characterEEPvEEEEEEE4sizeB8ne180100Ev, symObjAddr: 0x1A728, symBinAddr: 0x10001E09C, symSize: 0x28 }
  - { offset: 0x49CDE, size: 0x8, addend: 0x0, symName: __ZNKSt3__117__compressed_pairIPPNS_16__hash_node_baseIPNS_11__hash_nodeINS_17__hash_value_typeINS_12basic_stringIcNS_11char_traitsIcEENS_9allocatorIcEEEE9characterEEPvEEEENS_25__bucket_list_deallocatorINS7_ISG_EEEEE6secondB8ne180100Ev, symObjAddr: 0x1A750, symBinAddr: 0x10001E0C4, symSize: 0x28 }
  - { offset: 0x49D04, size: 0x8, addend: 0x0, symName: __ZNKSt3__122__compressed_pair_elemINS_25__bucket_list_deallocatorINS_9allocatorIPNS_16__hash_node_baseIPNS_11__hash_nodeINS_17__hash_value_typeINS_12basic_stringIcNS_11char_traitsIcEENS2_IcEEEE9characterEEPvEEEEEEEELi1ELb0EE5__getB8ne180100Ev, symObjAddr: 0x1A778, symBinAddr: 0x10001E0EC, symSize: 0x14 }
  - { offset: 0x49D2A, size: 0x8, addend: 0x0, symName: __ZNKSt3__117__compressed_pairImNS_9allocatorIPNS_16__hash_node_baseIPNS_11__hash_nodeINS_17__hash_value_typeINS_12basic_stringIcNS_11char_traitsIcEENS1_IcEEEE9characterEEPvEEEEEEE5firstB8ne180100Ev, symObjAddr: 0x1A78C, symBinAddr: 0x10001E100, symSize: 0x24 }
  - { offset: 0x49D50, size: 0x8, addend: 0x0, symName: __ZNKSt3__110unique_ptrIA_PNS_16__hash_node_baseIPNS_11__hash_nodeINS_17__hash_value_typeINS_12basic_stringIcNS_11char_traitsIcEENS_9allocatorIcEEEE9characterEEPvEEEENS_25__bucket_list_deallocatorINS7_ISG_EEEEEixB8ne180100Em, symObjAddr: 0x1A7B0, symBinAddr: 0x10001E124, symSize: 0x34 }
  - { offset: 0x49D86, size: 0x8, addend: 0x0, symName: __ZNSt3__112__hash_tableINS_17__hash_value_typeINS_12basic_stringIcNS_11char_traitsIcEENS_9allocatorIcEEEE9characterEENS_22__unordered_map_hasherIS7_S9_NS_4hashIS7_EENS_8equal_toIS7_EELb1EEENS_21__unordered_map_equalIS7_S9_SE_SC_Lb1EEENS5_IS9_EEE4sizeB8ne180100Ev, symObjAddr: 0x1A7E4, symBinAddr: 0x10001E158, symSize: 0x28 }
  - { offset: 0x49DAC, size: 0x8, addend: 0x0, symName: __ZNSt3__117__compressed_pairINS_16__hash_node_baseIPNS_11__hash_nodeINS_17__hash_value_typeINS_12basic_stringIcNS_11char_traitsIcEENS_9allocatorIcEEEE9characterEEPvEEEENS7_ISD_EEE5firstB8ne180100Ev, symObjAddr: 0x1A80C, symBinAddr: 0x10001E180, symSize: 0x24 }
  - { offset: 0x49DD2, size: 0x8, addend: 0x0, symName: __ZNKSt3__117__compressed_pairIPPNS_16__hash_node_baseIPNS_11__hash_nodeINS_17__hash_value_typeINS_12basic_stringIcNS_11char_traitsIcEENS_9allocatorIcEEEE9characterEEPvEEEENS_25__bucket_list_deallocatorINS7_ISG_EEEEE5firstB8ne180100Ev, symObjAddr: 0x1A830, symBinAddr: 0x10001E1A4, symSize: 0x24 }
  - { offset: 0x49DF8, size: 0x8, addend: 0x0, symName: __ZNKSt3__122__compressed_pair_elemIPPNS_16__hash_node_baseIPNS_11__hash_nodeINS_17__hash_value_typeINS_12basic_stringIcNS_11char_traitsIcEENS_9allocatorIcEEEE9characterEEPvEEEELi0ELb0EE5__getB8ne180100Ev, symObjAddr: 0x1A854, symBinAddr: 0x10001E1C8, symSize: 0x14 }
  - { offset: 0x49E1E, size: 0x8, addend: 0x0, symName: __ZNSt3__117__compressed_pairImNS_22__unordered_map_hasherINS_12basic_stringIcNS_11char_traitsIcEENS_9allocatorIcEEEENS_17__hash_value_typeIS7_9characterEENS_4hashIS7_EENS_8equal_toIS7_EELb1EEEE5firstB8ne180100Ev, symObjAddr: 0x1A868, symBinAddr: 0x10001E1DC, symSize: 0x24 }
  - { offset: 0x49E44, size: 0x8, addend: 0x0, symName: __ZNSt3__122__compressed_pair_elemINS_16__hash_node_baseIPNS_11__hash_nodeINS_17__hash_value_typeINS_12basic_stringIcNS_11char_traitsIcEENS_9allocatorIcEEEE9characterEEPvEEEELi0ELb0EE5__getB8ne180100Ev, symObjAddr: 0x1A88C, symBinAddr: 0x10001E200, symSize: 0x14 }
  - { offset: 0x49E6A, size: 0x8, addend: 0x0, symName: __ZNSt3__114pointer_traitsIPNS_16__hash_node_baseIPNS_11__hash_nodeINS_17__hash_value_typeINS_12basic_stringIcNS_11char_traitsIcEENS_9allocatorIcEEEE9characterEEPvEEEEE10pointer_toB8ne180100ERSF_, symObjAddr: 0x1A8D0, symBinAddr: 0x10001E244, symSize: 0x14 }
  - { offset: 0x49E8D, size: 0x8, addend: 0x0, symName: __ZNKSt3__117__hash_value_typeINS_12basic_stringIcNS_11char_traitsIcEENS_9allocatorIcEEEE9characterE11__get_valueB8ne180100Ev, symObjAddr: 0x1A8E4, symBinAddr: 0x10001E258, symSize: 0x24 }
  - { offset: 0x49EB3, size: 0x8, addend: 0x0, symName: __ZNSt3__117__hash_value_typeINS_12basic_stringIcNS_11char_traitsIcEENS_9allocatorIcEEEE9characterE5__refB8ne180100Ev, symObjAddr: 0x1A908, symBinAddr: 0x10001E27C, symSize: 0x44 }
  - { offset: 0x49EE9, size: 0x8, addend: 0x0, symName: __ZNSt3__14pairIRNS_12basic_stringIcNS_11char_traitsIcEENS_9allocatorIcEEEER9characterEaSB8ne180100IKS6_S8_LPv0EEERSA_RKNS0_IT_T0_EE, symObjAddr: 0x1A94C, symBinAddr: 0x10001E2C0, symSize: 0x4C }
  - { offset: 0x49F37, size: 0x8, addend: 0x0, symName: __ZNSt3__117__hash_value_typeINS_12basic_stringIcNS_11char_traitsIcEENS_9allocatorIcEEEE9characterE11__get_valueB8ne180100Ev, symObjAddr: 0x1A9D0, symBinAddr: 0x10001E344, symSize: 0x24 }
  - { offset: 0x49F5D, size: 0x8, addend: 0x0, symName: __ZNSt3__14pairIRNS_12basic_stringIcNS_11char_traitsIcEENS_9allocatorIcEEEER9characterEC1B8ne180100ILb1ELi0EEES7_S9_, symObjAddr: 0x1A9F4, symBinAddr: 0x10001E368, symSize: 0x3C }
  - { offset: 0x49FB3, size: 0x8, addend: 0x0, symName: __ZNSt3__14pairIRNS_12basic_stringIcNS_11char_traitsIcEENS_9allocatorIcEEEER9characterEC2B8ne180100ILb1ELi0EEES7_S9_, symObjAddr: 0x1AA68, symBinAddr: 0x10001E3DC, symSize: 0x2C }
  - { offset: 0x4A009, size: 0x8, addend: 0x0, symName: __ZNKSt3__122__unordered_map_hasherINS_12basic_stringIcNS_11char_traitsIcEENS_9allocatorIcEEEENS_17__hash_value_typeIS6_9characterEENS_4hashIS6_EENS_8equal_toIS6_EELb1EEclB8ne180100ERKS9_, symObjAddr: 0x1AA94, symBinAddr: 0x10001E408, symSize: 0x3C }
  - { offset: 0x4A03F, size: 0x8, addend: 0x0, symName: __ZNSt3__112__hash_tableINS_17__hash_value_typeINS_12basic_stringIcNS_11char_traitsIcEENS_9allocatorIcEEEE9characterEENS_22__unordered_map_hasherIS7_S9_NS_4hashIS7_EENS_8equal_toIS7_EELb1EEENS_21__unordered_map_equalIS7_S9_SE_SC_Lb1EEENS5_IS9_EEE27__node_insert_multi_prepareEmRS9_, symObjAddr: 0x1AAD0, symBinAddr: 0x10001E444, symSize: 0x29C }
  - { offset: 0x4A0D7, size: 0x8, addend: 0x0, symName: __ZNKSt3__116__hash_node_baseIPNS_11__hash_nodeINS_17__hash_value_typeINS_12basic_stringIcNS_11char_traitsIcEENS_9allocatorIcEEEE9characterEEPvEEE6__hashB8ne180100Ev, symObjAddr: 0x1AD6C, symBinAddr: 0x10001E6E0, symSize: 0x18 }
  - { offset: 0x4A0FD, size: 0x8, addend: 0x0, symName: __ZNSt3__112__hash_tableINS_17__hash_value_typeINS_12basic_stringIcNS_11char_traitsIcEENS_9allocatorIcEEEE9characterEENS_22__unordered_map_hasherIS7_S9_NS_4hashIS7_EENS_8equal_toIS7_EELb1EEENS_21__unordered_map_equalIS7_S9_SE_SC_Lb1EEENS5_IS9_EEE27__node_insert_multi_performEPNS_11__hash_nodeIS9_PvEEPNS_16__hash_node_baseISN_EE, symObjAddr: 0x1AD84, symBinAddr: 0x10001E6F8, symSize: 0x1B8 }
  - { offset: 0x4A184, size: 0x8, addend: 0x0, symName: __ZNSt3__116__hash_node_baseIPNS_11__hash_nodeINS_17__hash_value_typeINS_12basic_stringIcNS_11char_traitsIcEENS_9allocatorIcEEEE9characterEEPvEEE5__ptrB8ne180100Ev, symObjAddr: 0x1AF3C, symBinAddr: 0x10001E8B0, symSize: 0x24 }
  - { offset: 0x4A1AA, size: 0x8, addend: 0x0, symName: __ZNSt3__115__hash_iteratorIPNS_11__hash_nodeINS_17__hash_value_typeINS_12basic_stringIcNS_11char_traitsIcEENS_9allocatorIcEEEE9characterEEPvEEEC1B8ne180100EPNS_16__hash_node_baseISD_EE, symObjAddr: 0x1AF60, symBinAddr: 0x10001E8D4, symSize: 0x34 }
  - { offset: 0x4A1E4, size: 0x8, addend: 0x0, symName: __ZNSt3__112__hash_tableINS_17__hash_value_typeINS_12basic_stringIcNS_11char_traitsIcEENS_9allocatorIcEEEE9characterEENS_22__unordered_map_hasherIS7_S9_NS_4hashIS7_EENS_8equal_toIS7_EELb1EEENS_21__unordered_map_equalIS7_S9_SE_SC_Lb1EEENS5_IS9_EEE14__rehash_multiB8ne180100Em, symObjAddr: 0x1AF94, symBinAddr: 0x10001E908, symSize: 0x2C }
  - { offset: 0x4A21A, size: 0x8, addend: 0x0, symName: __ZNKSt3__121__unordered_map_equalINS_12basic_stringIcNS_11char_traitsIcEENS_9allocatorIcEEEENS_17__hash_value_typeIS6_9characterEENS_8equal_toIS6_EENS_4hashIS6_EELb1EEclB8ne180100ERKS9_SG_, symObjAddr: 0x1AFC0, symBinAddr: 0x10001E934, symSize: 0x54 }
  - { offset: 0x4A260, size: 0x8, addend: 0x0, symName: __ZNSt3__112__hash_tableINS_17__hash_value_typeINS_12basic_stringIcNS_11char_traitsIcEENS_9allocatorIcEEEE9characterEENS_22__unordered_map_hasherIS7_S9_NS_4hashIS7_EENS_8equal_toIS7_EELb1EEENS_21__unordered_map_equalIS7_S9_SE_SC_Lb1EEENS5_IS9_EEE8__rehashILb0EEEvm, symObjAddr: 0x1B014, symBinAddr: 0x10001E988, symSize: 0x1A8 }
  - { offset: 0x4A2B2, size: 0x8, addend: 0x0, symName: __ZNSt3__112__hash_tableINS_17__hash_value_typeINS_12basic_stringIcNS_11char_traitsIcEENS_9allocatorIcEEEE9characterEENS_22__unordered_map_hasherIS7_S9_NS_4hashIS7_EENS_8equal_toIS7_EELb1EEENS_21__unordered_map_equalIS7_S9_SE_SC_Lb1EEENS5_IS9_EEE11__do_rehashILb0EEEvm, symObjAddr: 0x1B1BC, symBinAddr: 0x10001EB30, symSize: 0x310 }
  - { offset: 0x4A3A1, size: 0x8, addend: 0x0, symName: __ZNSt3__110unique_ptrIA_PNS_16__hash_node_baseIPNS_11__hash_nodeINS_17__hash_value_typeINS_12basic_stringIcNS_11char_traitsIcEENS_9allocatorIcEEEE9characterEEPvEEEENS_25__bucket_list_deallocatorINS7_ISG_EEEEE11get_deleterB8ne180100Ev, symObjAddr: 0x1B4CC, symBinAddr: 0x10001EE40, symSize: 0x24 }
  - { offset: 0x4A3C7, size: 0x8, addend: 0x0, symName: __ZNSt3__125__bucket_list_deallocatorINS_9allocatorIPNS_16__hash_node_baseIPNS_11__hash_nodeINS_17__hash_value_typeINS_12basic_stringIcNS_11char_traitsIcEENS1_IcEEEE9characterEEPvEEEEEEE7__allocB8ne180100Ev, symObjAddr: 0x1B4F0, symBinAddr: 0x10001EE64, symSize: 0x24 }
  - { offset: 0x4A3ED, size: 0x8, addend: 0x0, symName: __ZNSt3__110unique_ptrIA_PNS_16__hash_node_baseIPNS_11__hash_nodeINS_17__hash_value_typeINS_12basic_stringIcNS_11char_traitsIcEENS_9allocatorIcEEEE9characterEEPvEEEENS_25__bucket_list_deallocatorINS7_ISG_EEEEE5resetB8ne180100IPSG_Li0EEEvT_, symObjAddr: 0x1B514, symBinAddr: 0x10001EE88, symSize: 0x78 }
  - { offset: 0x4A442, size: 0x8, addend: 0x0, symName: __ZNSt3__116allocator_traitsINS_9allocatorIPNS_16__hash_node_baseIPNS_11__hash_nodeINS_17__hash_value_typeINS_12basic_stringIcNS_11char_traitsIcEENS1_IcEEEE9characterEEPvEEEEEEE8allocateB8ne180100ERSH_m, symObjAddr: 0x1B58C, symBinAddr: 0x10001EF00, symSize: 0x2C }
  - { offset: 0x4A477, size: 0x8, addend: 0x0, symName: __ZNSt3__125__bucket_list_deallocatorINS_9allocatorIPNS_16__hash_node_baseIPNS_11__hash_nodeINS_17__hash_value_typeINS_12basic_stringIcNS_11char_traitsIcEENS1_IcEEEE9characterEEPvEEEEEEE4sizeB8ne180100Ev, symObjAddr: 0x1B5B8, symBinAddr: 0x10001EF2C, symSize: 0x24 }
  - { offset: 0x4A49D, size: 0x8, addend: 0x0, symName: __ZNSt3__117__compressed_pairIPPNS_16__hash_node_baseIPNS_11__hash_nodeINS_17__hash_value_typeINS_12basic_stringIcNS_11char_traitsIcEENS_9allocatorIcEEEE9characterEEPvEEEENS_25__bucket_list_deallocatorINS7_ISG_EEEEE6secondB8ne180100Ev, symObjAddr: 0x1B5DC, symBinAddr: 0x10001EF50, symSize: 0x28 }
  - { offset: 0x4A4C3, size: 0x8, addend: 0x0, symName: __ZNSt3__122__compressed_pair_elemINS_25__bucket_list_deallocatorINS_9allocatorIPNS_16__hash_node_baseIPNS_11__hash_nodeINS_17__hash_value_typeINS_12basic_stringIcNS_11char_traitsIcEENS2_IcEEEE9characterEEPvEEEEEEEELi1ELb0EE5__getB8ne180100Ev, symObjAddr: 0x1B604, symBinAddr: 0x10001EF78, symSize: 0x14 }
  - { offset: 0x4A4E9, size: 0x8, addend: 0x0, symName: __ZNSt3__117__compressed_pairImNS_9allocatorIPNS_16__hash_node_baseIPNS_11__hash_nodeINS_17__hash_value_typeINS_12basic_stringIcNS_11char_traitsIcEENS1_IcEEEE9characterEEPvEEEEEEE6secondB8ne180100Ev, symObjAddr: 0x1B618, symBinAddr: 0x10001EF8C, symSize: 0x24 }
  - { offset: 0x4A50F, size: 0x8, addend: 0x0, symName: __ZNSt3__122__compressed_pair_elemINS_9allocatorIPNS_16__hash_node_baseIPNS_11__hash_nodeINS_17__hash_value_typeINS_12basic_stringIcNS_11char_traitsIcEENS1_IcEEEE9characterEEPvEEEEEELi1ELb1EE5__getB8ne180100Ev, symObjAddr: 0x1B63C, symBinAddr: 0x10001EFB0, symSize: 0x14 }
  - { offset: 0x4A535, size: 0x8, addend: 0x0, symName: __ZNSt3__117__compressed_pairIPPNS_16__hash_node_baseIPNS_11__hash_nodeINS_17__hash_value_typeINS_12basic_stringIcNS_11char_traitsIcEENS_9allocatorIcEEEE9characterEEPvEEEENS_25__bucket_list_deallocatorINS7_ISG_EEEEE5firstB8ne180100Ev, symObjAddr: 0x1B650, symBinAddr: 0x10001EFC4, symSize: 0x24 }
  - { offset: 0x4A55B, size: 0x8, addend: 0x0, symName: __ZNSt3__125__bucket_list_deallocatorINS_9allocatorIPNS_16__hash_node_baseIPNS_11__hash_nodeINS_17__hash_value_typeINS_12basic_stringIcNS_11char_traitsIcEENS1_IcEEEE9characterEEPvEEEEEEEclB8ne180100EPSG_, symObjAddr: 0x1B674, symBinAddr: 0x10001EFE8, symSize: 0x58 }
  - { offset: 0x4A591, size: 0x8, addend: 0x0, symName: __ZNSt3__122__compressed_pair_elemIPPNS_16__hash_node_baseIPNS_11__hash_nodeINS_17__hash_value_typeINS_12basic_stringIcNS_11char_traitsIcEENS_9allocatorIcEEEE9characterEEPvEEEELi0ELb0EE5__getB8ne180100Ev, symObjAddr: 0x1B6CC, symBinAddr: 0x10001F040, symSize: 0x14 }
  - { offset: 0x4A5B7, size: 0x8, addend: 0x0, symName: __ZNSt3__116allocator_traitsINS_9allocatorIPNS_16__hash_node_baseIPNS_11__hash_nodeINS_17__hash_value_typeINS_12basic_stringIcNS_11char_traitsIcEENS1_IcEEEE9characterEEPvEEEEEEE10deallocateB8ne180100ERSH_PSG_m, symObjAddr: 0x1B6E0, symBinAddr: 0x10001F054, symSize: 0x34 }
  - { offset: 0x4A5FC, size: 0x8, addend: 0x0, symName: __ZNSt3__19allocatorIPNS_16__hash_node_baseIPNS_11__hash_nodeINS_17__hash_value_typeINS_12basic_stringIcNS_11char_traitsIcEENS0_IcEEEE9characterEEPvEEEEE10deallocateB8ne180100EPSF_m, symObjAddr: 0x1B714, symBinAddr: 0x10001F088, symSize: 0x40 }
  - { offset: 0x4A63E, size: 0x8, addend: 0x0, symName: __ZNSt3__19allocatorIPNS_16__hash_node_baseIPNS_11__hash_nodeINS_17__hash_value_typeINS_12basic_stringIcNS_11char_traitsIcEENS0_IcEEEE9characterEEPvEEEEE8allocateB8ne180100Em, symObjAddr: 0x1B754, symBinAddr: 0x10001F0C8, symSize: 0x58 }
  - { offset: 0x4A67C, size: 0x8, addend: 0x0, symName: __ZNSt3__116allocator_traitsINS_9allocatorIPNS_16__hash_node_baseIPNS_11__hash_nodeINS_17__hash_value_typeINS_12basic_stringIcNS_11char_traitsIcEENS1_IcEEEE9characterEEPvEEEEEEE8max_sizeB8ne180100ISH_vEEmRKSH_, symObjAddr: 0x1B7AC, symBinAddr: 0x10001F120, symSize: 0x24 }
  - { offset: 0x4A6AB, size: 0x8, addend: 0x0, symName: __ZNKSt3__19allocatorIPNS_16__hash_node_baseIPNS_11__hash_nodeINS_17__hash_value_typeINS_12basic_stringIcNS_11char_traitsIcEENS0_IcEEEE9characterEEPvEEEEE8max_sizeB8ne180100Ev, symObjAddr: 0x1B7D0, symBinAddr: 0x10001F144, symSize: 0x14 }
  - { offset: 0x4A6D1, size: 0x8, addend: 0x0, symName: __ZNSt3__117__compressed_pairImNS_9allocatorIPNS_16__hash_node_baseIPNS_11__hash_nodeINS_17__hash_value_typeINS_12basic_stringIcNS_11char_traitsIcEENS1_IcEEEE9characterEEPvEEEEEEE5firstB8ne180100Ev, symObjAddr: 0x1B7E4, symBinAddr: 0x10001F158, symSize: 0x24 }
  - { offset: 0x4A6F7, size: 0x8, addend: 0x0, symName: __ZNSt3__115__hash_iteratorIPNS_11__hash_nodeINS_17__hash_value_typeINS_12basic_stringIcNS_11char_traitsIcEENS_9allocatorIcEEEE9characterEEPvEEEC2B8ne180100EPNS_16__hash_node_baseISD_EE, symObjAddr: 0x1B808, symBinAddr: 0x10001F17C, symSize: 0x20 }
  - { offset: 0x4A731, size: 0x8, addend: 0x0, symName: __ZNSt3__112__hash_tableINS_17__hash_value_typeINS_12basic_stringIcNS_11char_traitsIcEENS_9allocatorIcEEEE9characterEENS_22__unordered_map_hasherIS7_S9_NS_4hashIS7_EENS_8equal_toIS7_EELb1EEENS_21__unordered_map_equalIS7_S9_SE_SC_Lb1EEENS5_IS9_EEE12__node_allocB8ne180100Ev, symObjAddr: 0x1B828, symBinAddr: 0x10001F19C, symSize: 0x28 }
  - { offset: 0x4A757, size: 0x8, addend: 0x0, symName: __ZNSt3__116allocator_traitsINS_9allocatorINS_11__hash_nodeINS_17__hash_value_typeINS_12basic_stringIcNS_11char_traitsIcEENS1_IcEEEE9characterEEPvEEEEE7destroyB8ne180100INS_4pairIKS8_S9_EEvvEEvRSD_PT_, symObjAddr: 0x1B850, symBinAddr: 0x10001F1C4, symSize: 0x28 }
  - { offset: 0x4A793, size: 0x8, addend: 0x0, symName: __ZNSt3__122__hash_key_value_typesINS_17__hash_value_typeINS_12basic_stringIcNS_11char_traitsIcEENS_9allocatorIcEEEE9characterEEE9__get_ptrB8ne180100ERS9_, symObjAddr: 0x1B878, symBinAddr: 0x10001F1EC, symSize: 0x24 }
  - { offset: 0x4A7B6, size: 0x8, addend: 0x0, symName: __ZNSt3__116allocator_traitsINS_9allocatorINS_11__hash_nodeINS_17__hash_value_typeINS_12basic_stringIcNS_11char_traitsIcEENS1_IcEEEE9characterEEPvEEEEE10deallocateB8ne180100ERSD_PSC_m, symObjAddr: 0x1B8C0, symBinAddr: 0x10001F234, symSize: 0x34 }
  - { offset: 0x4A7FB, size: 0x8, addend: 0x0, symName: __ZNSt3__117__compressed_pairINS_16__hash_node_baseIPNS_11__hash_nodeINS_17__hash_value_typeINS_12basic_stringIcNS_11char_traitsIcEENS_9allocatorIcEEEE9characterEEPvEEEENS7_ISD_EEE6secondB8ne180100Ev, symObjAddr: 0x1B8F4, symBinAddr: 0x10001F268, symSize: 0x24 }
  - { offset: 0x4A821, size: 0x8, addend: 0x0, symName: __ZNSt3__122__compressed_pair_elemINS_9allocatorINS_11__hash_nodeINS_17__hash_value_typeINS_12basic_stringIcNS_11char_traitsIcEENS1_IcEEEE9characterEEPvEEEELi1ELb1EE5__getB8ne180100Ev, symObjAddr: 0x1B918, symBinAddr: 0x10001F28C, symSize: 0x14 }
  - { offset: 0x4A847, size: 0x8, addend: 0x0, symName: __ZNSt3__14pairIKNS_12basic_stringIcNS_11char_traitsIcEENS_9allocatorIcEEEE9characterED1Ev, symObjAddr: 0x1B950, symBinAddr: 0x10001F2C4, symSize: 0x2C }
  - { offset: 0x4A873, size: 0x8, addend: 0x0, symName: __ZNSt3__14pairIKNS_12basic_stringIcNS_11char_traitsIcEENS_9allocatorIcEEEE9characterED2Ev, symObjAddr: 0x1B97C, symBinAddr: 0x10001F2F0, symSize: 0x38 }
  - { offset: 0x4A89F, size: 0x8, addend: 0x0, symName: __ZNSt3__111__hash_nodeINS_17__hash_value_typeINS_12basic_stringIcNS_11char_traitsIcEENS_9allocatorIcEEEE9characterEEPvED1B8ne180100Ev, symObjAddr: 0x1B9B4, symBinAddr: 0x10001F328, symSize: 0x2C }
  - { offset: 0x4A8C9, size: 0x8, addend: 0x0, symName: __ZNSt3__111__hash_nodeINS_17__hash_value_typeINS_12basic_stringIcNS_11char_traitsIcEENS_9allocatorIcEEEE9characterEEPvED2B8ne180100Ev, symObjAddr: 0x1B9E0, symBinAddr: 0x10001F354, symSize: 0x14 }
  - { offset: 0x4A8F3, size: 0x8, addend: 0x0, symName: __ZNSt3__19allocatorINS_11__hash_nodeINS_17__hash_value_typeINS_12basic_stringIcNS_11char_traitsIcEENS0_IcEEEE9characterEEPvEEE10deallocateB8ne180100EPSB_m, symObjAddr: 0x1B9F4, symBinAddr: 0x10001F368, symSize: 0x44 }
  - { offset: 0x4A935, size: 0x8, addend: 0x0, symName: __ZNSt3__112__hash_tableINS_17__hash_value_typeINS_12basic_stringIcNS_11char_traitsIcEENS_9allocatorIcEEEE9characterEENS_22__unordered_map_hasherIS7_S9_NS_4hashIS7_EENS_8equal_toIS7_EELb1EEENS_21__unordered_map_equalIS7_S9_SE_SC_Lb1EEENS5_IS9_EEE15__emplace_multiIJRKNS_4pairIKS7_S8_EEEEENS_15__hash_iteratorIPNS_11__hash_nodeIS9_PvEEEEDpOT_, symObjAddr: 0x1BA38, symBinAddr: 0x10001F3AC, symSize: 0x94 }
  - { offset: 0x4A998, size: 0x8, addend: 0x0, symName: __ZNSt3__112__hash_tableINS_17__hash_value_typeINS_12basic_stringIcNS_11char_traitsIcEENS_9allocatorIcEEEE9characterEENS_22__unordered_map_hasherIS7_S9_NS_4hashIS7_EENS_8equal_toIS7_EELb1EEENS_21__unordered_map_equalIS7_S9_SE_SC_Lb1EEENS5_IS9_EEE16__construct_nodeIJRKNS_4pairIKS7_S8_EEEEENS_10unique_ptrINS_11__hash_nodeIS9_PvEENS_22__hash_node_destructorINS5_IST_EEEEEEDpOT_, symObjAddr: 0x1BACC, symBinAddr: 0x10001F440, symSize: 0x180 }
  - { offset: 0x4A9FC, size: 0x8, addend: 0x0, symName: __ZNKSt3__110unique_ptrINS_11__hash_nodeINS_17__hash_value_typeINS_12basic_stringIcNS_11char_traitsIcEENS_9allocatorIcEEEE9characterEEPvEENS_22__hash_node_destructorINS6_ISC_EEEEE3getB8ne180100Ev, symObjAddr: 0x1BC4C, symBinAddr: 0x10001F5C0, symSize: 0x28 }
  - { offset: 0x4AA22, size: 0x8, addend: 0x0, symName: __ZNSt3__110unique_ptrINS_11__hash_nodeINS_17__hash_value_typeINS_12basic_stringIcNS_11char_traitsIcEENS_9allocatorIcEEEE9characterEEPvEENS_22__hash_node_destructorINS6_ISC_EEEEE7releaseB8ne180100Ev, symObjAddr: 0x1BC74, symBinAddr: 0x10001F5E8, symSize: 0x44 }
  - { offset: 0x4AA58, size: 0x8, addend: 0x0, symName: __ZNSt3__110unique_ptrINS_11__hash_nodeINS_17__hash_value_typeINS_12basic_stringIcNS_11char_traitsIcEENS_9allocatorIcEEEE9characterEEPvEENS_22__hash_node_destructorINS6_ISC_EEEEED1B8ne180100Ev, symObjAddr: 0x1BCB8, symBinAddr: 0x10001F62C, symSize: 0x2C }
  - { offset: 0x4AA82, size: 0x8, addend: 0x0, symName: __ZNSt3__116allocator_traitsINS_9allocatorINS_11__hash_nodeINS_17__hash_value_typeINS_12basic_stringIcNS_11char_traitsIcEENS1_IcEEEE9characterEEPvEEEEE8allocateB8ne180100ERSD_m, symObjAddr: 0x1BCE4, symBinAddr: 0x10001F658, symSize: 0x2C }
  - { offset: 0x4AAB7, size: 0x8, addend: 0x0, symName: __ZNSt3__122__hash_node_destructorINS_9allocatorINS_11__hash_nodeINS_17__hash_value_typeINS_12basic_stringIcNS_11char_traitsIcEENS1_IcEEEE9characterEEPvEEEEEC1B8ne180100ERSD_b, symObjAddr: 0x1BD10, symBinAddr: 0x10001F684, symSize: 0x48 }
  - { offset: 0x4AB06, size: 0x8, addend: 0x0, symName: __ZNSt3__110unique_ptrINS_11__hash_nodeINS_17__hash_value_typeINS_12basic_stringIcNS_11char_traitsIcEENS_9allocatorIcEEEE9characterEEPvEENS_22__hash_node_destructorINS6_ISC_EEEEEC1B8ne180100ILb1EvEEPSC_NS_16__dependent_typeINS_27__unique_ptr_deleter_sfinaeISF_EEXT_EE20__good_rval_ref_typeE, symObjAddr: 0x1BD58, symBinAddr: 0x10001F6CC, symSize: 0x3C }
  - { offset: 0x4AB57, size: 0x8, addend: 0x0, symName: __ZNKSt3__110unique_ptrINS_11__hash_nodeINS_17__hash_value_typeINS_12basic_stringIcNS_11char_traitsIcEENS_9allocatorIcEEEE9characterEEPvEENS_22__hash_node_destructorINS6_ISC_EEEEEdeB8ne180100Ev, symObjAddr: 0x1BDD4, symBinAddr: 0x10001F748, symSize: 0x28 }
  - { offset: 0x4AB7D, size: 0x8, addend: 0x0, symName: __ZNSt3__116allocator_traitsINS_9allocatorINS_11__hash_nodeINS_17__hash_value_typeINS_12basic_stringIcNS_11char_traitsIcEENS1_IcEEEE9characterEEPvEEEEE9constructB8ne180100INS_4pairIKS8_S9_EEJRKSI_EvEEvRSD_PT_DpOT0_, symObjAddr: 0x1BDFC, symBinAddr: 0x10001F770, symSize: 0x34 }
  - { offset: 0x4ABD7, size: 0x8, addend: 0x0, symName: __ZNKSt3__110unique_ptrINS_11__hash_nodeINS_17__hash_value_typeINS_12basic_stringIcNS_11char_traitsIcEENS_9allocatorIcEEEE9characterEEPvEENS_22__hash_node_destructorINS6_ISC_EEEEEptB8ne180100Ev, symObjAddr: 0x1BE30, symBinAddr: 0x10001F7A4, symSize: 0x28 }
  - { offset: 0x4ABFD, size: 0x8, addend: 0x0, symName: __ZNSt3__110unique_ptrINS_11__hash_nodeINS_17__hash_value_typeINS_12basic_stringIcNS_11char_traitsIcEENS_9allocatorIcEEEE9characterEEPvEENS_22__hash_node_destructorINS6_ISC_EEEEE11get_deleterB8ne180100Ev, symObjAddr: 0x1BE58, symBinAddr: 0x10001F7CC, symSize: 0x24 }
  - { offset: 0x4AC23, size: 0x8, addend: 0x0, symName: __ZNSt3__19allocatorINS_11__hash_nodeINS_17__hash_value_typeINS_12basic_stringIcNS_11char_traitsIcEENS0_IcEEEE9characterEEPvEEE8allocateB8ne180100Em, symObjAddr: 0x1BE7C, symBinAddr: 0x10001F7F0, symSize: 0x5C }
  - { offset: 0x4AC61, size: 0x8, addend: 0x0, symName: __ZNSt3__116allocator_traitsINS_9allocatorINS_11__hash_nodeINS_17__hash_value_typeINS_12basic_stringIcNS_11char_traitsIcEENS1_IcEEEE9characterEEPvEEEEE8max_sizeB8ne180100ISD_vEEmRKSD_, symObjAddr: 0x1BED8, symBinAddr: 0x10001F84C, symSize: 0x24 }
  - { offset: 0x4AC90, size: 0x8, addend: 0x0, symName: __ZNKSt3__19allocatorINS_11__hash_nodeINS_17__hash_value_typeINS_12basic_stringIcNS_11char_traitsIcEENS0_IcEEEE9characterEEPvEEE8max_sizeB8ne180100Ev, symObjAddr: 0x1BEFC, symBinAddr: 0x10001F870, symSize: 0x20 }
  - { offset: 0x4ACB6, size: 0x8, addend: 0x0, symName: __ZNSt3__122__hash_node_destructorINS_9allocatorINS_11__hash_nodeINS_17__hash_value_typeINS_12basic_stringIcNS_11char_traitsIcEENS1_IcEEEE9characterEEPvEEEEEC2B8ne180100ERSD_b, symObjAddr: 0x1BF1C, symBinAddr: 0x10001F890, symSize: 0x38 }
  - { offset: 0x4AD00, size: 0x8, addend: 0x0, symName: __ZNSt3__110unique_ptrINS_11__hash_nodeINS_17__hash_value_typeINS_12basic_stringIcNS_11char_traitsIcEENS_9allocatorIcEEEE9characterEEPvEENS_22__hash_node_destructorINS6_ISC_EEEEEC2B8ne180100ILb1EvEEPSC_NS_16__dependent_typeINS_27__unique_ptr_deleter_sfinaeISF_EEXT_EE20__good_rval_ref_typeE, symObjAddr: 0x1BF54, symBinAddr: 0x10001F8C8, symSize: 0x48 }
  - { offset: 0x4AD51, size: 0x8, addend: 0x0, symName: __ZNSt3__117__compressed_pairIPNS_11__hash_nodeINS_17__hash_value_typeINS_12basic_stringIcNS_11char_traitsIcEENS_9allocatorIcEEEE9characterEEPvEENS_22__hash_node_destructorINS6_ISC_EEEEEC1B8ne180100IRSD_SG_EEOT_OT0_, symObjAddr: 0x1BF9C, symBinAddr: 0x10001F910, symSize: 0x3C }
  - { offset: 0x4ADA9, size: 0x8, addend: 0x0, symName: __ZNSt3__117__compressed_pairIPNS_11__hash_nodeINS_17__hash_value_typeINS_12basic_stringIcNS_11char_traitsIcEENS_9allocatorIcEEEE9characterEEPvEENS_22__hash_node_destructorINS6_ISC_EEEEEC2B8ne180100IRSD_SG_EEOT_OT0_, symObjAddr: 0x1BFD8, symBinAddr: 0x10001F94C, symSize: 0x48 }
  - { offset: 0x4AE01, size: 0x8, addend: 0x0, symName: __ZNSt3__122__compressed_pair_elemIPNS_11__hash_nodeINS_17__hash_value_typeINS_12basic_stringIcNS_11char_traitsIcEENS_9allocatorIcEEEE9characterEEPvEELi0ELb0EEC2B8ne180100IRSD_vEEOT_, symObjAddr: 0x1C020, symBinAddr: 0x10001F994, symSize: 0x24 }
  - { offset: 0x4AE43, size: 0x8, addend: 0x0, symName: __ZNSt3__122__compressed_pair_elemINS_22__hash_node_destructorINS_9allocatorINS_11__hash_nodeINS_17__hash_value_typeINS_12basic_stringIcNS_11char_traitsIcEENS2_IcEEEE9characterEEPvEEEEEELi1ELb0EEC2B8ne180100ISF_vEEOT_, symObjAddr: 0x1C044, symBinAddr: 0x10001F9B8, symSize: 0x24 }
  - { offset: 0x4AE85, size: 0x8, addend: 0x0, symName: __ZNSt3__111__hash_nodeINS_17__hash_value_typeINS_12basic_stringIcNS_11char_traitsIcEENS_9allocatorIcEEEE9characterEEPvEC1B8ne180100EPNS_16__hash_node_baseIPSB_EEm, symObjAddr: 0x1C068, symBinAddr: 0x10001F9DC, symSize: 0x3C }
  - { offset: 0x4AECB, size: 0x8, addend: 0x0, symName: __ZNSt3__111__hash_nodeINS_17__hash_value_typeINS_12basic_stringIcNS_11char_traitsIcEENS_9allocatorIcEEEE9characterEEPvEC2B8ne180100EPNS_16__hash_node_baseIPSB_EEm, symObjAddr: 0x1C0A4, symBinAddr: 0x10001FA18, symSize: 0x40 }
  - { offset: 0x4AF11, size: 0x8, addend: 0x0, symName: __ZNSt3__116__hash_node_baseIPNS_11__hash_nodeINS_17__hash_value_typeINS_12basic_stringIcNS_11char_traitsIcEENS_9allocatorIcEEEE9characterEEPvEEEC2B8ne180100EPSE_, symObjAddr: 0x1C0E4, symBinAddr: 0x10001FA58, symSize: 0x20 }
  - { offset: 0x4AF49, size: 0x8, addend: 0x0, symName: __ZNKSt3__117__compressed_pairIPNS_11__hash_nodeINS_17__hash_value_typeINS_12basic_stringIcNS_11char_traitsIcEENS_9allocatorIcEEEE9characterEEPvEENS_22__hash_node_destructorINS6_ISC_EEEEE5firstB8ne180100Ev, symObjAddr: 0x1C104, symBinAddr: 0x10001FA78, symSize: 0x24 }
  - { offset: 0x4AF6F, size: 0x8, addend: 0x0, symName: __ZNKSt3__122__compressed_pair_elemIPNS_11__hash_nodeINS_17__hash_value_typeINS_12basic_stringIcNS_11char_traitsIcEENS_9allocatorIcEEEE9characterEEPvEELi0ELb0EE5__getB8ne180100Ev, symObjAddr: 0x1C128, symBinAddr: 0x10001FA9C, symSize: 0x14 }
  - { offset: 0x4AF95, size: 0x8, addend: 0x0, symName: __ZNSt3__19allocatorINS_11__hash_nodeINS_17__hash_value_typeINS_12basic_stringIcNS_11char_traitsIcEENS0_IcEEEE9characterEEPvEEE9constructB8ne180100INS_4pairIKS7_S8_EEJRKSG_EEEvPT_DpOT0_, symObjAddr: 0x1C13C, symBinAddr: 0x10001FAB0, symSize: 0x30 }
  - { offset: 0x4AFEB, size: 0x8, addend: 0x0, symName: __ZNSt3__14pairIKNS_12basic_stringIcNS_11char_traitsIcEENS_9allocatorIcEEEE9characterEC1B8ne180100ERKS9_, symObjAddr: 0x1C16C, symBinAddr: 0x10001FAE0, symSize: 0x34 }
  - { offset: 0x4B020, size: 0x8, addend: 0x0, symName: __ZNSt3__14pairIKNS_12basic_stringIcNS_11char_traitsIcEENS_9allocatorIcEEEE9characterEC2B8ne180100ERKS9_, symObjAddr: 0x1C1A0, symBinAddr: 0x10001FB14, symSize: 0x70 }
  - { offset: 0x4B055, size: 0x8, addend: 0x0, symName: __ZN9characterC1ERKS_, symObjAddr: 0x1C210, symBinAddr: 0x10001FB84, symSize: 0x34 }
  - { offset: 0x4B08A, size: 0x8, addend: 0x0, symName: __ZN9characterC2ERKS_, symObjAddr: 0x1C244, symBinAddr: 0x10001FBB8, symSize: 0x16C }
  - { offset: 0x4B0BF, size: 0x8, addend: 0x0, symName: __ZNSt3__113unordered_mapINS_12basic_stringIcNS_11char_traitsIcEENS_9allocatorIcEEEE9characterNS_4hashIS6_EENS_8equal_toIS6_EENS4_INS_4pairIKS6_S7_EEEEEC1ERKSG_, symObjAddr: 0x1C3B0, symBinAddr: 0x10001FD24, symSize: 0x34 }
  - { offset: 0x4B0FB, size: 0x8, addend: 0x0, symName: __ZNSt3__113unordered_mapINS_12basic_stringIcNS_11char_traitsIcEENS_9allocatorIcEEEE9characterNS_4hashIS6_EENS_8equal_toIS6_EENS4_INS_4pairIKS6_S7_EEEEEC2ERKSG_, symObjAddr: 0x1C3E4, symBinAddr: 0x10001FD58, symSize: 0xA0 }
  - { offset: 0x4B137, size: 0x8, addend: 0x0, symName: __ZNSt3__112__hash_tableINS_17__hash_value_typeINS_12basic_stringIcNS_11char_traitsIcEENS_9allocatorIcEEEE9characterEENS_22__unordered_map_hasherIS7_S9_NS_4hashIS7_EENS_8equal_toIS7_EELb1EEENS_21__unordered_map_equalIS7_S9_SE_SC_Lb1EEENS5_IS9_EEEC1ERKSJ_, symObjAddr: 0x1C484, symBinAddr: 0x10001FDF8, symSize: 0x34 }
  - { offset: 0x4B173, size: 0x8, addend: 0x0, symName: __ZNSt3__112__hash_tableINS_17__hash_value_typeINS_12basic_stringIcNS_11char_traitsIcEENS_9allocatorIcEEEE9characterEENS_22__unordered_map_hasherIS7_S9_NS_4hashIS7_EENS_8equal_toIS7_EELb1EEENS_21__unordered_map_equalIS7_S9_SE_SC_Lb1EEENS5_IS9_EEE15__rehash_uniqueB8ne180100Em, symObjAddr: 0x1C4B8, symBinAddr: 0x10001FE2C, symSize: 0x2C }
  - { offset: 0x4B1A9, size: 0x8, addend: 0x0, symName: __ZNKSt3__113unordered_mapINS_12basic_stringIcNS_11char_traitsIcEENS_9allocatorIcEEEE9characterNS_4hashIS6_EENS_8equal_toIS6_EENS4_INS_4pairIKS6_S7_EEEEE12bucket_countB8ne180100Ev, symObjAddr: 0x1C4E4, symBinAddr: 0x10001FE58, symSize: 0x24 }
  - { offset: 0x4B1CF, size: 0x8, addend: 0x0, symName: __ZNSt3__113unordered_mapINS_12basic_stringIcNS_11char_traitsIcEENS_9allocatorIcEEEE9characterNS_4hashIS6_EENS_8equal_toIS6_EENS4_INS_4pairIKS6_S7_EEEEE6insertINS_25__hash_map_const_iteratorINS_21__hash_const_iteratorIPNS_11__hash_nodeINS_17__hash_value_typeIS6_S7_EEPvEEEEEEEEvT_SS_, symObjAddr: 0x1C508, symBinAddr: 0x10001FE7C, symSize: 0x70 }
  - { offset: 0x4B220, size: 0x8, addend: 0x0, symName: __ZNKSt3__113unordered_mapINS_12basic_stringIcNS_11char_traitsIcEENS_9allocatorIcEEEE9characterNS_4hashIS6_EENS_8equal_toIS6_EENS4_INS_4pairIKS6_S7_EEEEE5beginB8ne180100Ev, symObjAddr: 0x1C578, symBinAddr: 0x10001FEEC, symSize: 0x38 }
  - { offset: 0x4B246, size: 0x8, addend: 0x0, symName: __ZNKSt3__113unordered_mapINS_12basic_stringIcNS_11char_traitsIcEENS_9allocatorIcEEEE9characterNS_4hashIS6_EENS_8equal_toIS6_EENS4_INS_4pairIKS6_S7_EEEEE3endB8ne180100Ev, symObjAddr: 0x1C5B0, symBinAddr: 0x10001FF24, symSize: 0x38 }
  - { offset: 0x4B26C, size: 0x8, addend: 0x0, symName: __ZNSt3__112__hash_tableINS_17__hash_value_typeINS_12basic_stringIcNS_11char_traitsIcEENS_9allocatorIcEEEE9characterEENS_22__unordered_map_hasherIS7_S9_NS_4hashIS7_EENS_8equal_toIS7_EELb1EEENS_21__unordered_map_equalIS7_S9_SE_SC_Lb1EEENS5_IS9_EEED1Ev, symObjAddr: 0x1C5E8, symBinAddr: 0x10001FF5C, symSize: 0x2C }
  - { offset: 0x4B298, size: 0x8, addend: 0x0, symName: __ZNSt3__112__hash_tableINS_17__hash_value_typeINS_12basic_stringIcNS_11char_traitsIcEENS_9allocatorIcEEEE9characterEENS_22__unordered_map_hasherIS7_S9_NS_4hashIS7_EENS_8equal_toIS7_EELb1EEENS_21__unordered_map_equalIS7_S9_SE_SC_Lb1EEENS5_IS9_EEEC2ERKSJ_, symObjAddr: 0x1C614, symBinAddr: 0x10001FF88, symSize: 0xEC }
  - { offset: 0x4B2D4, size: 0x8, addend: 0x0, symName: __ZNSt3__116allocator_traitsINS_9allocatorIPNS_16__hash_node_baseIPNS_11__hash_nodeINS_17__hash_value_typeINS_12basic_stringIcNS_11char_traitsIcEENS1_IcEEEE9characterEEPvEEEEEEE37select_on_container_copy_constructionB8ne180100ISH_vvEESH_RKSH_, symObjAddr: 0x1C700, symBinAddr: 0x100020074, symSize: 0x10 }
  - { offset: 0x4B304, size: 0x8, addend: 0x0, symName: __ZNKSt3__125__bucket_list_deallocatorINS_9allocatorIPNS_16__hash_node_baseIPNS_11__hash_nodeINS_17__hash_value_typeINS_12basic_stringIcNS_11char_traitsIcEENS1_IcEEEE9characterEEPvEEEEEEE7__allocB8ne180100Ev, symObjAddr: 0x1C710, symBinAddr: 0x100020084, symSize: 0x24 }
  - { offset: 0x4B32A, size: 0x8, addend: 0x0, symName: __ZNSt3__125__bucket_list_deallocatorINS_9allocatorIPNS_16__hash_node_baseIPNS_11__hash_nodeINS_17__hash_value_typeINS_12basic_stringIcNS_11char_traitsIcEENS1_IcEEEE9characterEEPvEEEEEEEC1B8ne180100ERKSH_m, symObjAddr: 0x1C734, symBinAddr: 0x1000200A8, symSize: 0x3C }
  - { offset: 0x4B374, size: 0x8, addend: 0x0, symName: __ZNSt3__110unique_ptrIA_PNS_16__hash_node_baseIPNS_11__hash_nodeINS_17__hash_value_typeINS_12basic_stringIcNS_11char_traitsIcEENS_9allocatorIcEEEE9characterEEPvEEEENS_25__bucket_list_deallocatorINS7_ISG_EEEEEC1B8ne180100ILb1EvEEDnNS_16__dependent_typeINS_27__unique_ptr_deleter_sfinaeISK_EEXT_EE20__good_rval_ref_typeE, symObjAddr: 0x1C770, symBinAddr: 0x1000200E4, symSize: 0x3C }
  - { offset: 0x4B3C5, size: 0x8, addend: 0x0, symName: __ZNSt3__116allocator_traitsINS_9allocatorINS_11__hash_nodeINS_17__hash_value_typeINS_12basic_stringIcNS_11char_traitsIcEENS1_IcEEEE9characterEEPvEEEEE37select_on_container_copy_constructionB8ne180100ISD_vvEESD_RKSD_, symObjAddr: 0x1C7AC, symBinAddr: 0x100020120, symSize: 0x10 }
  - { offset: 0x4B3F5, size: 0x8, addend: 0x0, symName: __ZNKSt3__112__hash_tableINS_17__hash_value_typeINS_12basic_stringIcNS_11char_traitsIcEENS_9allocatorIcEEEE9characterEENS_22__unordered_map_hasherIS7_S9_NS_4hashIS7_EENS_8equal_toIS7_EELb1EEENS_21__unordered_map_equalIS7_S9_SE_SC_Lb1EEENS5_IS9_EEE12__node_allocB8ne180100Ev, symObjAddr: 0x1C7BC, symBinAddr: 0x100020130, symSize: 0x28 }
  - { offset: 0x4B420, size: 0x8, addend: 0x0, symName: __ZNSt3__117__compressed_pairINS_16__hash_node_baseIPNS_11__hash_nodeINS_17__hash_value_typeINS_12basic_stringIcNS_11char_traitsIcEENS_9allocatorIcEEEE9characterEEPvEEEENS7_ISD_EEEC1B8ne180100INS_18__default_init_tagESG_EEOT_OT0_, symObjAddr: 0x1C7E4, symBinAddr: 0x100020158, symSize: 0x3C }
  - { offset: 0x4B478, size: 0x8, addend: 0x0, symName: __ZNSt3__117__compressed_pairImNS_22__unordered_map_hasherINS_12basic_stringIcNS_11char_traitsIcEENS_9allocatorIcEEEENS_17__hash_value_typeIS7_9characterEENS_4hashIS7_EENS_8equal_toIS7_EELb1EEEEC1B8ne180100IiRKSF_EEOT_OT0_, symObjAddr: 0x1C820, symBinAddr: 0x100020194, symSize: 0x3C }
  - { offset: 0x4B4D0, size: 0x8, addend: 0x0, symName: __ZNSt3__110unique_ptrIA_PNS_16__hash_node_baseIPNS_11__hash_nodeINS_17__hash_value_typeINS_12basic_stringIcNS_11char_traitsIcEENS_9allocatorIcEEEE9characterEEPvEEEENS_25__bucket_list_deallocatorINS7_ISG_EEEEED1B8ne180100Ev, symObjAddr: 0x1C85C, symBinAddr: 0x1000201D0, symSize: 0x2C }
  - { offset: 0x4B4FA, size: 0x8, addend: 0x0, symName: __ZNKSt3__117__compressed_pairImNS_9allocatorIPNS_16__hash_node_baseIPNS_11__hash_nodeINS_17__hash_value_typeINS_12basic_stringIcNS_11char_traitsIcEENS1_IcEEEE9characterEEPvEEEEEEE6secondB8ne180100Ev, symObjAddr: 0x1C888, symBinAddr: 0x1000201FC, symSize: 0x24 }
  - { offset: 0x4B520, size: 0x8, addend: 0x0, symName: __ZNKSt3__122__compressed_pair_elemINS_9allocatorIPNS_16__hash_node_baseIPNS_11__hash_nodeINS_17__hash_value_typeINS_12basic_stringIcNS_11char_traitsIcEENS1_IcEEEE9characterEEPvEEEEEELi1ELb1EE5__getB8ne180100Ev, symObjAddr: 0x1C8AC, symBinAddr: 0x100020220, symSize: 0x14 }
  - { offset: 0x4B546, size: 0x8, addend: 0x0, symName: __ZNSt3__125__bucket_list_deallocatorINS_9allocatorIPNS_16__hash_node_baseIPNS_11__hash_nodeINS_17__hash_value_typeINS_12basic_stringIcNS_11char_traitsIcEENS1_IcEEEE9characterEEPvEEEEEEEC2B8ne180100ERKSH_m, symObjAddr: 0x1C8C0, symBinAddr: 0x100020234, symSize: 0x44 }
  - { offset: 0x4B590, size: 0x8, addend: 0x0, symName: __ZNSt3__117__compressed_pairImNS_9allocatorIPNS_16__hash_node_baseIPNS_11__hash_nodeINS_17__hash_value_typeINS_12basic_stringIcNS_11char_traitsIcEENS1_IcEEEE9characterEEPvEEEEEEEC1B8ne180100IRmRKSH_EEOT_OT0_, symObjAddr: 0x1C904, symBinAddr: 0x100020278, symSize: 0x3C }
  - { offset: 0x4B5E8, size: 0x8, addend: 0x0, symName: __ZNSt3__117__compressed_pairImNS_9allocatorIPNS_16__hash_node_baseIPNS_11__hash_nodeINS_17__hash_value_typeINS_12basic_stringIcNS_11char_traitsIcEENS1_IcEEEE9characterEEPvEEEEEEEC2B8ne180100IRmRKSH_EEOT_OT0_, symObjAddr: 0x1C940, symBinAddr: 0x1000202B4, symSize: 0x44 }
  - { offset: 0x4B640, size: 0x8, addend: 0x0, symName: __ZNSt3__122__compressed_pair_elemINS_9allocatorIPNS_16__hash_node_baseIPNS_11__hash_nodeINS_17__hash_value_typeINS_12basic_stringIcNS_11char_traitsIcEENS1_IcEEEE9characterEEPvEEEEEELi1ELb1EEC2B8ne180100IRKSH_vEEOT_, symObjAddr: 0x1C984, symBinAddr: 0x1000202F8, symSize: 0x18 }
  - { offset: 0x4B682, size: 0x8, addend: 0x0, symName: __ZNSt3__110unique_ptrIA_PNS_16__hash_node_baseIPNS_11__hash_nodeINS_17__hash_value_typeINS_12basic_stringIcNS_11char_traitsIcEENS_9allocatorIcEEEE9characterEEPvEEEENS_25__bucket_list_deallocatorINS7_ISG_EEEEEC2B8ne180100ILb1EvEEDnNS_16__dependent_typeINS_27__unique_ptr_deleter_sfinaeISK_EEXT_EE20__good_rval_ref_typeE, symObjAddr: 0x1C99C, symBinAddr: 0x100020310, symSize: 0x48 }
  - { offset: 0x4B6D3, size: 0x8, addend: 0x0, symName: __ZNSt3__117__compressed_pairIPPNS_16__hash_node_baseIPNS_11__hash_nodeINS_17__hash_value_typeINS_12basic_stringIcNS_11char_traitsIcEENS_9allocatorIcEEEE9characterEEPvEEEENS_25__bucket_list_deallocatorINS7_ISG_EEEEEC1B8ne180100IDnSK_EEOT_OT0_, symObjAddr: 0x1C9E4, symBinAddr: 0x100020358, symSize: 0x3C }
  - { offset: 0x4B72B, size: 0x8, addend: 0x0, symName: __ZNSt3__117__compressed_pairIPPNS_16__hash_node_baseIPNS_11__hash_nodeINS_17__hash_value_typeINS_12basic_stringIcNS_11char_traitsIcEENS_9allocatorIcEEEE9characterEEPvEEEENS_25__bucket_list_deallocatorINS7_ISG_EEEEEC2B8ne180100IDnSK_EEOT_OT0_, symObjAddr: 0x1CA20, symBinAddr: 0x100020394, symSize: 0x48 }
  - { offset: 0x4B783, size: 0x8, addend: 0x0, symName: __ZNSt3__122__compressed_pair_elemIPPNS_16__hash_node_baseIPNS_11__hash_nodeINS_17__hash_value_typeINS_12basic_stringIcNS_11char_traitsIcEENS_9allocatorIcEEEE9characterEEPvEEEELi0ELb0EEC2B8ne180100IDnvEEOT_, symObjAddr: 0x1CA68, symBinAddr: 0x1000203DC, symSize: 0x1C }
  - { offset: 0x4B7C5, size: 0x8, addend: 0x0, symName: __ZNSt3__122__compressed_pair_elemINS_25__bucket_list_deallocatorINS_9allocatorIPNS_16__hash_node_baseIPNS_11__hash_nodeINS_17__hash_value_typeINS_12basic_stringIcNS_11char_traitsIcEENS2_IcEEEE9characterEEPvEEEEEEEELi1ELb0EEC2B8ne180100ISJ_vEEOT_, symObjAddr: 0x1CA84, symBinAddr: 0x1000203F8, symSize: 0x34 }
  - { offset: 0x4B807, size: 0x8, addend: 0x0, symName: __ZNSt3__125__bucket_list_deallocatorINS_9allocatorIPNS_16__hash_node_baseIPNS_11__hash_nodeINS_17__hash_value_typeINS_12basic_stringIcNS_11char_traitsIcEENS1_IcEEEE9characterEEPvEEEEEEEC1B8ne180100EOSI_, symObjAddr: 0x1CAB8, symBinAddr: 0x10002042C, symSize: 0x34 }
  - { offset: 0x4B841, size: 0x8, addend: 0x0, symName: __ZNSt3__125__bucket_list_deallocatorINS_9allocatorIPNS_16__hash_node_baseIPNS_11__hash_nodeINS_17__hash_value_typeINS_12basic_stringIcNS_11char_traitsIcEENS1_IcEEEE9characterEEPvEEEEEEEC2B8ne180100EOSI_, symObjAddr: 0x1CAEC, symBinAddr: 0x100020460, symSize: 0x48 }
  - { offset: 0x4B87B, size: 0x8, addend: 0x0, symName: __ZNKSt3__117__compressed_pairINS_16__hash_node_baseIPNS_11__hash_nodeINS_17__hash_value_typeINS_12basic_stringIcNS_11char_traitsIcEENS_9allocatorIcEEEE9characterEEPvEEEENS7_ISD_EEE6secondB8ne180100Ev, symObjAddr: 0x1CB34, symBinAddr: 0x1000204A8, symSize: 0x24 }
  - { offset: 0x4B8A1, size: 0x8, addend: 0x0, symName: __ZNKSt3__122__compressed_pair_elemINS_9allocatorINS_11__hash_nodeINS_17__hash_value_typeINS_12basic_stringIcNS_11char_traitsIcEENS1_IcEEEE9characterEEPvEEEELi1ELb1EE5__getB8ne180100Ev, symObjAddr: 0x1CB58, symBinAddr: 0x1000204CC, symSize: 0x14 }
  - { offset: 0x4B8C7, size: 0x8, addend: 0x0, symName: __ZNSt3__117__compressed_pairINS_16__hash_node_baseIPNS_11__hash_nodeINS_17__hash_value_typeINS_12basic_stringIcNS_11char_traitsIcEENS_9allocatorIcEEEE9characterEEPvEEEENS7_ISD_EEEC2B8ne180100INS_18__default_init_tagESG_EEOT_OT0_, symObjAddr: 0x1CB6C, symBinAddr: 0x1000204E0, symSize: 0x40 }
  - { offset: 0x4B91F, size: 0x8, addend: 0x0, symName: __ZNSt3__122__compressed_pair_elemINS_16__hash_node_baseIPNS_11__hash_nodeINS_17__hash_value_typeINS_12basic_stringIcNS_11char_traitsIcEENS_9allocatorIcEEEE9characterEEPvEEEELi0ELb0EEC2B8ne180100ENS_18__default_init_tagE, symObjAddr: 0x1CBAC, symBinAddr: 0x100020520, symSize: 0x2C }
  - { offset: 0x4B954, size: 0x8, addend: 0x0, symName: __ZNSt3__122__compressed_pair_elemINS_9allocatorINS_11__hash_nodeINS_17__hash_value_typeINS_12basic_stringIcNS_11char_traitsIcEENS1_IcEEEE9characterEEPvEEEELi1ELb1EEC2B8ne180100ISD_vEEOT_, symObjAddr: 0x1CBD8, symBinAddr: 0x10002054C, symSize: 0x18 }
  - { offset: 0x4B996, size: 0x8, addend: 0x0, symName: __ZNSt3__116__hash_node_baseIPNS_11__hash_nodeINS_17__hash_value_typeINS_12basic_stringIcNS_11char_traitsIcEENS_9allocatorIcEEEE9characterEEPvEEEC1B8ne180100Ev, symObjAddr: 0x1CBF0, symBinAddr: 0x100020564, symSize: 0x2C }
  - { offset: 0x4B9C0, size: 0x8, addend: 0x0, symName: __ZNSt3__116__hash_node_baseIPNS_11__hash_nodeINS_17__hash_value_typeINS_12basic_stringIcNS_11char_traitsIcEENS_9allocatorIcEEEE9characterEEPvEEEC2B8ne180100Ev, symObjAddr: 0x1CC1C, symBinAddr: 0x100020590, symSize: 0x18 }
  - { offset: 0x4B9EA, size: 0x8, addend: 0x0, symName: __ZNSt3__117__compressed_pairImNS_22__unordered_map_hasherINS_12basic_stringIcNS_11char_traitsIcEENS_9allocatorIcEEEENS_17__hash_value_typeIS7_9characterEENS_4hashIS7_EENS_8equal_toIS7_EELb1EEEEC2B8ne180100IiRKSF_EEOT_OT0_, symObjAddr: 0x1CC34, symBinAddr: 0x1000205A8, symSize: 0x44 }
  - { offset: 0x4BA42, size: 0x8, addend: 0x0, symName: __ZNSt3__122__compressed_pair_elemINS_22__unordered_map_hasherINS_12basic_stringIcNS_11char_traitsIcEENS_9allocatorIcEEEENS_17__hash_value_typeIS7_9characterEENS_4hashIS7_EENS_8equal_toIS7_EELb1EEELi1ELb1EEC2B8ne180100IRKSF_vEEOT_, symObjAddr: 0x1CC78, symBinAddr: 0x1000205EC, symSize: 0x18 }
  - { offset: 0x4BA84, size: 0x8, addend: 0x0, symName: __ZNSt3__110unique_ptrIA_PNS_16__hash_node_baseIPNS_11__hash_nodeINS_17__hash_value_typeINS_12basic_stringIcNS_11char_traitsIcEENS_9allocatorIcEEEE9characterEEPvEEEENS_25__bucket_list_deallocatorINS7_ISG_EEEEED2B8ne180100Ev, symObjAddr: 0x1CC90, symBinAddr: 0x100020604, symSize: 0x30 }
  - { offset: 0x4BAAE, size: 0x8, addend: 0x0, symName: __ZNSt3__110unique_ptrIA_PNS_16__hash_node_baseIPNS_11__hash_nodeINS_17__hash_value_typeINS_12basic_stringIcNS_11char_traitsIcEENS_9allocatorIcEEEE9characterEEPvEEEENS_25__bucket_list_deallocatorINS7_ISG_EEEEE5resetB8ne180100EDn, symObjAddr: 0x1CCC0, symBinAddr: 0x100020634, symSize: 0x6C }
  - { offset: 0x4BAF0, size: 0x8, addend: 0x0, symName: __ZNSt3__112__hash_tableINS_17__hash_value_typeINS_12basic_stringIcNS_11char_traitsIcEENS_9allocatorIcEEEE9characterEENS_22__unordered_map_hasherIS7_S9_NS_4hashIS7_EENS_8equal_toIS7_EELb1EEENS_21__unordered_map_equalIS7_S9_SE_SC_Lb1EEENS5_IS9_EEE8__rehashILb1EEEvm, symObjAddr: 0x1CD2C, symBinAddr: 0x1000206A0, symSize: 0x1A8 }
  - { offset: 0x4BB42, size: 0x8, addend: 0x0, symName: __ZNSt3__112__hash_tableINS_17__hash_value_typeINS_12basic_stringIcNS_11char_traitsIcEENS_9allocatorIcEEEE9characterEENS_22__unordered_map_hasherIS7_S9_NS_4hashIS7_EENS_8equal_toIS7_EELb1EEENS_21__unordered_map_equalIS7_S9_SE_SC_Lb1EEENS5_IS9_EEE11__do_rehashILb1EEEvm, symObjAddr: 0x1CED4, symBinAddr: 0x100020848, symSize: 0x288 }
  - { offset: 0x4BC31, size: 0x8, addend: 0x0, symName: __ZNSt3__112__hash_tableINS_17__hash_value_typeINS_12basic_stringIcNS_11char_traitsIcEENS_9allocatorIcEEEE9characterEENS_22__unordered_map_hasherIS7_S9_NS_4hashIS7_EENS_8equal_toIS7_EELb1EEENS_21__unordered_map_equalIS7_S9_SE_SC_Lb1EEENS5_IS9_EEE15__insert_uniqueB8ne180100ERKNS_4pairIKS7_S8_EE, symObjAddr: 0x1D18C, symBinAddr: 0x100020B00, symSize: 0x50 }
  - { offset: 0x4BC67, size: 0x8, addend: 0x0, symName: __ZNKSt3__125__hash_map_const_iteratorINS_21__hash_const_iteratorIPNS_11__hash_nodeINS_17__hash_value_typeINS_12basic_stringIcNS_11char_traitsIcEENS_9allocatorIcEEEE9characterEEPvEEEEEdeB8ne180100Ev, symObjAddr: 0x1D1DC, symBinAddr: 0x100020B50, symSize: 0x28 }
  - { offset: 0x4BC8D, size: 0x8, addend: 0x0, symName: __ZNSt3__125__hash_map_const_iteratorINS_21__hash_const_iteratorIPNS_11__hash_nodeINS_17__hash_value_typeINS_12basic_stringIcNS_11char_traitsIcEENS_9allocatorIcEEEE9characterEEPvEEEEEppB8ne180100Ev, symObjAddr: 0x1D204, symBinAddr: 0x100020B78, symSize: 0x2C }
  - { offset: 0x4BCB3, size: 0x8, addend: 0x0, symName: __ZNSt3__112__hash_tableINS_17__hash_value_typeINS_12basic_stringIcNS_11char_traitsIcEENS_9allocatorIcEEEE9characterEENS_22__unordered_map_hasherIS7_S9_NS_4hashIS7_EENS_8equal_toIS7_EELb1EEENS_21__unordered_map_equalIS7_S9_SE_SC_Lb1EEENS5_IS9_EEE25__emplace_unique_key_argsIS7_JRKNS_4pairIKS7_S8_EEEEENSL_INS_15__hash_iteratorIPNS_11__hash_nodeIS9_PvEEEEbEERKT_DpOT0_, symObjAddr: 0x1D230, symBinAddr: 0x100020BA4, symSize: 0x4A0 }
  - { offset: 0x4BD9D, size: 0x8, addend: 0x0, symName: __ZNSt3__122__hash_key_value_typesINS_17__hash_value_typeINS_12basic_stringIcNS_11char_traitsIcEENS_9allocatorIcEEEE9characterEEE9__get_keyB8ne180100ERKNS_4pairIKS7_S8_EE, symObjAddr: 0x1D6D0, symBinAddr: 0x100021044, symSize: 0x14 }
  - { offset: 0x4BDC0, size: 0x8, addend: 0x0, symName: __ZNKSt3__122__unordered_map_hasherINS_12basic_stringIcNS_11char_traitsIcEENS_9allocatorIcEEEENS_17__hash_value_typeIS6_9characterEENS_4hashIS6_EENS_8equal_toIS6_EELb1EEclB8ne180100ERKS6_, symObjAddr: 0x1D6E4, symBinAddr: 0x100021058, symSize: 0x2C }
  - { offset: 0x4BDF6, size: 0x8, addend: 0x0, symName: __ZNKSt3__121__unordered_map_equalINS_12basic_stringIcNS_11char_traitsIcEENS_9allocatorIcEEEENS_17__hash_value_typeIS6_9characterEENS_8equal_toIS6_EENS_4hashIS6_EELb1EEclB8ne180100ERKS9_RKS6_, symObjAddr: 0x1D710, symBinAddr: 0x100021084, symSize: 0x48 }
  - { offset: 0x4BE3C, size: 0x8, addend: 0x0, symName: __ZNSt3__112__hash_tableINS_17__hash_value_typeINS_12basic_stringIcNS_11char_traitsIcEENS_9allocatorIcEEEE9characterEENS_22__unordered_map_hasherIS7_S9_NS_4hashIS7_EENS_8equal_toIS7_EELb1EEENS_21__unordered_map_equalIS7_S9_SE_SC_Lb1EEENS5_IS9_EEE21__construct_node_hashIRKNS_4pairIKS7_S8_EEJEEENS_10unique_ptrINS_11__hash_nodeIS9_PvEENS_22__hash_node_destructorINS5_IST_EEEEEEmOT_DpOT0_, symObjAddr: 0x1D758, symBinAddr: 0x1000210CC, symSize: 0x130 }
  - { offset: 0x4BEB8, size: 0x8, addend: 0x0, symName: __ZNSt3__14pairINS_15__hash_iteratorIPNS_11__hash_nodeINS_17__hash_value_typeINS_12basic_stringIcNS_11char_traitsIcEENS_9allocatorIcEEEE9characterEEPvEEEEbEC1B8ne180100ISF_RbLi0EEEOT_OT0_, symObjAddr: 0x1D888, symBinAddr: 0x1000211FC, symSize: 0x3C }
  - { offset: 0x4BF16, size: 0x8, addend: 0x0, symName: __ZNSt3__14pairINS_15__hash_iteratorIPNS_11__hash_nodeINS_17__hash_value_typeINS_12basic_stringIcNS_11char_traitsIcEENS_9allocatorIcEEEE9characterEEPvEEEEbEC2B8ne180100ISF_RbLi0EEEOT_OT0_, symObjAddr: 0x1D904, symBinAddr: 0x100021278, symSize: 0x38 }
  - { offset: 0x4BF74, size: 0x8, addend: 0x0, symName: __ZNKSt3__121__hash_const_iteratorIPNS_11__hash_nodeINS_17__hash_value_typeINS_12basic_stringIcNS_11char_traitsIcEENS_9allocatorIcEEEE9characterEEPvEEEptB8ne180100Ev, symObjAddr: 0x1D93C, symBinAddr: 0x1000212B0, symSize: 0x30 }
  - { offset: 0x4BF9A, size: 0x8, addend: 0x0, symName: __ZNSt3__114pointer_traitsIPKNS_17__hash_value_typeINS_12basic_stringIcNS_11char_traitsIcEENS_9allocatorIcEEEE9characterEEE10pointer_toB8ne180100ERSA_, symObjAddr: 0x1D96C, symBinAddr: 0x1000212E0, symSize: 0x14 }
  - { offset: 0x4BFBD, size: 0x8, addend: 0x0, symName: __ZNSt3__125__hash_map_const_iteratorINS_21__hash_const_iteratorIPNS_11__hash_nodeINS_17__hash_value_typeINS_12basic_stringIcNS_11char_traitsIcEENS_9allocatorIcEEEE9characterEEPvEEEEEC1B8ne180100ESF_, symObjAddr: 0x1D980, symBinAddr: 0x1000212F4, symSize: 0x34 }
  - { offset: 0x4BFF7, size: 0x8, addend: 0x0, symName: __ZNSt3__125__hash_map_const_iteratorINS_21__hash_const_iteratorIPNS_11__hash_nodeINS_17__hash_value_typeINS_12basic_stringIcNS_11char_traitsIcEENS_9allocatorIcEEEE9characterEEPvEEEEEC2B8ne180100ESF_, symObjAddr: 0x1D9B4, symBinAddr: 0x100021328, symSize: 0x20 }
  - { offset: 0x4C031, size: 0x8, addend: 0x0, symName: __ZNSt3__112__hash_tableINS_17__hash_value_typeINS_12basic_stringIcNS_11char_traitsIcEENS_9allocatorIcEEEE9characterEENS_22__unordered_map_hasherIS7_S9_NS_4hashIS7_EENS_8equal_toIS7_EELb1EEENS_21__unordered_map_equalIS7_S9_SE_SC_Lb1EEENS5_IS9_EEED2Ev, symObjAddr: 0x1D9D4, symBinAddr: 0x100021348, symSize: 0x48 }
  - { offset: 0x4C05D, size: 0x8, addend: 0x0, symName: __ZNSt3__117__compressed_pairIPNS_11__hash_nodeINS_17__hash_value_typeINS_12basic_stringIcNS_11char_traitsIcEENS_9allocatorIcEEEE9characterEEPvEENS_22__hash_node_destructorINS6_ISC_EEEEE6secondB8ne180100Ev, symObjAddr: 0x1DA1C, symBinAddr: 0x100021390, symSize: 0x28 }
  - { offset: 0x4C083, size: 0x8, addend: 0x0, symName: __ZNSt3__122__compressed_pair_elemINS_22__hash_node_destructorINS_9allocatorINS_11__hash_nodeINS_17__hash_value_typeINS_12basic_stringIcNS_11char_traitsIcEENS2_IcEEEE9characterEEPvEEEEEELi1ELb0EE5__getB8ne180100Ev, symObjAddr: 0x1DA44, symBinAddr: 0x1000213B8, symSize: 0x14 }
  - { offset: 0x4C0A9, size: 0x8, addend: 0x0, symName: __ZNSt3__117__compressed_pairIPNS_11__hash_nodeINS_17__hash_value_typeINS_12basic_stringIcNS_11char_traitsIcEENS_9allocatorIcEEEE9characterEEPvEENS_22__hash_node_destructorINS6_ISC_EEEEE5firstB8ne180100Ev, symObjAddr: 0x1DA58, symBinAddr: 0x1000213CC, symSize: 0x24 }
  - { offset: 0x4C0CF, size: 0x8, addend: 0x0, symName: __ZNSt3__122__compressed_pair_elemIPNS_11__hash_nodeINS_17__hash_value_typeINS_12basic_stringIcNS_11char_traitsIcEENS_9allocatorIcEEEE9characterEEPvEELi0ELb0EE5__getB8ne180100Ev, symObjAddr: 0x1DA7C, symBinAddr: 0x1000213F0, symSize: 0x14 }
  - { offset: 0x4C0F5, size: 0x8, addend: 0x0, symName: __ZNSt3__110unique_ptrINS_11__hash_nodeINS_17__hash_value_typeINS_12basic_stringIcNS_11char_traitsIcEENS_9allocatorIcEEEE9characterEEPvEENS_22__hash_node_destructorINS6_ISC_EEEEED2B8ne180100Ev, symObjAddr: 0x1DA90, symBinAddr: 0x100021404, symSize: 0x30 }
  - { offset: 0x4C11F, size: 0x8, addend: 0x0, symName: __ZNSt3__110unique_ptrINS_11__hash_nodeINS_17__hash_value_typeINS_12basic_stringIcNS_11char_traitsIcEENS_9allocatorIcEEEE9characterEEPvEENS_22__hash_node_destructorINS6_ISC_EEEEE5resetB8ne180100EPSC_, symObjAddr: 0x1DAC0, symBinAddr: 0x100021434, symSize: 0x78 }
  - { offset: 0x4C165, size: 0x8, addend: 0x0, symName: __ZNSt3__122__hash_node_destructorINS_9allocatorINS_11__hash_nodeINS_17__hash_value_typeINS_12basic_stringIcNS_11char_traitsIcEENS1_IcEEEE9characterEEPvEEEEEclB8ne180100EPSC_, symObjAddr: 0x1DB38, symBinAddr: 0x1000214AC, symSize: 0x98 }
  - { offset: 0x4C19B, size: 0x8, addend: 0x0, symName: __ZNKSt3__117__compressed_pairINS_16__hash_node_baseIPNS_11__hash_nodeINS_17__hash_value_typeINS_12basic_stringIcNS_11char_traitsIcEENS_9allocatorIcEEEE9characterEEPvEEEENS7_ISD_EEE5firstB8ne180100Ev, symObjAddr: 0x1DBD0, symBinAddr: 0x100021544, symSize: 0x24 }
  - { offset: 0x4C1C1, size: 0x8, addend: 0x0, symName: __ZNSt3__121__hash_const_iteratorIPNS_11__hash_nodeINS_17__hash_value_typeINS_12basic_stringIcNS_11char_traitsIcEENS_9allocatorIcEEEE9characterEEPvEEEC1B8ne180100EPNS_16__hash_node_baseISD_EE, symObjAddr: 0x1DBF4, symBinAddr: 0x100021568, symSize: 0x34 }
  - { offset: 0x4C1FB, size: 0x8, addend: 0x0, symName: __ZNKSt3__122__compressed_pair_elemINS_16__hash_node_baseIPNS_11__hash_nodeINS_17__hash_value_typeINS_12basic_stringIcNS_11char_traitsIcEENS_9allocatorIcEEEE9characterEEPvEEEELi0ELb0EE5__getB8ne180100Ev, symObjAddr: 0x1DC28, symBinAddr: 0x10002159C, symSize: 0x14 }
  - { offset: 0x4C221, size: 0x8, addend: 0x0, symName: __ZNSt3__121__hash_const_iteratorIPNS_11__hash_nodeINS_17__hash_value_typeINS_12basic_stringIcNS_11char_traitsIcEENS_9allocatorIcEEEE9characterEEPvEEEC2B8ne180100EPNS_16__hash_node_baseISD_EE, symObjAddr: 0x1DC3C, symBinAddr: 0x1000215B0, symSize: 0x20 }
  - { offset: 0x4C25B, size: 0x8, addend: 0x0, symName: __ZN9characterD2Ev, symObjAddr: 0x1DC5C, symBinAddr: 0x1000215D0, symSize: 0x68 }
  - { offset: 0x4C287, size: 0x8, addend: 0x0, symName: __ZNSt3__113unordered_mapINS_12basic_stringIcNS_11char_traitsIcEENS_9allocatorIcEEEE9characterNS_4hashIS6_EENS_8equal_toIS6_EENS4_INS_4pairIKS6_S7_EEEEED1B8ne180100Ev, symObjAddr: 0x1DCC4, symBinAddr: 0x100021638, symSize: 0x2C }
  - { offset: 0x4C2B1, size: 0x8, addend: 0x0, symName: __ZNSt3__113unordered_mapINS_12basic_stringIcNS_11char_traitsIcEENS_9allocatorIcEEEE9characterNS_4hashIS6_EENS_8equal_toIS6_EENS4_INS_4pairIKS6_S7_EEEEED2B8ne180100Ev, symObjAddr: 0x1DCF0, symBinAddr: 0x100021664, symSize: 0x2C }
  - { offset: 0x4C2DB, size: 0x8, addend: 0x0, symName: __ZNSt3__111__wrap_iterIPKNS_12basic_stringIcNS_11char_traitsIcEENS_9allocatorIcEEEEEC2B8ne180100IPS6_Li0EEERKNS0_IT_EE, symObjAddr: 0x1DD1C, symBinAddr: 0x100021690, symSize: 0x3C }
  - { offset: 0x4C322, size: 0x8, addend: 0x0, symName: __ZNSt3__112basic_stringIcNS_11char_traitsIcEENS_9allocatorIcEEEC2B8ne180100Ev, symObjAddr: 0x1DD58, symBinAddr: 0x1000216CC, symSize: 0x48 }
  - { offset: 0x4C351, size: 0x8, addend: 0x0, symName: __ZNSt3__117__compressed_pairINS_12basic_stringIcNS_11char_traitsIcEENS_9allocatorIcEEE5__repES5_EC1B8ne180100INS_16__value_init_tagENS_18__default_init_tagEEEOT_OT0_, symObjAddr: 0x1DDA0, symBinAddr: 0x100021714, symSize: 0x3C }
  - { offset: 0x4C3A9, size: 0x8, addend: 0x0, symName: __ZNKSt3__112basic_stringIcNS_11char_traitsIcEENS_9allocatorIcEEE14__annotate_newB8ne180100Em, symObjAddr: 0x1DDDC, symBinAddr: 0x100021750, symSize: 0x14 }
  - { offset: 0x4C3DF, size: 0x8, addend: 0x0, symName: __ZNSt3__117__compressed_pairINS_12basic_stringIcNS_11char_traitsIcEENS_9allocatorIcEEE5__repES5_EC2B8ne180100INS_16__value_init_tagENS_18__default_init_tagEEEOT_OT0_, symObjAddr: 0x1DDF0, symBinAddr: 0x100021764, symSize: 0x3C }
  - { offset: 0x4C437, size: 0x8, addend: 0x0, symName: __ZNSt3__122__compressed_pair_elemINS_12basic_stringIcNS_11char_traitsIcEENS_9allocatorIcEEE5__repELi0ELb0EEC2B8ne180100ENS_16__value_init_tagE, symObjAddr: 0x1DE2C, symBinAddr: 0x1000217A0, symSize: 0x20 }
  - { offset: 0x4C46C, size: 0x8, addend: 0x0, symName: __ZNSt3__122__compressed_pair_elemINS_9allocatorIcEELi1ELb1EEC2B8ne180100ENS_18__default_init_tagE, symObjAddr: 0x1DE4C, symBinAddr: 0x1000217C0, symSize: 0x2C }
  - { offset: 0x4C4A1, size: 0x8, addend: 0x0, symName: __ZNSt3__19allocatorIcEC2B8ne180100Ev, symObjAddr: 0x1DE78, symBinAddr: 0x1000217EC, symSize: 0x2C }
  - { offset: 0x4C4CB, size: 0x8, addend: 0x0, symName: __ZNSt3__116__non_trivial_ifILb1ENS_9allocatorIcEEEC2B8ne180100Ev, symObjAddr: 0x1DEA4, symBinAddr: 0x100021818, symSize: 0x14 }
  - { offset: 0x4C4F5, size: 0x8, addend: 0x0, symName: __ZNSt3__16vectorINS_12basic_stringIcNS_11char_traitsIcEENS_9allocatorIcEEEENS4_IS6_EEEC2B8ne180100ESt16initializer_listIS6_E, symObjAddr: 0x1DEB8, symBinAddr: 0x10002182C, symSize: 0x120 }
  - { offset: 0x4C548, size: 0x8, addend: 0x0, symName: __ZNSt3__117__compressed_pairIPNS_12basic_stringIcNS_11char_traitsIcEENS_9allocatorIcEEEENS4_IS6_EEEC1B8ne180100IDnNS_18__default_init_tagEEEOT_OT0_, symObjAddr: 0x1DFD8, symBinAddr: 0x10002194C, symSize: 0x3C }
  - { offset: 0x4C5A0, size: 0x8, addend: 0x0, symName: __ZNKSt16initializer_listINSt3__112basic_stringIcNS0_11char_traitsIcEENS0_9allocatorIcEEEEE4sizeB8ne180100Ev, symObjAddr: 0x1E014, symBinAddr: 0x100021988, symSize: 0x18 }
  - { offset: 0x4C5C6, size: 0x8, addend: 0x0, symName: __ZNSt3__16vectorINS_12basic_stringIcNS_11char_traitsIcEENS_9allocatorIcEEEENS4_IS6_EEE18__construct_at_endIPKS6_SB_EEvT_T0_m, symObjAddr: 0x1E02C, symBinAddr: 0x1000219A0, symSize: 0x8C }
  - { offset: 0x4C640, size: 0x8, addend: 0x0, symName: __ZNKSt16initializer_listINSt3__112basic_stringIcNS0_11char_traitsIcEENS0_9allocatorIcEEEEE5beginB8ne180100Ev, symObjAddr: 0x1E0B8, symBinAddr: 0x100021A2C, symSize: 0x18 }
  - { offset: 0x4C666, size: 0x8, addend: 0x0, symName: __ZNKSt16initializer_listINSt3__112basic_stringIcNS0_11char_traitsIcEENS0_9allocatorIcEEEEE3endB8ne180100Ev, symObjAddr: 0x1E0D0, symBinAddr: 0x100021A44, symSize: 0x28 }
  - { offset: 0x4C68C, size: 0x8, addend: 0x0, symName: __ZNSt3__117__compressed_pairIPNS_12basic_stringIcNS_11char_traitsIcEENS_9allocatorIcEEEENS4_IS6_EEEC2B8ne180100IDnNS_18__default_init_tagEEEOT_OT0_, symObjAddr: 0x1E0F8, symBinAddr: 0x100021A6C, symSize: 0x40 }
  - { offset: 0x4C6E4, size: 0x8, addend: 0x0, symName: __ZNSt3__122__compressed_pair_elemINS_9allocatorINS_12basic_stringIcNS_11char_traitsIcEENS1_IcEEEEEELi1ELb1EEC2B8ne180100ENS_18__default_init_tagE, symObjAddr: 0x1E138, symBinAddr: 0x100021AAC, symSize: 0x2C }
  - { offset: 0x4C719, size: 0x8, addend: 0x0, symName: __ZNSt3__19allocatorINS_12basic_stringIcNS_11char_traitsIcEENS0_IcEEEEEC2B8ne180100Ev, symObjAddr: 0x1E164, symBinAddr: 0x100021AD8, symSize: 0x2C }
  - { offset: 0x4C743, size: 0x8, addend: 0x0, symName: __ZNSt3__116__non_trivial_ifILb1ENS_9allocatorINS_12basic_stringIcNS_11char_traitsIcEENS1_IcEEEEEEEC2B8ne180100Ev, symObjAddr: 0x1E190, symBinAddr: 0x100021B04, symSize: 0x14 }
  - { offset: 0x4C78B, size: 0x8, addend: 0x0, symName: __ZNSt3__14pairIPKNS_12basic_stringIcNS_11char_traitsIcEENS_9allocatorIcEEEES8_EC1B8ne180100IS8_S8_Li0EEEOT_OT0_, symObjAddr: 0x1E3D4, symBinAddr: 0x100021D48, symSize: 0x3C }
  - { offset: 0x4C7E9, size: 0x8, addend: 0x0, symName: __ZNSt3__14pairIPKNS_12basic_stringIcNS_11char_traitsIcEENS_9allocatorIcEEEES8_EC2B8ne180100IS8_S8_Li0EEEOT_OT0_, symObjAddr: 0x1E410, symBinAddr: 0x100021D84, symSize: 0x34 }
  - { offset: 0x4C847, size: 0x8, addend: 0x0, symName: __ZNSt3__118__unwrap_iter_implIPKNS_12basic_stringIcNS_11char_traitsIcEENS_9allocatorIcEEEELb1EE8__unwrapB8ne180100ES8_, symObjAddr: 0x1E444, symBinAddr: 0x100021DB8, symSize: 0x24 }
  - { offset: 0x4C86A, size: 0x8, addend: 0x0, symName: __ZNSt3__116allocator_traitsINS_9allocatorINS_12basic_stringIcNS_11char_traitsIcEENS1_IcEEEEEEE9constructB8ne180100IS6_JRKS6_EvEEvRS7_PT_DpOT0_, symObjAddr: 0x1E47C, symBinAddr: 0x100021DF0, symSize: 0x34 }
  - { offset: 0x4C8C4, size: 0x8, addend: 0x0, symName: __ZNSt3__19allocatorINS_12basic_stringIcNS_11char_traitsIcEENS0_IcEEEEE9constructB8ne180100IS5_JRKS5_EEEvPT_DpOT0_, symObjAddr: 0x1E4B0, symBinAddr: 0x100021E24, symSize: 0x30 }
  - { offset: 0x4C91A, size: 0x8, addend: 0x0, symName: __ZNSt3__112basic_stringIcNS_11char_traitsIcEENS_9allocatorIcEEEC2B8ne180100ILi0EEEPKc, symObjAddr: 0x1E4E0, symBinAddr: 0x100021E54, symSize: 0x58 }
  - { offset: 0x4C95A, size: 0x8, addend: 0x0, symName: __ZNSt3__117__compressed_pairINS_12basic_stringIcNS_11char_traitsIcEENS_9allocatorIcEEE5__repES5_EC1B8ne180100INS_18__default_init_tagESA_EEOT_OT0_, symObjAddr: 0x1E538, symBinAddr: 0x100021EAC, symSize: 0x3C }
  - { offset: 0x4C9B2, size: 0x8, addend: 0x0, symName: __ZNSt3__111char_traitsIcE6lengthB8ne180100EPKc, symObjAddr: 0x1E574, symBinAddr: 0x100021EE8, symSize: 0x34 }
  - { offset: 0x4C9D5, size: 0x8, addend: 0x0, symName: __ZNSt3__117__compressed_pairINS_12basic_stringIcNS_11char_traitsIcEENS_9allocatorIcEEE5__repES5_EC2B8ne180100INS_18__default_init_tagESA_EEOT_OT0_, symObjAddr: 0x1E5A8, symBinAddr: 0x100021F1C, symSize: 0x3C }
  - { offset: 0x4CA2D, size: 0x8, addend: 0x0, symName: __ZNSt3__122__compressed_pair_elemINS_12basic_stringIcNS_11char_traitsIcEENS_9allocatorIcEEE5__repELi0ELb0EEC2B8ne180100ENS_18__default_init_tagE, symObjAddr: 0x1E5E4, symBinAddr: 0x100021F58, symSize: 0x14 }
  - { offset: 0x4CA62, size: 0x8, addend: 0x0, symName: __ZNSt3__113unordered_mapINS_12basic_stringIcNS_11char_traitsIcEENS_9allocatorIcEEEES6_NS_4hashIS6_EENS_8equal_toIS6_EENS4_INS_4pairIKS6_S6_EEEEEC2B8ne180100Ev, symObjAddr: 0x1E61C, symBinAddr: 0x100021F90, symSize: 0x2C }
  - { offset: 0x4CA8C, size: 0x8, addend: 0x0, symName: __ZNSt3__112__hash_tableINS_17__hash_value_typeINS_12basic_stringIcNS_11char_traitsIcEENS_9allocatorIcEEEES7_EENS_22__unordered_map_hasherIS7_S8_NS_4hashIS7_EENS_8equal_toIS7_EELb1EEENS_21__unordered_map_equalIS7_S8_SD_SB_Lb1EEENS5_IS8_EEEC1Ev, symObjAddr: 0x1E648, symBinAddr: 0x100021FBC, symSize: 0x2C }
  - { offset: 0x4CAB8, size: 0x8, addend: 0x0, symName: __ZNSt3__112__hash_tableINS_17__hash_value_typeINS_12basic_stringIcNS_11char_traitsIcEENS_9allocatorIcEEEES7_EENS_22__unordered_map_hasherIS7_S8_NS_4hashIS7_EENS_8equal_toIS7_EELb1EEENS_21__unordered_map_equalIS7_S8_SD_SB_Lb1EEENS5_IS8_EEEC2Ev, symObjAddr: 0x1E674, symBinAddr: 0x100021FE8, symSize: 0x7C }
  - { offset: 0x4CAE4, size: 0x8, addend: 0x0, symName: __ZNSt3__110unique_ptrIA_PNS_16__hash_node_baseIPNS_11__hash_nodeINS_17__hash_value_typeINS_12basic_stringIcNS_11char_traitsIcEENS_9allocatorIcEEEES9_EEPvEEEENS_25__bucket_list_deallocatorINS7_ISF_EEEEEC1B8ne180100ILb1EvEEv, symObjAddr: 0x1E6F0, symBinAddr: 0x100022064, symSize: 0x2C }
  - { offset: 0x4CB19, size: 0x8, addend: 0x0, symName: __ZNSt3__117__compressed_pairINS_16__hash_node_baseIPNS_11__hash_nodeINS_17__hash_value_typeINS_12basic_stringIcNS_11char_traitsIcEENS_9allocatorIcEEEES9_EEPvEEEENS7_ISC_EEEC1B8ne180100ILb1EvEEv, symObjAddr: 0x1E71C, symBinAddr: 0x100022090, symSize: 0x2C }
  - { offset: 0x4CB4E, size: 0x8, addend: 0x0, symName: __ZNSt3__117__compressed_pairImNS_22__unordered_map_hasherINS_12basic_stringIcNS_11char_traitsIcEENS_9allocatorIcEEEENS_17__hash_value_typeIS7_S7_EENS_4hashIS7_EENS_8equal_toIS7_EELb1EEEEC1B8ne180100IiNS_18__default_init_tagEEEOT_OT0_, symObjAddr: 0x1E748, symBinAddr: 0x1000220BC, symSize: 0x3C }
  - { offset: 0x4CBAB, size: 0x8, addend: 0x0, symName: __ZNSt3__117__compressed_pairIfNS_21__unordered_map_equalINS_12basic_stringIcNS_11char_traitsIcEENS_9allocatorIcEEEENS_17__hash_value_typeIS7_S7_EENS_8equal_toIS7_EENS_4hashIS7_EELb1EEEEC1B8ne180100IfNS_18__default_init_tagEEEOT_OT0_, symObjAddr: 0x1E784, symBinAddr: 0x1000220F8, symSize: 0x3C }
  - { offset: 0x4CC03, size: 0x8, addend: 0x0, symName: __ZNSt3__110unique_ptrIA_PNS_16__hash_node_baseIPNS_11__hash_nodeINS_17__hash_value_typeINS_12basic_stringIcNS_11char_traitsIcEENS_9allocatorIcEEEES9_EEPvEEEENS_25__bucket_list_deallocatorINS7_ISF_EEEEEC2B8ne180100ILb1EvEEv, symObjAddr: 0x1E7C0, symBinAddr: 0x100022134, symSize: 0x3C }
  - { offset: 0x4CC38, size: 0x8, addend: 0x0, symName: __ZNSt3__117__compressed_pairIPPNS_16__hash_node_baseIPNS_11__hash_nodeINS_17__hash_value_typeINS_12basic_stringIcNS_11char_traitsIcEENS_9allocatorIcEEEES9_EEPvEEEENS_25__bucket_list_deallocatorINS7_ISF_EEEEEC1B8ne180100INS_16__value_init_tagESM_EEOT_OT0_, symObjAddr: 0x1E7FC, symBinAddr: 0x100022170, symSize: 0x3C }
  - { offset: 0x4CC90, size: 0x8, addend: 0x0, symName: __ZNSt3__117__compressed_pairIPPNS_16__hash_node_baseIPNS_11__hash_nodeINS_17__hash_value_typeINS_12basic_stringIcNS_11char_traitsIcEENS_9allocatorIcEEEES9_EEPvEEEENS_25__bucket_list_deallocatorINS7_ISF_EEEEEC2B8ne180100INS_16__value_init_tagESM_EEOT_OT0_, symObjAddr: 0x1E838, symBinAddr: 0x1000221AC, symSize: 0x40 }
  - { offset: 0x4CCE8, size: 0x8, addend: 0x0, symName: __ZNSt3__122__compressed_pair_elemIPPNS_16__hash_node_baseIPNS_11__hash_nodeINS_17__hash_value_typeINS_12basic_stringIcNS_11char_traitsIcEENS_9allocatorIcEEEES9_EEPvEEEELi0ELb0EEC2B8ne180100ENS_16__value_init_tagE, symObjAddr: 0x1E878, symBinAddr: 0x1000221EC, symSize: 0x18 }
  - { offset: 0x4CD1D, size: 0x8, addend: 0x0, symName: __ZNSt3__122__compressed_pair_elemINS_25__bucket_list_deallocatorINS_9allocatorIPNS_16__hash_node_baseIPNS_11__hash_nodeINS_17__hash_value_typeINS_12basic_stringIcNS_11char_traitsIcEENS2_IcEEEESA_EEPvEEEEEEEELi1ELb0EEC2B8ne180100ENS_16__value_init_tagE, symObjAddr: 0x1E890, symBinAddr: 0x100022204, symSize: 0x2C }
  - { offset: 0x4CD52, size: 0x8, addend: 0x0, symName: __ZNSt3__125__bucket_list_deallocatorINS_9allocatorIPNS_16__hash_node_baseIPNS_11__hash_nodeINS_17__hash_value_typeINS_12basic_stringIcNS_11char_traitsIcEENS1_IcEEEES9_EEPvEEEEEEEC1B8ne180100Ev, symObjAddr: 0x1E8BC, symBinAddr: 0x100022230, symSize: 0x2C }
  - { offset: 0x4CD7C, size: 0x8, addend: 0x0, symName: __ZNSt3__125__bucket_list_deallocatorINS_9allocatorIPNS_16__hash_node_baseIPNS_11__hash_nodeINS_17__hash_value_typeINS_12basic_stringIcNS_11char_traitsIcEENS1_IcEEEES9_EEPvEEEEEEEC2B8ne180100Ev, symObjAddr: 0x1E8E8, symBinAddr: 0x10002225C, symSize: 0x40 }
  - { offset: 0x4CDA6, size: 0x8, addend: 0x0, symName: __ZNSt3__117__compressed_pairImNS_9allocatorIPNS_16__hash_node_baseIPNS_11__hash_nodeINS_17__hash_value_typeINS_12basic_stringIcNS_11char_traitsIcEENS1_IcEEEES9_EEPvEEEEEEEC1B8ne180100IiNS_18__default_init_tagEEEOT_OT0_, symObjAddr: 0x1E928, symBinAddr: 0x10002229C, symSize: 0x3C }
  - { offset: 0x4CDFE, size: 0x8, addend: 0x0, symName: __ZNSt3__117__compressed_pairImNS_9allocatorIPNS_16__hash_node_baseIPNS_11__hash_nodeINS_17__hash_value_typeINS_12basic_stringIcNS_11char_traitsIcEENS1_IcEEEES9_EEPvEEEEEEEC2B8ne180100IiNS_18__default_init_tagEEEOT_OT0_, symObjAddr: 0x1E964, symBinAddr: 0x1000222D8, symSize: 0x40 }
  - { offset: 0x4CE56, size: 0x8, addend: 0x0, symName: __ZNSt3__122__compressed_pair_elemINS_9allocatorIPNS_16__hash_node_baseIPNS_11__hash_nodeINS_17__hash_value_typeINS_12basic_stringIcNS_11char_traitsIcEENS1_IcEEEES9_EEPvEEEEEELi1ELb1EEC2B8ne180100ENS_18__default_init_tagE, symObjAddr: 0x1E9A4, symBinAddr: 0x100022318, symSize: 0x2C }
  - { offset: 0x4CE8B, size: 0x8, addend: 0x0, symName: __ZNSt3__19allocatorIPNS_16__hash_node_baseIPNS_11__hash_nodeINS_17__hash_value_typeINS_12basic_stringIcNS_11char_traitsIcEENS0_IcEEEES8_EEPvEEEEEC2B8ne180100Ev, symObjAddr: 0x1E9D0, symBinAddr: 0x100022344, symSize: 0x2C }
  - { offset: 0x4CEB5, size: 0x8, addend: 0x0, symName: __ZNSt3__116__non_trivial_ifILb1ENS_9allocatorIPNS_16__hash_node_baseIPNS_11__hash_nodeINS_17__hash_value_typeINS_12basic_stringIcNS_11char_traitsIcEENS1_IcEEEES9_EEPvEEEEEEEC2B8ne180100Ev, symObjAddr: 0x1E9FC, symBinAddr: 0x100022370, symSize: 0x14 }
  - { offset: 0x4CEDF, size: 0x8, addend: 0x0, symName: __ZNSt3__117__compressed_pairINS_16__hash_node_baseIPNS_11__hash_nodeINS_17__hash_value_typeINS_12basic_stringIcNS_11char_traitsIcEENS_9allocatorIcEEEES9_EEPvEEEENS7_ISC_EEEC2B8ne180100ILb1EvEEv, symObjAddr: 0x1EA10, symBinAddr: 0x100022384, symSize: 0x34 }
  - { offset: 0x4CF14, size: 0x8, addend: 0x0, symName: __ZNSt3__122__compressed_pair_elemINS_16__hash_node_baseIPNS_11__hash_nodeINS_17__hash_value_typeINS_12basic_stringIcNS_11char_traitsIcEENS_9allocatorIcEEEES9_EEPvEEEELi0ELb0EEC2B8ne180100ENS_16__value_init_tagE, symObjAddr: 0x1EA44, symBinAddr: 0x1000223B8, symSize: 0x2C }
  - { offset: 0x4CF49, size: 0x8, addend: 0x0, symName: __ZNSt3__122__compressed_pair_elemINS_9allocatorINS_11__hash_nodeINS_17__hash_value_typeINS_12basic_stringIcNS_11char_traitsIcEENS1_IcEEEES8_EEPvEEEELi1ELb1EEC2B8ne180100ENS_16__value_init_tagE, symObjAddr: 0x1EA70, symBinAddr: 0x1000223E4, symSize: 0x2C }
  - { offset: 0x4CF7E, size: 0x8, addend: 0x0, symName: __ZNSt3__116__hash_node_baseIPNS_11__hash_nodeINS_17__hash_value_typeINS_12basic_stringIcNS_11char_traitsIcEENS_9allocatorIcEEEES8_EEPvEEEC1B8ne180100Ev, symObjAddr: 0x1EA9C, symBinAddr: 0x100022410, symSize: 0x2C }
  - { offset: 0x4CFA8, size: 0x8, addend: 0x0, symName: __ZNSt3__116__hash_node_baseIPNS_11__hash_nodeINS_17__hash_value_typeINS_12basic_stringIcNS_11char_traitsIcEENS_9allocatorIcEEEES8_EEPvEEEC2B8ne180100Ev, symObjAddr: 0x1EAC8, symBinAddr: 0x10002243C, symSize: 0x18 }
  - { offset: 0x4CFD2, size: 0x8, addend: 0x0, symName: __ZNSt3__19allocatorINS_11__hash_nodeINS_17__hash_value_typeINS_12basic_stringIcNS_11char_traitsIcEENS0_IcEEEES7_EEPvEEEC2B8ne180100Ev, symObjAddr: 0x1EAE0, symBinAddr: 0x100022454, symSize: 0x2C }
  - { offset: 0x4CFFC, size: 0x8, addend: 0x0, symName: __ZNSt3__116__non_trivial_ifILb1ENS_9allocatorINS_11__hash_nodeINS_17__hash_value_typeINS_12basic_stringIcNS_11char_traitsIcEENS1_IcEEEES8_EEPvEEEEEC2B8ne180100Ev, symObjAddr: 0x1EB0C, symBinAddr: 0x100022480, symSize: 0x14 }
  - { offset: 0x4D026, size: 0x8, addend: 0x0, symName: __ZNSt3__117__compressed_pairImNS_22__unordered_map_hasherINS_12basic_stringIcNS_11char_traitsIcEENS_9allocatorIcEEEENS_17__hash_value_typeIS7_S7_EENS_4hashIS7_EENS_8equal_toIS7_EELb1EEEEC2B8ne180100IiNS_18__default_init_tagEEEOT_OT0_, symObjAddr: 0x1EB20, symBinAddr: 0x100022494, symSize: 0x40 }
  - { offset: 0x4D07E, size: 0x8, addend: 0x0, symName: __ZNSt3__122__compressed_pair_elemINS_22__unordered_map_hasherINS_12basic_stringIcNS_11char_traitsIcEENS_9allocatorIcEEEENS_17__hash_value_typeIS7_S7_EENS_4hashIS7_EENS_8equal_toIS7_EELb1EEELi1ELb1EEC2B8ne180100ENS_18__default_init_tagE, symObjAddr: 0x1EB60, symBinAddr: 0x1000224D4, symSize: 0x2C }
  - { offset: 0x4D0B3, size: 0x8, addend: 0x0, symName: __ZNSt3__122__unordered_map_hasherINS_12basic_stringIcNS_11char_traitsIcEENS_9allocatorIcEEEENS_17__hash_value_typeIS6_S6_EENS_4hashIS6_EENS_8equal_toIS6_EELb1EEC2B8ne180100Ev, symObjAddr: 0x1EB8C, symBinAddr: 0x100022500, symSize: 0x14 }
  - { offset: 0x4D0DD, size: 0x8, addend: 0x0, symName: __ZNSt3__117__compressed_pairIfNS_21__unordered_map_equalINS_12basic_stringIcNS_11char_traitsIcEENS_9allocatorIcEEEENS_17__hash_value_typeIS7_S7_EENS_8equal_toIS7_EENS_4hashIS7_EELb1EEEEC2B8ne180100IfNS_18__default_init_tagEEEOT_OT0_, symObjAddr: 0x1EBA0, symBinAddr: 0x100022514, symSize: 0x40 }
  - { offset: 0x4D135, size: 0x8, addend: 0x0, symName: __ZNSt3__122__compressed_pair_elemIfLi0ELb0EEC2B8ne180100IfvEEOT_, symObjAddr: 0x1EBE0, symBinAddr: 0x100022554, symSize: 0x24 }
  - { offset: 0x4D177, size: 0x8, addend: 0x0, symName: __ZNSt3__122__compressed_pair_elemINS_21__unordered_map_equalINS_12basic_stringIcNS_11char_traitsIcEENS_9allocatorIcEEEENS_17__hash_value_typeIS7_S7_EENS_8equal_toIS7_EENS_4hashIS7_EELb1EEELi1ELb1EEC2B8ne180100ENS_18__default_init_tagE, symObjAddr: 0x1EC04, symBinAddr: 0x100022578, symSize: 0x2C }
  - { offset: 0x4D1AC, size: 0x8, addend: 0x0, symName: __ZNSt3__121__unordered_map_equalINS_12basic_stringIcNS_11char_traitsIcEENS_9allocatorIcEEEENS_17__hash_value_typeIS6_S6_EENS_8equal_toIS6_EENS_4hashIS6_EELb1EEC2B8ne180100Ev, symObjAddr: 0x1EC30, symBinAddr: 0x1000225A4, symSize: 0x14 }
  - { offset: 0x4D1D6, size: 0x8, addend: 0x0, symName: __ZNSt3__16vectorINS_12basic_stringIcNS_11char_traitsIcEENS_9allocatorIcEEEENS4_IS6_EEED2B8ne180100Ev, symObjAddr: 0x1EC44, symBinAddr: 0x1000225B8, symSize: 0x40 }
  - { offset: 0x4D200, size: 0x8, addend: 0x0, symName: __ZNSt3__113unordered_mapINS_12basic_stringIcNS_11char_traitsIcEENS_9allocatorIcEEEES6_NS_4hashIS6_EENS_8equal_toIS6_EENS4_INS_4pairIKS6_S6_EEEEED2B8ne180100Ev, symObjAddr: 0x1EC84, symBinAddr: 0x1000225F8, symSize: 0x2C }
  - { offset: 0x4D22A, size: 0x8, addend: 0x0, symName: __ZNSt3__112__hash_tableINS_17__hash_value_typeINS_12basic_stringIcNS_11char_traitsIcEENS_9allocatorIcEEEES7_EENS_22__unordered_map_hasherIS7_S8_NS_4hashIS7_EENS_8equal_toIS7_EELb1EEENS_21__unordered_map_equalIS7_S8_SD_SB_Lb1EEENS5_IS8_EEED1Ev, symObjAddr: 0x1ECB0, symBinAddr: 0x100022624, symSize: 0x2C }
  - { offset: 0x4D256, size: 0x8, addend: 0x0, symName: __ZNSt3__112__hash_tableINS_17__hash_value_typeINS_12basic_stringIcNS_11char_traitsIcEENS_9allocatorIcEEEES7_EENS_22__unordered_map_hasherIS7_S8_NS_4hashIS7_EENS_8equal_toIS7_EELb1EEENS_21__unordered_map_equalIS7_S8_SD_SB_Lb1EEENS5_IS8_EEED2Ev, symObjAddr: 0x1ECDC, symBinAddr: 0x100022650, symSize: 0x48 }
  - { offset: 0x4D282, size: 0x8, addend: 0x0, symName: __ZNSt3__112__hash_tableINS_17__hash_value_typeINS_12basic_stringIcNS_11char_traitsIcEENS_9allocatorIcEEEES7_EENS_22__unordered_map_hasherIS7_S8_NS_4hashIS7_EENS_8equal_toIS7_EELb1EEENS_21__unordered_map_equalIS7_S8_SD_SB_Lb1EEENS5_IS8_EEE17__deallocate_nodeEPNS_16__hash_node_baseIPNS_11__hash_nodeIS8_PvEEEE, symObjAddr: 0x1ED24, symBinAddr: 0x100022698, symSize: 0xC0 }
  - { offset: 0x4D2F1, size: 0x8, addend: 0x0, symName: __ZNSt3__117__compressed_pairINS_16__hash_node_baseIPNS_11__hash_nodeINS_17__hash_value_typeINS_12basic_stringIcNS_11char_traitsIcEENS_9allocatorIcEEEES9_EEPvEEEENS7_ISC_EEE5firstB8ne180100Ev, symObjAddr: 0x1EDE4, symBinAddr: 0x100022758, symSize: 0x24 }
  - { offset: 0x4D317, size: 0x8, addend: 0x0, symName: __ZNSt3__110unique_ptrIA_PNS_16__hash_node_baseIPNS_11__hash_nodeINS_17__hash_value_typeINS_12basic_stringIcNS_11char_traitsIcEENS_9allocatorIcEEEES9_EEPvEEEENS_25__bucket_list_deallocatorINS7_ISF_EEEEED1B8ne180100Ev, symObjAddr: 0x1EE08, symBinAddr: 0x10002277C, symSize: 0x2C }
  - { offset: 0x4D341, size: 0x8, addend: 0x0, symName: __ZNSt3__112__hash_tableINS_17__hash_value_typeINS_12basic_stringIcNS_11char_traitsIcEENS_9allocatorIcEEEES7_EENS_22__unordered_map_hasherIS7_S8_NS_4hashIS7_EENS_8equal_toIS7_EELb1EEENS_21__unordered_map_equalIS7_S8_SD_SB_Lb1EEENS5_IS8_EEE12__node_allocB8ne180100Ev, symObjAddr: 0x1EE34, symBinAddr: 0x1000227A8, symSize: 0x28 }
  - { offset: 0x4D367, size: 0x8, addend: 0x0, symName: __ZNSt3__116__hash_node_baseIPNS_11__hash_nodeINS_17__hash_value_typeINS_12basic_stringIcNS_11char_traitsIcEENS_9allocatorIcEEEES8_EEPvEEE8__upcastB8ne180100Ev, symObjAddr: 0x1EE5C, symBinAddr: 0x1000227D0, symSize: 0x24 }
  - { offset: 0x4D38D, size: 0x8, addend: 0x0, symName: __ZNSt3__116allocator_traitsINS_9allocatorINS_11__hash_nodeINS_17__hash_value_typeINS_12basic_stringIcNS_11char_traitsIcEENS1_IcEEEES8_EEPvEEEEE7destroyB8ne180100INS_4pairIKS8_S8_EEvvEEvRSC_PT_, symObjAddr: 0x1EE80, symBinAddr: 0x1000227F4, symSize: 0x28 }
  - { offset: 0x4D3C9, size: 0x8, addend: 0x0, symName: __ZNSt3__122__hash_key_value_typesINS_17__hash_value_typeINS_12basic_stringIcNS_11char_traitsIcEENS_9allocatorIcEEEES7_EEE9__get_ptrB8ne180100ERS8_, symObjAddr: 0x1EEA8, symBinAddr: 0x10002281C, symSize: 0x24 }
  - { offset: 0x4D3EC, size: 0x8, addend: 0x0, symName: __ZNSt3__111__hash_nodeINS_17__hash_value_typeINS_12basic_stringIcNS_11char_traitsIcEENS_9allocatorIcEEEES7_EEPvE11__get_valueB8ne180100Ev, symObjAddr: 0x1EECC, symBinAddr: 0x100022840, symSize: 0x18 }
  - { offset: 0x4D412, size: 0x8, addend: 0x0, symName: __ZNSt3__116allocator_traitsINS_9allocatorINS_11__hash_nodeINS_17__hash_value_typeINS_12basic_stringIcNS_11char_traitsIcEENS1_IcEEEES8_EEPvEEEEE10deallocateB8ne180100ERSC_PSB_m, symObjAddr: 0x1EF08, symBinAddr: 0x10002287C, symSize: 0x34 }
  - { offset: 0x4D457, size: 0x8, addend: 0x0, symName: __ZNSt3__117__compressed_pairINS_16__hash_node_baseIPNS_11__hash_nodeINS_17__hash_value_typeINS_12basic_stringIcNS_11char_traitsIcEENS_9allocatorIcEEEES9_EEPvEEEENS7_ISC_EEE6secondB8ne180100Ev, symObjAddr: 0x1EF3C, symBinAddr: 0x1000228B0, symSize: 0x24 }
  - { offset: 0x4D47D, size: 0x8, addend: 0x0, symName: __ZNSt3__122__compressed_pair_elemINS_9allocatorINS_11__hash_nodeINS_17__hash_value_typeINS_12basic_stringIcNS_11char_traitsIcEENS1_IcEEEES8_EEPvEEEELi1ELb1EE5__getB8ne180100Ev, symObjAddr: 0x1EF60, symBinAddr: 0x1000228D4, symSize: 0x14 }
  - { offset: 0x4D4A3, size: 0x8, addend: 0x0, symName: __ZNSt3__114pointer_traitsIPNS_16__hash_node_baseIPNS_11__hash_nodeINS_17__hash_value_typeINS_12basic_stringIcNS_11char_traitsIcEENS_9allocatorIcEEEES9_EEPvEEEEE10pointer_toB8ne180100ERSE_, symObjAddr: 0x1EF74, symBinAddr: 0x1000228E8, symSize: 0x14 }
  - { offset: 0x4D4C6, size: 0x8, addend: 0x0, symName: __ZNSt3__117__hash_value_typeINS_12basic_stringIcNS_11char_traitsIcEENS_9allocatorIcEEEES6_E11__get_valueB8ne180100Ev, symObjAddr: 0x1EF88, symBinAddr: 0x1000228FC, symSize: 0x24 }
  - { offset: 0x4D4EC, size: 0x8, addend: 0x0, symName: __ZNSt3__111__hash_nodeINS_17__hash_value_typeINS_12basic_stringIcNS_11char_traitsIcEENS_9allocatorIcEEEES7_EEPvED1B8ne180100Ev, symObjAddr: 0x1EFAC, symBinAddr: 0x100022920, symSize: 0x2C }
  - { offset: 0x4D516, size: 0x8, addend: 0x0, symName: __ZNSt3__111__hash_nodeINS_17__hash_value_typeINS_12basic_stringIcNS_11char_traitsIcEENS_9allocatorIcEEEES7_EEPvED2B8ne180100Ev, symObjAddr: 0x1EFD8, symBinAddr: 0x10002294C, symSize: 0x14 }
  - { offset: 0x4D540, size: 0x8, addend: 0x0, symName: __ZNSt3__19allocatorINS_11__hash_nodeINS_17__hash_value_typeINS_12basic_stringIcNS_11char_traitsIcEENS0_IcEEEES7_EEPvEEE10deallocateB8ne180100EPSA_m, symObjAddr: 0x1EFEC, symBinAddr: 0x100022960, symSize: 0x40 }
  - { offset: 0x4D582, size: 0x8, addend: 0x0, symName: __ZNSt3__122__compressed_pair_elemINS_16__hash_node_baseIPNS_11__hash_nodeINS_17__hash_value_typeINS_12basic_stringIcNS_11char_traitsIcEENS_9allocatorIcEEEES9_EEPvEEEELi0ELb0EE5__getB8ne180100Ev, symObjAddr: 0x1F02C, symBinAddr: 0x1000229A0, symSize: 0x14 }
  - { offset: 0x4D5A8, size: 0x8, addend: 0x0, symName: __ZNSt3__110unique_ptrIA_PNS_16__hash_node_baseIPNS_11__hash_nodeINS_17__hash_value_typeINS_12basic_stringIcNS_11char_traitsIcEENS_9allocatorIcEEEES9_EEPvEEEENS_25__bucket_list_deallocatorINS7_ISF_EEEEED2B8ne180100Ev, symObjAddr: 0x1F040, symBinAddr: 0x1000229B4, symSize: 0x30 }
  - { offset: 0x4D5D2, size: 0x8, addend: 0x0, symName: __ZNSt3__110unique_ptrIA_PNS_16__hash_node_baseIPNS_11__hash_nodeINS_17__hash_value_typeINS_12basic_stringIcNS_11char_traitsIcEENS_9allocatorIcEEEES9_EEPvEEEENS_25__bucket_list_deallocatorINS7_ISF_EEEEE5resetB8ne180100EDn, symObjAddr: 0x1F070, symBinAddr: 0x1000229E4, symSize: 0x6C }
  - { offset: 0x4D614, size: 0x8, addend: 0x0, symName: __ZNSt3__117__compressed_pairIPPNS_16__hash_node_baseIPNS_11__hash_nodeINS_17__hash_value_typeINS_12basic_stringIcNS_11char_traitsIcEENS_9allocatorIcEEEES9_EEPvEEEENS_25__bucket_list_deallocatorINS7_ISF_EEEEE5firstB8ne180100Ev, symObjAddr: 0x1F0DC, symBinAddr: 0x100022A50, symSize: 0x24 }
  - { offset: 0x4D63A, size: 0x8, addend: 0x0, symName: __ZNSt3__117__compressed_pairIPPNS_16__hash_node_baseIPNS_11__hash_nodeINS_17__hash_value_typeINS_12basic_stringIcNS_11char_traitsIcEENS_9allocatorIcEEEES9_EEPvEEEENS_25__bucket_list_deallocatorINS7_ISF_EEEEE6secondB8ne180100Ev, symObjAddr: 0x1F100, symBinAddr: 0x100022A74, symSize: 0x28 }
  - { offset: 0x4D660, size: 0x8, addend: 0x0, symName: __ZNSt3__125__bucket_list_deallocatorINS_9allocatorIPNS_16__hash_node_baseIPNS_11__hash_nodeINS_17__hash_value_typeINS_12basic_stringIcNS_11char_traitsIcEENS1_IcEEEES9_EEPvEEEEEEEclB8ne180100EPSF_, symObjAddr: 0x1F128, symBinAddr: 0x100022A9C, symSize: 0x58 }
  - { offset: 0x4D696, size: 0x8, addend: 0x0, symName: __ZNSt3__122__compressed_pair_elemIPPNS_16__hash_node_baseIPNS_11__hash_nodeINS_17__hash_value_typeINS_12basic_stringIcNS_11char_traitsIcEENS_9allocatorIcEEEES9_EEPvEEEELi0ELb0EE5__getB8ne180100Ev, symObjAddr: 0x1F180, symBinAddr: 0x100022AF4, symSize: 0x14 }
  - { offset: 0x4D6BC, size: 0x8, addend: 0x0, symName: __ZNSt3__122__compressed_pair_elemINS_25__bucket_list_deallocatorINS_9allocatorIPNS_16__hash_node_baseIPNS_11__hash_nodeINS_17__hash_value_typeINS_12basic_stringIcNS_11char_traitsIcEENS2_IcEEEESA_EEPvEEEEEEEELi1ELb0EE5__getB8ne180100Ev, symObjAddr: 0x1F194, symBinAddr: 0x100022B08, symSize: 0x14 }
  - { offset: 0x4D6E2, size: 0x8, addend: 0x0, symName: __ZNSt3__116allocator_traitsINS_9allocatorIPNS_16__hash_node_baseIPNS_11__hash_nodeINS_17__hash_value_typeINS_12basic_stringIcNS_11char_traitsIcEENS1_IcEEEES9_EEPvEEEEEEE10deallocateB8ne180100ERSG_PSF_m, symObjAddr: 0x1F1A8, symBinAddr: 0x100022B1C, symSize: 0x34 }
  - { offset: 0x4D727, size: 0x8, addend: 0x0, symName: __ZNSt3__125__bucket_list_deallocatorINS_9allocatorIPNS_16__hash_node_baseIPNS_11__hash_nodeINS_17__hash_value_typeINS_12basic_stringIcNS_11char_traitsIcEENS1_IcEEEES9_EEPvEEEEEEE7__allocB8ne180100Ev, symObjAddr: 0x1F1DC, symBinAddr: 0x100022B50, symSize: 0x24 }
  - { offset: 0x4D74D, size: 0x8, addend: 0x0, symName: __ZNSt3__125__bucket_list_deallocatorINS_9allocatorIPNS_16__hash_node_baseIPNS_11__hash_nodeINS_17__hash_value_typeINS_12basic_stringIcNS_11char_traitsIcEENS1_IcEEEES9_EEPvEEEEEEE4sizeB8ne180100Ev, symObjAddr: 0x1F200, symBinAddr: 0x100022B74, symSize: 0x24 }
  - { offset: 0x4D773, size: 0x8, addend: 0x0, symName: __ZNSt3__19allocatorIPNS_16__hash_node_baseIPNS_11__hash_nodeINS_17__hash_value_typeINS_12basic_stringIcNS_11char_traitsIcEENS0_IcEEEES8_EEPvEEEEE10deallocateB8ne180100EPSE_m, symObjAddr: 0x1F224, symBinAddr: 0x100022B98, symSize: 0x40 }
  - { offset: 0x4D7B5, size: 0x8, addend: 0x0, symName: __ZNSt3__117__compressed_pairImNS_9allocatorIPNS_16__hash_node_baseIPNS_11__hash_nodeINS_17__hash_value_typeINS_12basic_stringIcNS_11char_traitsIcEENS1_IcEEEES9_EEPvEEEEEEE6secondB8ne180100Ev, symObjAddr: 0x1F264, symBinAddr: 0x100022BD8, symSize: 0x24 }
  - { offset: 0x4D7DB, size: 0x8, addend: 0x0, symName: __ZNSt3__122__compressed_pair_elemINS_9allocatorIPNS_16__hash_node_baseIPNS_11__hash_nodeINS_17__hash_value_typeINS_12basic_stringIcNS_11char_traitsIcEENS1_IcEEEES9_EEPvEEEEEELi1ELb1EE5__getB8ne180100Ev, symObjAddr: 0x1F288, symBinAddr: 0x100022BFC, symSize: 0x14 }
  - { offset: 0x4D801, size: 0x8, addend: 0x0, symName: __ZNSt3__117__compressed_pairImNS_9allocatorIPNS_16__hash_node_baseIPNS_11__hash_nodeINS_17__hash_value_typeINS_12basic_stringIcNS_11char_traitsIcEENS1_IcEEEES9_EEPvEEEEEEE5firstB8ne180100Ev, symObjAddr: 0x1F29C, symBinAddr: 0x100022C10, symSize: 0x24 }
  - { offset: 0x4D845, size: 0x8, addend: 0x0, symName: __ZNKSt3__113basic_ostreamIcNS_11char_traitsIcEEE6sentrycvbB8ne180100Ev, symObjAddr: 0x1F4AC, symBinAddr: 0x100022E20, symSize: 0x1C }
  - { offset: 0x4D86B, size: 0x8, addend: 0x0, symName: __ZNSt3__119ostreambuf_iteratorIcNS_11char_traitsIcEEEC1B8ne180100ERNS_13basic_ostreamIcS2_EE, symObjAddr: 0x1F708, symBinAddr: 0x10002307C, symSize: 0x34 }
  - { offset: 0x4D8A3, size: 0x8, addend: 0x0, symName: __ZNKSt3__18ios_base5flagsB8ne180100Ev, symObjAddr: 0x1F73C, symBinAddr: 0x1000230B0, symSize: 0x18 }
  - { offset: 0x4D8CB, size: 0x8, addend: 0x0, symName: __ZNKSt3__19basic_iosIcNS_11char_traitsIcEEE4fillB8ne180100Ev, symObjAddr: 0x1F754, symBinAddr: 0x1000230C8, symSize: 0x64 }
  - { offset: 0x4D8F3, size: 0x8, addend: 0x0, symName: __ZNKSt3__119ostreambuf_iteratorIcNS_11char_traitsIcEEE6failedB8ne180100Ev, symObjAddr: 0x1F7B8, symBinAddr: 0x10002312C, symSize: 0x24 }
  - { offset: 0x4D919, size: 0x8, addend: 0x0, symName: __ZNSt3__19basic_iosIcNS_11char_traitsIcEEE8setstateB8ne180100Ej, symObjAddr: 0x1F7DC, symBinAddr: 0x100023150, symSize: 0x2C }
  - { offset: 0x4D94F, size: 0x8, addend: 0x0, symName: __ZNKSt3__18ios_base5widthB8ne180100Ev, symObjAddr: 0x1F808, symBinAddr: 0x10002317C, symSize: 0x18 }
  - { offset: 0x4D977, size: 0x8, addend: 0x0, symName: __ZNSt3__115basic_streambufIcNS_11char_traitsIcEEE5sputnB8ne180100EPKcl, symObjAddr: 0x1F820, symBinAddr: 0x100023194, symSize: 0x3C }
  - { offset: 0x4D9B9, size: 0x8, addend: 0x0, symName: __ZNSt3__112basic_stringIcNS_11char_traitsIcEENS_9allocatorIcEEEC1B8ne180100Emc, symObjAddr: 0x1F85C, symBinAddr: 0x1000231D0, symSize: 0x3C }
  - { offset: 0x4DA03, size: 0x8, addend: 0x0, symName: __ZNSt3__112basic_stringIcNS_11char_traitsIcEENS_9allocatorIcEEE4dataB8ne180100Ev, symObjAddr: 0x1F898, symBinAddr: 0x10002320C, symSize: 0x28 }
  - { offset: 0x4DA29, size: 0x8, addend: 0x0, symName: __ZNSt3__18ios_base5widthB8ne180100El, symObjAddr: 0x1F8C0, symBinAddr: 0x100023234, symSize: 0x2C }
  - { offset: 0x4DA71, size: 0x8, addend: 0x0, symName: __ZNSt3__112basic_stringIcNS_11char_traitsIcEENS_9allocatorIcEEEC2B8ne180100Emc, symObjAddr: 0x1F8EC, symBinAddr: 0x100023260, symSize: 0x4C }
  - { offset: 0x4DABB, size: 0x8, addend: 0x0, symName: __ZNSt3__112basic_stringIcNS_11char_traitsIcEENS_9allocatorIcEEE13__get_pointerB8ne180100Ev, symObjAddr: 0x1F94C, symBinAddr: 0x1000232C0, symSize: 0x54 }
  - { offset: 0x4DAE1, size: 0x8, addend: 0x0, symName: __ZNSt3__112basic_stringIcNS_11char_traitsIcEENS_9allocatorIcEEE18__get_long_pointerB8ne180100Ev, symObjAddr: 0x1F9A0, symBinAddr: 0x100023314, symSize: 0x28 }
  - { offset: 0x4DB07, size: 0x8, addend: 0x0, symName: __ZNSt3__112basic_stringIcNS_11char_traitsIcEENS_9allocatorIcEEE19__get_short_pointerB8ne180100Ev, symObjAddr: 0x1F9C8, symBinAddr: 0x10002333C, symSize: 0x28 }
  - { offset: 0x4DB2D, size: 0x8, addend: 0x0, symName: __ZNSt3__117__compressed_pairINS_12basic_stringIcNS_11char_traitsIcEENS_9allocatorIcEEE5__repES5_E5firstB8ne180100Ev, symObjAddr: 0x1F9F0, symBinAddr: 0x100023364, symSize: 0x24 }
  - { offset: 0x4DB53, size: 0x8, addend: 0x0, symName: __ZNSt3__122__compressed_pair_elemINS_12basic_stringIcNS_11char_traitsIcEENS_9allocatorIcEEE5__repELi0ELb0EE5__getB8ne180100Ev, symObjAddr: 0x1FA14, symBinAddr: 0x100023388, symSize: 0x14 }
  - { offset: 0x4DB79, size: 0x8, addend: 0x0, symName: __ZNSt3__114pointer_traitsIPcE10pointer_toB8ne180100ERc, symObjAddr: 0x1FA28, symBinAddr: 0x10002339C, symSize: 0x14 }
  - { offset: 0x4DB9C, size: 0x8, addend: 0x0, symName: __ZNSt3__119ostreambuf_iteratorIcNS_11char_traitsIcEEEC2B8ne180100ERNS_13basic_ostreamIcS2_EE, symObjAddr: 0x1FA3C, symBinAddr: 0x1000233B0, symSize: 0x54 }
  - { offset: 0x4DBD4, size: 0x8, addend: 0x0, symName: __ZNKSt3__19basic_iosIcNS_11char_traitsIcEEE5rdbufB8ne180100Ev, symObjAddr: 0x1FA90, symBinAddr: 0x100023404, symSize: 0x24 }
  - { offset: 0x4DBFC, size: 0x8, addend: 0x0, symName: __ZNKSt3__18ios_base5rdbufB8ne180100Ev, symObjAddr: 0x1FAB4, symBinAddr: 0x100023428, symSize: 0x18 }
  - { offset: 0x4DC22, size: 0x8, addend: 0x0, symName: __ZNSt3__111char_traitsIcE11eq_int_typeB8ne180100Eii, symObjAddr: 0x1FACC, symBinAddr: 0x100023440, symSize: 0x28 }
  - { offset: 0x4DC57, size: 0x8, addend: 0x0, symName: __ZNSt3__111char_traitsIcE3eofB8ne180100Ev, symObjAddr: 0x1FAF4, symBinAddr: 0x100023468, symSize: 0x8 }
  - { offset: 0x4DC6B, size: 0x8, addend: 0x0, symName: __ZNKSt3__19basic_iosIcNS_11char_traitsIcEEE5widenB8ne180100Ec, symObjAddr: 0x1FAFC, symBinAddr: 0x100023470, symSize: 0x84 }
  - { offset: 0x4DCDA, size: 0x8, addend: 0x0, symName: __ZNKSt3__15ctypeIcE5widenB8ne180100Ec, symObjAddr: 0x1FBAC, symBinAddr: 0x100023520, symSize: 0x38 }
  - { offset: 0x4DD10, size: 0x8, addend: 0x0, symName: __ZNSt3__18ios_base8setstateB8ne180100Ej, symObjAddr: 0x1FBE4, symBinAddr: 0x100023558, symSize: 0x34 }
  - { offset: 0x4DD5C, size: 0x8, addend: 0x0, symName: __ZNSt3__112__hash_tableINS_17__hash_value_typeINS_12basic_stringIcNS_11char_traitsIcEENS_9allocatorIcEEEEbEENS_22__unordered_map_hasherIS7_S8_NS_4hashIS7_EENS_8equal_toIS7_EELb1EEENS_21__unordered_map_equalIS7_S8_SD_SB_Lb1EEENS5_IS8_EEE25__emplace_unique_key_argsIS7_JRKNS_21piecewise_construct_tENS_5tupleIJRKS7_EEENSN_IJEEEEEENS_4pairINS_15__hash_iteratorIPNS_11__hash_nodeIS8_PvEEEEbEERKT_DpOT0_, symObjAddr: 0x1FC18, symBinAddr: 0x10002358C, symSize: 0x4B0 }
  - { offset: 0x4DE72, size: 0x8, addend: 0x0, symName: __ZNKSt3__115__hash_iteratorIPNS_11__hash_nodeINS_17__hash_value_typeINS_12basic_stringIcNS_11char_traitsIcEENS_9allocatorIcEEEEbEEPvEEEptB8ne180100Ev, symObjAddr: 0x200F8, symBinAddr: 0x100023A6C, symSize: 0x30 }
  - { offset: 0x4DE98, size: 0x8, addend: 0x0, symName: __ZNSt3__112__hash_tableINS_17__hash_value_typeINS_12basic_stringIcNS_11char_traitsIcEENS_9allocatorIcEEEEbEENS_22__unordered_map_hasherIS7_S8_NS_4hashIS7_EENS_8equal_toIS7_EELb1EEENS_21__unordered_map_equalIS7_S8_SD_SB_Lb1EEENS5_IS8_EEE21__construct_node_hashIRKNS_21piecewise_construct_tEJNS_5tupleIJRKS7_EEENSN_IJEEEEEENS_10unique_ptrINS_11__hash_nodeIS8_PvEENS_22__hash_node_destructorINS5_ISV_EEEEEEmOT_DpOT0_, symObjAddr: 0x20128, symBinAddr: 0x100023A9C, symSize: 0x140 }
  - { offset: 0x4DF3A, size: 0x8, addend: 0x0, symName: __ZNSt3__116allocator_traitsINS_9allocatorINS_11__hash_nodeINS_17__hash_value_typeINS_12basic_stringIcNS_11char_traitsIcEENS1_IcEEEEbEEPvEEEEE9constructB8ne180100INS_4pairIKS8_bEEJRKNS_21piecewise_construct_tENS_5tupleIJRSG_EEENSL_IJEEEEvEEvRSC_PT_DpOT0_, symObjAddr: 0x20268, symBinAddr: 0x100023BDC, symSize: 0x44 }
  - { offset: 0x4DFBE, size: 0x8, addend: 0x0, symName: __ZNSt3__19allocatorINS_11__hash_nodeINS_17__hash_value_typeINS_12basic_stringIcNS_11char_traitsIcEENS0_IcEEEEbEEPvEEE9constructB8ne180100INS_4pairIKS7_bEEJRKNS_21piecewise_construct_tENS_5tupleIJRSE_EEENSJ_IJEEEEEEvPT_DpOT0_, symObjAddr: 0x202AC, symBinAddr: 0x100023C20, symSize: 0x44 }
  - { offset: 0x4E03A, size: 0x8, addend: 0x0, symName: __ZNSt3__14pairIKNS_12basic_stringIcNS_11char_traitsIcEENS_9allocatorIcEEEEbEC1B8ne180100IJRS7_EJEEENS_21piecewise_construct_tENS_5tupleIJDpT_EEENSC_IJDpT0_EEE, symObjAddr: 0x202F0, symBinAddr: 0x100023C64, symSize: 0x3C }
  - { offset: 0x4E0A4, size: 0x8, addend: 0x0, symName: __ZNSt3__14pairIKNS_12basic_stringIcNS_11char_traitsIcEENS_9allocatorIcEEEEbEC1B8ne180100IJRS7_EJEJLm0EEJEEENS_21piecewise_construct_tERNS_5tupleIJDpT_EEERNSC_IJDpT0_EEENS_15__tuple_indicesIJXspT1_EEEENSL_IJXspT2_EEEE, symObjAddr: 0x2032C, symBinAddr: 0x100023CA0, symSize: 0x3C }
  - { offset: 0x4E136, size: 0x8, addend: 0x0, symName: __ZNSt3__14pairIKNS_12basic_stringIcNS_11char_traitsIcEENS_9allocatorIcEEEEbEC2B8ne180100IJRS7_EJEJLm0EEJEEENS_21piecewise_construct_tERNS_5tupleIJDpT_EEERNSC_IJDpT0_EEENS_15__tuple_indicesIJXspT1_EEEENSL_IJXspT2_EEEE, symObjAddr: 0x20368, symBinAddr: 0x100023CDC, symSize: 0x48 }
  - { offset: 0x4E1C8, size: 0x8, addend: 0x0, symName: __ZNSt3__112__tuple_leafILm0ERKNS_12basic_stringIcNS_11char_traitsIcEENS_9allocatorIcEEEELb0EE3getB8ne180100Ev, symObjAddr: 0x203D4, symBinAddr: 0x100023D48, symSize: 0x18 }
  - { offset: 0x4E1EE, size: 0x8, addend: 0x0, symName: __ZNSt3__15tupleIJRKNS_12basic_stringIcNS_11char_traitsIcEENS_9allocatorIcEEEEEEC1B8ne180100INS_4_AndELi0EEES8_, symObjAddr: 0x203EC, symBinAddr: 0x100023D60, symSize: 0x34 }
  - { offset: 0x4E237, size: 0x8, addend: 0x0, symName: __ZNSt3__15tupleIJRKNS_12basic_stringIcNS_11char_traitsIcEENS_9allocatorIcEEEEEEC2B8ne180100INS_4_AndELi0EEES8_, symObjAddr: 0x20420, symBinAddr: 0x100023D94, symSize: 0x34 }
  - { offset: 0x4E280, size: 0x8, addend: 0x0, symName: __ZNSt3__112__tuple_implINS_15__tuple_indicesIJLm0EEEEJRKNS_12basic_stringIcNS_11char_traitsIcEENS_9allocatorIcEEEEEEC1B8ne180100IJLm0EEJSA_EJEJEJSA_EEENS1_IJXspT_EEEENS_13__tuple_typesIJDpT0_EEENS1_IJXspT1_EEEENSE_IJDpT2_EEEDpOT3_, symObjAddr: 0x20454, symBinAddr: 0x100023DC8, symSize: 0x34 }
  - { offset: 0x4E316, size: 0x8, addend: 0x0, symName: __ZNSt3__112__tuple_implINS_15__tuple_indicesIJLm0EEEEJRKNS_12basic_stringIcNS_11char_traitsIcEENS_9allocatorIcEEEEEEC2B8ne180100IJLm0EEJSA_EJEJEJSA_EEENS1_IJXspT_EEEENS_13__tuple_typesIJDpT0_EEENS1_IJXspT1_EEEENSE_IJDpT2_EEEDpOT3_, symObjAddr: 0x20488, symBinAddr: 0x100023DFC, symSize: 0x34 }
  - { offset: 0x4E3AC, size: 0x8, addend: 0x0, symName: __ZNSt3__112__tuple_leafILm0ERKNS_12basic_stringIcNS_11char_traitsIcEENS_9allocatorIcEEEELb0EEC2B8ne180100IS8_vEEOT_, symObjAddr: 0x204BC, symBinAddr: 0x100023E30, symSize: 0x20 }
  - { offset: 0x4E3F0, size: 0x8, addend: 0x0, symName: __ZNSt3__114pointer_traitsIPNS_17__hash_value_typeINS_12basic_stringIcNS_11char_traitsIcEENS_9allocatorIcEEEEbEEE10pointer_toB8ne180100ERS8_, symObjAddr: 0x204DC, symBinAddr: 0x100023E50, symSize: 0x14 }
  - { offset: 0x4E413, size: 0x8, addend: 0x0, symName: __ZNSt3__16__treeINS_12__value_typeINS_12basic_stringIcNS_11char_traitsIcEENS_9allocatorIcEEEE4roomEENS_19__map_value_compareIS7_S9_NS_4lessIS7_EELb1EEENS5_IS9_EEE25__emplace_unique_key_argsIS7_JRKNS_21piecewise_construct_tENS_5tupleIJRKS7_EEENSK_IJEEEEEENS_4pairINS_15__tree_iteratorIS9_PNS_11__tree_nodeIS9_PvEElEEbEERKT_DpOT0_, symObjAddr: 0x204F0, symBinAddr: 0x100023E64, symSize: 0x100 }
  - { offset: 0x4E4F3, size: 0x8, addend: 0x0, symName: __ZNKSt3__115__tree_iteratorINS_12__value_typeINS_12basic_stringIcNS_11char_traitsIcEENS_9allocatorIcEEEE4roomEEPNS_11__tree_nodeIS9_PvEElEptB8ne180100Ev, symObjAddr: 0x205F0, symBinAddr: 0x100023F64, symSize: 0x2C }
  - { offset: 0x4E519, size: 0x8, addend: 0x0, symName: __ZNSt3__16__treeINS_12__value_typeINS_12basic_stringIcNS_11char_traitsIcEENS_9allocatorIcEEEE4roomEENS_19__map_value_compareIS7_S9_NS_4lessIS7_EELb1EEENS5_IS9_EEE16__construct_nodeIJRKNS_21piecewise_construct_tENS_5tupleIJRKS7_EEENSK_IJEEEEEENS_10unique_ptrINS_11__tree_nodeIS9_PvEENS_22__tree_node_destructorINS5_ISS_EEEEEEDpOT_, symObjAddr: 0x2061C, symBinAddr: 0x100023F90, symSize: 0x118 }
  - { offset: 0x4E5A7, size: 0x8, addend: 0x0, symName: __ZNSt3__116allocator_traitsINS_9allocatorINS_11__tree_nodeINS_12__value_typeINS_12basic_stringIcNS_11char_traitsIcEENS1_IcEEEE4roomEEPvEEEEE9constructB8ne180100INS_4pairIKS8_S9_EEJRKNS_21piecewise_construct_tENS_5tupleIJRSH_EEENSM_IJEEEEvEEvRSD_PT_DpOT0_, symObjAddr: 0x20734, symBinAddr: 0x1000240A8, symSize: 0x44 }
  - { offset: 0x4E62B, size: 0x8, addend: 0x0, symName: __ZNSt3__19allocatorINS_11__tree_nodeINS_12__value_typeINS_12basic_stringIcNS_11char_traitsIcEENS0_IcEEEE4roomEEPvEEE9constructB8ne180100INS_4pairIKS7_S8_EEJRKNS_21piecewise_construct_tENS_5tupleIJRSF_EEENSK_IJEEEEEEvPT_DpOT0_, symObjAddr: 0x20778, symBinAddr: 0x1000240EC, symSize: 0x44 }
  - { offset: 0x4E6A7, size: 0x8, addend: 0x0, symName: __ZNSt3__14pairIKNS_12basic_stringIcNS_11char_traitsIcEENS_9allocatorIcEEEE4roomEC1B8ne180100IJRS7_EJEEENS_21piecewise_construct_tENS_5tupleIJDpT_EEENSD_IJDpT0_EEE, symObjAddr: 0x207BC, symBinAddr: 0x100024130, symSize: 0x3C }
  - { offset: 0x4E711, size: 0x8, addend: 0x0, symName: __ZNSt3__14pairIKNS_12basic_stringIcNS_11char_traitsIcEENS_9allocatorIcEEEE4roomEC1B8ne180100IJRS7_EJEJLm0EEJEEENS_21piecewise_construct_tERNS_5tupleIJDpT_EEERNSD_IJDpT0_EEENS_15__tuple_indicesIJXspT1_EEEENSM_IJXspT2_EEEE, symObjAddr: 0x207F8, symBinAddr: 0x10002416C, symSize: 0x3C }
  - { offset: 0x4E7A3, size: 0x8, addend: 0x0, symName: __ZNSt3__14pairIKNS_12basic_stringIcNS_11char_traitsIcEENS_9allocatorIcEEEE4roomEC2B8ne180100IJRS7_EJEJLm0EEJEEENS_21piecewise_construct_tERNS_5tupleIJDpT_EEERNSD_IJDpT0_EEENS_15__tuple_indicesIJXspT1_EEEENSM_IJXspT2_EEEE, symObjAddr: 0x20834, symBinAddr: 0x1000241A8, symSize: 0x78 }
  - { offset: 0x4E835, size: 0x8, addend: 0x0, symName: __ZNSt3__114pointer_traitsIPNS_12__value_typeINS_12basic_stringIcNS_11char_traitsIcEENS_9allocatorIcEEEE4roomEEE10pointer_toB8ne180100ERS9_, symObjAddr: 0x208AC, symBinAddr: 0x100024220, symSize: 0x14 }
  - { offset: 0x4E858, size: 0x8, addend: 0x0, symName: __ZNKSt3__115__tree_iteratorINS_12__value_typeINS_12basic_stringIcNS_11char_traitsIcEENS_9allocatorIcEEEE4roomEEPNS_11__tree_nodeIS9_PvEElE8__get_npB8ne180100Ev, symObjAddr: 0x208C0, symBinAddr: 0x100024234, symSize: 0x18 }
  - { offset: 0x4E87E, size: 0x8, addend: 0x0, symName: __ZNSt3__13mapINS_12basic_stringIcNS_11char_traitsIcEENS_9allocatorIcEEEES6_NS_4lessIS6_EENS4_INS_4pairIKS6_S6_EEEEED2B8ne180100Ev, symObjAddr: 0x208D8, symBinAddr: 0x10002424C, symSize: 0x2C }
  - { offset: 0x4E8A8, size: 0x8, addend: 0x0, symName: __ZNKSt3__16__treeINS_12__value_typeINS_12basic_stringIcNS_11char_traitsIcEENS_9allocatorIcEEEES7_EENS_19__map_value_compareIS7_S8_NS_4lessIS7_EELb1EEENS5_IS8_EEE4sizeB8ne180100Ev, symObjAddr: 0x20904, symBinAddr: 0x100024278, symSize: 0x28 }
  - { offset: 0x4E8CE, size: 0x8, addend: 0x0, symName: __ZNKSt3__117__compressed_pairImNS_19__map_value_compareINS_12basic_stringIcNS_11char_traitsIcEENS_9allocatorIcEEEENS_12__value_typeIS7_S7_EENS_4lessIS7_EELb1EEEE5firstB8ne180100Ev, symObjAddr: 0x2092C, symBinAddr: 0x1000242A0, symSize: 0x24 }
  - { offset: 0x4E8F4, size: 0x8, addend: 0x0, symName: __ZNKSt3__121__tree_const_iteratorINS_12__value_typeINS_12basic_stringIcNS_11char_traitsIcEENS_9allocatorIcEEEES7_EEPNS_11__tree_nodeIS8_PvEElEptB8ne180100Ev, symObjAddr: 0x20950, symBinAddr: 0x1000242C4, symSize: 0x2C }
  - { offset: 0x4E91A, size: 0x8, addend: 0x0, symName: __ZNSt3__114pointer_traitsIPKNS_12__value_typeINS_12basic_stringIcNS_11char_traitsIcEENS_9allocatorIcEEEES7_EEE10pointer_toB8ne180100ERS9_, symObjAddr: 0x2097C, symBinAddr: 0x1000242F0, symSize: 0x14 }
  - { offset: 0x4E93D, size: 0x8, addend: 0x0, symName: __ZNKSt3__112__hash_tableINS_17__hash_value_typeINS_12basic_stringIcNS_11char_traitsIcEENS_9allocatorIcEEEENS_6vectorIS7_NS5_IS7_EEEEEENS_22__unordered_map_hasherIS7_SB_NS_4hashIS7_EENS_8equal_toIS7_EELb1EEENS_21__unordered_map_equalIS7_SB_SG_SE_Lb1EEENS5_ISB_EEE14__count_uniqueIS7_EEmRKT_, symObjAddr: 0x20990, symBinAddr: 0x100024304, symSize: 0x64 }
  - { offset: 0x4E97E, size: 0x8, addend: 0x0, symName: __ZNKSt3__112__hash_tableINS_17__hash_value_typeINS_12basic_stringIcNS_11char_traitsIcEENS_9allocatorIcEEEENS_6vectorIS7_NS5_IS7_EEEEEENS_22__unordered_map_hasherIS7_SB_NS_4hashIS7_EENS_8equal_toIS7_EELb1EEENS_21__unordered_map_equalIS7_SB_SG_SE_Lb1EEENS5_ISB_EEE4findIS7_EENS_21__hash_const_iteratorIPNS_11__hash_nodeISB_PvEEEERKT_, symObjAddr: 0x209F4, symBinAddr: 0x100024368, symSize: 0x1B8 }
  - { offset: 0x4EA0E, size: 0x8, addend: 0x0, symName: __ZNSt3__112__hash_tableINS_17__hash_value_typeINS_12basic_stringIcNS_11char_traitsIcEENS_9allocatorIcEEEENS_6vectorIS7_NS5_IS7_EEEEEENS_22__unordered_map_hasherIS7_SB_NS_4hashIS7_EENS_8equal_toIS7_EELb1EEENS_21__unordered_map_equalIS7_SB_SG_SE_Lb1EEENS5_ISB_EEE25__emplace_unique_key_argsIS7_JRKNS_21piecewise_construct_tENS_5tupleIJRKS7_EEENSQ_IJEEEEEENS_4pairINS_15__hash_iteratorIPNS_11__hash_nodeISB_PvEEEEbEERKT_DpOT0_, symObjAddr: 0x20BAC, symBinAddr: 0x100024520, symSize: 0x4B0 }
  - { offset: 0x4EB24, size: 0x8, addend: 0x0, symName: __ZNKSt3__115__hash_iteratorIPNS_11__hash_nodeINS_17__hash_value_typeINS_12basic_stringIcNS_11char_traitsIcEENS_9allocatorIcEEEENS_6vectorIS8_NS6_IS8_EEEEEEPvEEEptB8ne180100Ev, symObjAddr: 0x2105C, symBinAddr: 0x1000249D0, symSize: 0x30 }
  - { offset: 0x4EB4A, size: 0x8, addend: 0x0, symName: __ZNSt3__112__hash_tableINS_17__hash_value_typeINS_12basic_stringIcNS_11char_traitsIcEENS_9allocatorIcEEEENS_6vectorIS7_NS5_IS7_EEEEEENS_22__unordered_map_hasherIS7_SB_NS_4hashIS7_EENS_8equal_toIS7_EELb1EEENS_21__unordered_map_equalIS7_SB_SG_SE_Lb1EEENS5_ISB_EEE21__construct_node_hashIRKNS_21piecewise_construct_tEJNS_5tupleIJRKS7_EEENSQ_IJEEEEEENS_10unique_ptrINS_11__hash_nodeISB_PvEENS_22__hash_node_destructorINS5_ISY_EEEEEEmOT_DpOT0_, symObjAddr: 0x2108C, symBinAddr: 0x100024A00, symSize: 0x140 }
  - { offset: 0x4EBEC, size: 0x8, addend: 0x0, symName: __ZNSt3__116allocator_traitsINS_9allocatorINS_11__hash_nodeINS_17__hash_value_typeINS_12basic_stringIcNS_11char_traitsIcEENS1_IcEEEENS_6vectorIS8_NS1_IS8_EEEEEEPvEEEEE9constructB8ne180100INS_4pairIKS8_SB_EEJRKNS_21piecewise_construct_tENS_5tupleIJRSJ_EEENSO_IJEEEEvEEvRSF_PT_DpOT0_, symObjAddr: 0x211CC, symBinAddr: 0x100024B40, symSize: 0x44 }
  - { offset: 0x4EC70, size: 0x8, addend: 0x0, symName: __ZNSt3__19allocatorINS_11__hash_nodeINS_17__hash_value_typeINS_12basic_stringIcNS_11char_traitsIcEENS0_IcEEEENS_6vectorIS7_NS0_IS7_EEEEEEPvEEE9constructB8ne180100INS_4pairIKS7_SA_EEJRKNS_21piecewise_construct_tENS_5tupleIJRSH_EEENSM_IJEEEEEEvPT_DpOT0_, symObjAddr: 0x21210, symBinAddr: 0x100024B84, symSize: 0x44 }
  - { offset: 0x4ECEC, size: 0x8, addend: 0x0, symName: __ZNSt3__14pairIKNS_12basic_stringIcNS_11char_traitsIcEENS_9allocatorIcEEEENS_6vectorIS6_NS4_IS6_EEEEEC1B8ne180100IJRS7_EJEEENS_21piecewise_construct_tENS_5tupleIJDpT_EEENSF_IJDpT0_EEE, symObjAddr: 0x21254, symBinAddr: 0x100024BC8, symSize: 0x3C }
  - { offset: 0x4ED56, size: 0x8, addend: 0x0, symName: __ZNSt3__14pairIKNS_12basic_stringIcNS_11char_traitsIcEENS_9allocatorIcEEEENS_6vectorIS6_NS4_IS6_EEEEEC1B8ne180100IJRS7_EJEJLm0EEJEEENS_21piecewise_construct_tERNS_5tupleIJDpT_EEERNSF_IJDpT0_EEENS_15__tuple_indicesIJXspT1_EEEENSO_IJXspT2_EEEE, symObjAddr: 0x21290, symBinAddr: 0x100024C04, symSize: 0x3C }
  - { offset: 0x4EDE8, size: 0x8, addend: 0x0, symName: __ZNSt3__14pairIKNS_12basic_stringIcNS_11char_traitsIcEENS_9allocatorIcEEEENS_6vectorIS6_NS4_IS6_EEEEEC2B8ne180100IJRS7_EJEJLm0EEJEEENS_21piecewise_construct_tERNS_5tupleIJDpT_EEERNSF_IJDpT0_EEENS_15__tuple_indicesIJXspT1_EEEENSO_IJXspT2_EEEE, symObjAddr: 0x212CC, symBinAddr: 0x100024C40, symSize: 0x50 }
  - { offset: 0x4EE7A, size: 0x8, addend: 0x0, symName: __ZNSt3__114pointer_traitsIPNS_17__hash_value_typeINS_12basic_stringIcNS_11char_traitsIcEENS_9allocatorIcEEEENS_6vectorIS7_NS5_IS7_EEEEEEE10pointer_toB8ne180100ERSB_, symObjAddr: 0x2131C, symBinAddr: 0x100024C90, symSize: 0x14 }
  - { offset: 0x4EE9D, size: 0x8, addend: 0x0, symName: __ZNSt3__16vectorINS_12basic_stringIcNS_11char_traitsIcEENS_9allocatorIcEEEENS4_IS6_EEE11__make_iterB8ne180100EPS6_, symObjAddr: 0x21330, symBinAddr: 0x100024CA4, symSize: 0x30 }
  - { offset: 0x4EED3, size: 0x8, addend: 0x0, symName: __ZNSt3__111__wrap_iterIPNS_12basic_stringIcNS_11char_traitsIcEENS_9allocatorIcEEEEEC1B8ne180100ES7_, symObjAddr: 0x21360, symBinAddr: 0x100024CD4, symSize: 0x34 }
  - { offset: 0x4EF0B, size: 0x8, addend: 0x0, symName: __ZNSt3__111__wrap_iterIPNS_12basic_stringIcNS_11char_traitsIcEENS_9allocatorIcEEEEEC2B8ne180100ES7_, symObjAddr: 0x21394, symBinAddr: 0x100024D08, symSize: 0x20 }
  - { offset: 0x4EF43, size: 0x8, addend: 0x0, symName: __ZNSt3__112__hash_tableINS_17__hash_value_typeINS_12basic_stringIcNS_11char_traitsIcEENS_9allocatorIcEEEE9characterEENS_22__unordered_map_hasherIS7_S9_NS_4hashIS7_EENS_8equal_toIS7_EELb1EEENS_21__unordered_map_equalIS7_S9_SE_SC_Lb1EEENS5_IS9_EEE25__emplace_unique_key_argsIS7_JRKNS_21piecewise_construct_tENS_5tupleIJRKS7_EEENSO_IJEEEEEENS_4pairINS_15__hash_iteratorIPNS_11__hash_nodeIS9_PvEEEEbEERKT_DpOT0_, symObjAddr: 0x213B4, symBinAddr: 0x100024D28, symSize: 0x4B0 }
  - { offset: 0x4F059, size: 0x8, addend: 0x0, symName: __ZNKSt3__115__hash_iteratorIPNS_11__hash_nodeINS_17__hash_value_typeINS_12basic_stringIcNS_11char_traitsIcEENS_9allocatorIcEEEE9characterEEPvEEEptB8ne180100Ev, symObjAddr: 0x21864, symBinAddr: 0x1000251D8, symSize: 0x30 }
  - { offset: 0x4F07F, size: 0x8, addend: 0x0, symName: __ZNSt3__112__hash_tableINS_17__hash_value_typeINS_12basic_stringIcNS_11char_traitsIcEENS_9allocatorIcEEEE9characterEENS_22__unordered_map_hasherIS7_S9_NS_4hashIS7_EENS_8equal_toIS7_EELb1EEENS_21__unordered_map_equalIS7_S9_SE_SC_Lb1EEENS5_IS9_EEE21__construct_node_hashIRKNS_21piecewise_construct_tEJNS_5tupleIJRKS7_EEENSO_IJEEEEEENS_10unique_ptrINS_11__hash_nodeIS9_PvEENS_22__hash_node_destructorINS5_ISW_EEEEEEmOT_DpOT0_, symObjAddr: 0x21894, symBinAddr: 0x100025208, symSize: 0x140 }
  - { offset: 0x4F121, size: 0x8, addend: 0x0, symName: __ZNSt3__116allocator_traitsINS_9allocatorINS_11__hash_nodeINS_17__hash_value_typeINS_12basic_stringIcNS_11char_traitsIcEENS1_IcEEEE9characterEEPvEEEEE9constructB8ne180100INS_4pairIKS8_S9_EEJRKNS_21piecewise_construct_tENS_5tupleIJRSH_EEENSM_IJEEEEvEEvRSD_PT_DpOT0_, symObjAddr: 0x219D4, symBinAddr: 0x100025348, symSize: 0x44 }
  - { offset: 0x4F1A5, size: 0x8, addend: 0x0, symName: __ZNSt3__19allocatorINS_11__hash_nodeINS_17__hash_value_typeINS_12basic_stringIcNS_11char_traitsIcEENS0_IcEEEE9characterEEPvEEE9constructB8ne180100INS_4pairIKS7_S8_EEJRKNS_21piecewise_construct_tENS_5tupleIJRSF_EEENSK_IJEEEEEEvPT_DpOT0_, symObjAddr: 0x21A18, symBinAddr: 0x10002538C, symSize: 0x44 }
  - { offset: 0x4F221, size: 0x8, addend: 0x0, symName: __ZNSt3__14pairIKNS_12basic_stringIcNS_11char_traitsIcEENS_9allocatorIcEEEE9characterEC1B8ne180100IJRS7_EJEEENS_21piecewise_construct_tENS_5tupleIJDpT_EEENSD_IJDpT0_EEE, symObjAddr: 0x21A5C, symBinAddr: 0x1000253D0, symSize: 0x3C }
  - { offset: 0x4F28B, size: 0x8, addend: 0x0, symName: __ZNSt3__14pairIKNS_12basic_stringIcNS_11char_traitsIcEENS_9allocatorIcEEEE9characterEC1B8ne180100IJRS7_EJEJLm0EEJEEENS_21piecewise_construct_tERNS_5tupleIJDpT_EEERNSD_IJDpT0_EEENS_15__tuple_indicesIJXspT1_EEEENSM_IJXspT2_EEEE, symObjAddr: 0x21A98, symBinAddr: 0x10002540C, symSize: 0x3C }
  - { offset: 0x4F31D, size: 0x8, addend: 0x0, symName: __ZNSt3__14pairIKNS_12basic_stringIcNS_11char_traitsIcEENS_9allocatorIcEEEE9characterEC2B8ne180100IJRS7_EJEJLm0EEJEEENS_21piecewise_construct_tERNS_5tupleIJDpT_EEERNSD_IJDpT0_EEENS_15__tuple_indicesIJXspT1_EEEENSM_IJXspT2_EEEE, symObjAddr: 0x21AD4, symBinAddr: 0x100025448, symSize: 0x78 }
  - { offset: 0x4F3AF, size: 0x8, addend: 0x0, symName: __ZNSt3__114pointer_traitsIPNS_17__hash_value_typeINS_12basic_stringIcNS_11char_traitsIcEENS_9allocatorIcEEEE9characterEEE10pointer_toB8ne180100ERS9_, symObjAddr: 0x21B4C, symBinAddr: 0x1000254C0, symSize: 0x14 }
  - { offset: 0x4F3D2, size: 0x8, addend: 0x0, symName: __ZNSt3__112__hash_tableINS_17__hash_value_typeINS_12basic_stringIcNS_11char_traitsIcEENS_9allocatorIcEEEE4itemEENS_22__unordered_map_hasherIS7_S9_NS_4hashIS7_EENS_8equal_toIS7_EELb1EEENS_21__unordered_map_equalIS7_S9_SE_SC_Lb1EEENS5_IS9_EEE25__emplace_unique_key_argsIS7_JRKNS_21piecewise_construct_tENS_5tupleIJRKS7_EEENSO_IJEEEEEENS_4pairINS_15__hash_iteratorIPNS_11__hash_nodeIS9_PvEEEEbEERKT_DpOT0_, symObjAddr: 0x21B60, symBinAddr: 0x1000254D4, symSize: 0x4B0 }
  - { offset: 0x4F4E8, size: 0x8, addend: 0x0, symName: __ZNKSt3__115__hash_iteratorIPNS_11__hash_nodeINS_17__hash_value_typeINS_12basic_stringIcNS_11char_traitsIcEENS_9allocatorIcEEEE4itemEEPvEEEptB8ne180100Ev, symObjAddr: 0x22010, symBinAddr: 0x100025984, symSize: 0x30 }
  - { offset: 0x4F50E, size: 0x8, addend: 0x0, symName: __ZNSt3__112__hash_tableINS_17__hash_value_typeINS_12basic_stringIcNS_11char_traitsIcEENS_9allocatorIcEEEE4itemEENS_22__unordered_map_hasherIS7_S9_NS_4hashIS7_EENS_8equal_toIS7_EELb1EEENS_21__unordered_map_equalIS7_S9_SE_SC_Lb1EEENS5_IS9_EEE21__construct_node_hashIRKNS_21piecewise_construct_tEJNS_5tupleIJRKS7_EEENSO_IJEEEEEENS_10unique_ptrINS_11__hash_nodeIS9_PvEENS_22__hash_node_destructorINS5_ISW_EEEEEEmOT_DpOT0_, symObjAddr: 0x22040, symBinAddr: 0x1000259B4, symSize: 0x140 }
  - { offset: 0x4F5B0, size: 0x8, addend: 0x0, symName: __ZNSt3__116allocator_traitsINS_9allocatorINS_11__hash_nodeINS_17__hash_value_typeINS_12basic_stringIcNS_11char_traitsIcEENS1_IcEEEE4itemEEPvEEEEE9constructB8ne180100INS_4pairIKS8_S9_EEJRKNS_21piecewise_construct_tENS_5tupleIJRSH_EEENSM_IJEEEEvEEvRSD_PT_DpOT0_, symObjAddr: 0x22180, symBinAddr: 0x100025AF4, symSize: 0x44 }
  - { offset: 0x4F634, size: 0x8, addend: 0x0, symName: __ZNSt3__19allocatorINS_11__hash_nodeINS_17__hash_value_typeINS_12basic_stringIcNS_11char_traitsIcEENS0_IcEEEE4itemEEPvEEE9constructB8ne180100INS_4pairIKS7_S8_EEJRKNS_21piecewise_construct_tENS_5tupleIJRSF_EEENSK_IJEEEEEEvPT_DpOT0_, symObjAddr: 0x221C4, symBinAddr: 0x100025B38, symSize: 0x44 }
  - { offset: 0x4F6B0, size: 0x8, addend: 0x0, symName: __ZNSt3__14pairIKNS_12basic_stringIcNS_11char_traitsIcEENS_9allocatorIcEEEE4itemEC1B8ne180100IJRS7_EJEEENS_21piecewise_construct_tENS_5tupleIJDpT_EEENSD_IJDpT0_EEE, symObjAddr: 0x22208, symBinAddr: 0x100025B7C, symSize: 0x3C }
  - { offset: 0x4F71A, size: 0x8, addend: 0x0, symName: __ZNSt3__14pairIKNS_12basic_stringIcNS_11char_traitsIcEENS_9allocatorIcEEEE4itemEC1B8ne180100IJRS7_EJEJLm0EEJEEENS_21piecewise_construct_tERNS_5tupleIJDpT_EEERNSD_IJDpT0_EEENS_15__tuple_indicesIJXspT1_EEEENSM_IJXspT2_EEEE, symObjAddr: 0x22244, symBinAddr: 0x100025BB8, symSize: 0x3C }
  - { offset: 0x4F7AC, size: 0x8, addend: 0x0, symName: __ZNSt3__14pairIKNS_12basic_stringIcNS_11char_traitsIcEENS_9allocatorIcEEEE4itemEC2B8ne180100IJRS7_EJEJLm0EEJEEENS_21piecewise_construct_tERNS_5tupleIJDpT_EEERNSD_IJDpT0_EEENS_15__tuple_indicesIJXspT1_EEEENSM_IJXspT2_EEEE, symObjAddr: 0x22280, symBinAddr: 0x100025BF4, symSize: 0x78 }
  - { offset: 0x4F83E, size: 0x8, addend: 0x0, symName: __ZNSt3__114pointer_traitsIPNS_17__hash_value_typeINS_12basic_stringIcNS_11char_traitsIcEENS_9allocatorIcEEEE4itemEEE10pointer_toB8ne180100ERS9_, symObjAddr: 0x222F8, symBinAddr: 0x100025C6C, symSize: 0x14 }
  - { offset: 0x4F861, size: 0x8, addend: 0x0, symName: __ZNSt3__19basic_iosIcNS_11char_traitsIcEEEC2B8ne180100Ev, symObjAddr: 0x2230C, symBinAddr: 0x100025C80, symSize: 0x3C }
  - { offset: 0x4F88B, size: 0x8, addend: 0x0, symName: __ZNSt3__113basic_istreamIcNS_11char_traitsIcEEEC2B8ne180100EPNS_15basic_streambufIcS2_EE, symObjAddr: 0x22348, symBinAddr: 0x100025CBC, symSize: 0x64 }
  - { offset: 0x4F8D0, size: 0x8, addend: 0x0, symName: __ZNSt3__113basic_filebufIcNS_11char_traitsIcEEE4openERKNS_12basic_stringIcS2_NS_9allocatorIcEEEEj, symObjAddr: 0x223AC, symBinAddr: 0x100025D20, symSize: 0x44 }
  - { offset: 0x4F918, size: 0x8, addend: 0x0, symName: __ZNSt3__18ios_baseC2B8ne180100Ev, symObjAddr: 0x223F0, symBinAddr: 0x100025D64, symSize: 0x24 }
  - { offset: 0x4F942, size: 0x8, addend: 0x0, symName: __ZNSt3__19basic_iosIcNS_11char_traitsIcEEE4initB8ne180100EPNS_15basic_streambufIcS2_EE, symObjAddr: 0x22414, symBinAddr: 0x100025D88, symSize: 0x44 }
  - { offset: 0x4F97A, size: 0x8, addend: 0x0, symName: __ZNKSt3__112basic_stringIcNS_11char_traitsIcEENS_9allocatorIcEEE5c_strB8ne180100Ev, symObjAddr: 0x22458, symBinAddr: 0x100025DCC, symSize: 0x24 }
  - { offset: 0x4F9A0, size: 0x8, addend: 0x0, symName: __ZNKSt3__113basic_filebufIcNS_11char_traitsIcEEE7is_openEv, symObjAddr: 0x2247C, symBinAddr: 0x100025DF0, symSize: 0x24 }
  - { offset: 0x4F9C8, size: 0x8, addend: 0x0, symName: __ZNKSt3__19basic_iosIcNS_11char_traitsIcEEE4failB8ne180100Ev, symObjAddr: 0x224A0, symBinAddr: 0x100025E14, symSize: 0x28 }
  - { offset: 0x4F9EE, size: 0x8, addend: 0x0, symName: __ZNKSt3__18ios_base4failB8ne180100Ev, symObjAddr: 0x224C8, symBinAddr: 0x100025E3C, symSize: 0x28 }
  - { offset: 0x4FA16, size: 0x8, addend: 0x0, symName: __ZNSt3__112basic_stringIcNS_11char_traitsIcEENS_9allocatorIcEEE13__fits_in_ssoB8ne180100Em, symObjAddr: 0x224F0, symBinAddr: 0x100025E64, symSize: 0x20 }
  - { offset: 0x4FA3B, size: 0x8, addend: 0x0, symName: __ZNSt3__115basic_stringbufIcNS_11char_traitsIcEENS_9allocatorIcEEEC1B8ne180100ERKNS_12basic_stringIcS2_S4_EEj, symObjAddr: 0x22510, symBinAddr: 0x100025E84, symSize: 0x3C }
  - { offset: 0x4FA85, size: 0x8, addend: 0x0, symName: __ZNSt3__115basic_stringbufIcNS_11char_traitsIcEENS_9allocatorIcEEEC2B8ne180100ERKNS_12basic_stringIcS2_S4_EEj, symObjAddr: 0x2254C, symBinAddr: 0x100025EC0, symSize: 0xA8 }
  - { offset: 0x4FACF, size: 0x8, addend: 0x0, symName: __ZNKSt3__112basic_stringIcNS_11char_traitsIcEENS_9allocatorIcEEE13get_allocatorB8ne180100Ev, symObjAddr: 0x225F4, symBinAddr: 0x100025F68, symSize: 0x24 }
  - { offset: 0x4FAF5, size: 0x8, addend: 0x0, symName: __ZNSt3__112basic_stringIcNS_11char_traitsIcEENS_9allocatorIcEEEC1B8ne180100ERKS4_, symObjAddr: 0x22618, symBinAddr: 0x100025F8C, symSize: 0x34 }
  - { offset: 0x4FB2F, size: 0x8, addend: 0x0, symName: __ZNKSt3__112basic_stringIcNS_11char_traitsIcEENS_9allocatorIcEEE7__allocB8ne180100Ev, symObjAddr: 0x2264C, symBinAddr: 0x100025FC0, symSize: 0x24 }
  - { offset: 0x4FB55, size: 0x8, addend: 0x0, symName: __ZNKSt3__117__compressed_pairINS_12basic_stringIcNS_11char_traitsIcEENS_9allocatorIcEEE5__repES5_E6secondB8ne180100Ev, symObjAddr: 0x22670, symBinAddr: 0x100025FE4, symSize: 0x24 }
  - { offset: 0x4FB7B, size: 0x8, addend: 0x0, symName: __ZNKSt3__122__compressed_pair_elemINS_9allocatorIcEELi1ELb1EE5__getB8ne180100Ev, symObjAddr: 0x22694, symBinAddr: 0x100026008, symSize: 0x14 }
  - { offset: 0x4FBA1, size: 0x8, addend: 0x0, symName: __ZNSt3__112basic_stringIcNS_11char_traitsIcEENS_9allocatorIcEEEC2B8ne180100ERKS4_, symObjAddr: 0x226A8, symBinAddr: 0x10002601C, symSize: 0x4C }
  - { offset: 0x4FBDB, size: 0x8, addend: 0x0, symName: __ZNSt3__117__compressed_pairINS_12basic_stringIcNS_11char_traitsIcEENS_9allocatorIcEEE5__repES5_EC1B8ne180100INS_16__value_init_tagERKS5_EEOT_OT0_, symObjAddr: 0x226F4, symBinAddr: 0x100026068, symSize: 0x3C }
  - { offset: 0x4FC33, size: 0x8, addend: 0x0, symName: __ZNSt3__117__compressed_pairINS_12basic_stringIcNS_11char_traitsIcEENS_9allocatorIcEEE5__repES5_EC2B8ne180100INS_16__value_init_tagERKS5_EEOT_OT0_, symObjAddr: 0x22730, symBinAddr: 0x1000260A4, symSize: 0x40 }
  - { offset: 0x4FC8B, size: 0x8, addend: 0x0, symName: __ZNSt3__122__compressed_pair_elemINS_9allocatorIcEELi1ELb1EEC2B8ne180100IRKS2_vEEOT_, symObjAddr: 0x22770, symBinAddr: 0x1000260E4, symSize: 0x18 }
  - { offset: 0x4FCEB, size: 0x8, addend: 0x0, symName: __ZNKSt3__113basic_istreamIcNS_11char_traitsIcEEE6sentrycvbB8ne180100Ev, symObjAddr: 0x22788, symBinAddr: 0x1000260FC, symSize: 0x1C }
  - { offset: 0x4FD11, size: 0x8, addend: 0x0, symName: __ZNSt3__112basic_stringIcNS_11char_traitsIcEENS_9allocatorIcEEE5clearB8ne180100Ev, symObjAddr: 0x227A4, symBinAddr: 0x100026118, symSize: 0x94 }
  - { offset: 0x4FD49, size: 0x8, addend: 0x0, symName: __ZNSt3__115basic_streambufIcNS_11char_traitsIcEEE6sbumpcB8ne180100Ev, symObjAddr: 0x22838, symBinAddr: 0x1000261AC, symSize: 0x78 }
  - { offset: 0x4FD6F, size: 0x8, addend: 0x0, symName: __ZNSt3__111char_traitsIcE12to_char_typeB8ne180100Ei, symObjAddr: 0x228B0, symBinAddr: 0x100026224, symSize: 0x18 }
  - { offset: 0x4FD94, size: 0x8, addend: 0x0, symName: __ZNSt3__111char_traitsIcE2eqEcc, symObjAddr: 0x228C8, symBinAddr: 0x10002623C, symSize: 0x28 }
  - { offset: 0x4FDC5, size: 0x8, addend: 0x0, symName: __ZNKSt3__112basic_stringIcNS_11char_traitsIcEENS_9allocatorIcEEE8max_sizeB8ne180100Ev, symObjAddr: 0x228F0, symBinAddr: 0x100026264, symSize: 0xAC }
  - { offset: 0x4FE1A, size: 0x8, addend: 0x0, symName: __ZNSt3__18ios_base18__setstate_nothrowB8ne180100Ej, symObjAddr: 0x2299C, symBinAddr: 0x100026310, symSize: 0x64 }
  - { offset: 0x4FE50, size: 0x8, addend: 0x0, symName: __ZNKSt3__19basic_iosIcNS_11char_traitsIcEEE10exceptionsB8ne180100Ev, symObjAddr: 0x22A00, symBinAddr: 0x100026374, symSize: 0x24 }
  - { offset: 0x4FE76, size: 0x8, addend: 0x0, symName: __ZNSt3__111char_traitsIcE6assignB8ne180100ERcRKc, symObjAddr: 0x22A24, symBinAddr: 0x100026398, symSize: 0x24 }
  - { offset: 0x4FEA7, size: 0x8, addend: 0x0, symName: __ZNSt3__112basic_stringIcNS_11char_traitsIcEENS_9allocatorIcEEE15__set_long_sizeB8ne180100Em, symObjAddr: 0x22A48, symBinAddr: 0x1000263BC, symSize: 0x38 }
  - { offset: 0x4FEDD, size: 0x8, addend: 0x0, symName: __ZNSt3__112basic_stringIcNS_11char_traitsIcEENS_9allocatorIcEEE16__set_short_sizeB8ne180100Em, symObjAddr: 0x22A80, symBinAddr: 0x1000263F4, symSize: 0x78 }
  - { offset: 0x4FF13, size: 0x8, addend: 0x0, symName: __ZNKSt3__112basic_stringIcNS_11char_traitsIcEENS_9allocatorIcEEE17__annotate_shrinkB8ne180100Em, symObjAddr: 0x22AF8, symBinAddr: 0x10002646C, symSize: 0x14 }
  - { offset: 0x4FF49, size: 0x8, addend: 0x0, symName: __ZNSt3__111char_traitsIcE11to_int_typeB8ne180100Ec, symObjAddr: 0x22B0C, symBinAddr: 0x100026480, symSize: 0x14 }
  - { offset: 0x4FF78, size: 0x8, addend: 0x0, symName: __ZNSt3__116allocator_traitsINS_9allocatorIcEEE8max_sizeB8ne180100IS2_vEEmRKS2_, symObjAddr: 0x22B20, symBinAddr: 0x100026494, symSize: 0x24 }
  - { offset: 0x4FFA7, size: 0x8, addend: 0x0, symName: __ZNSt3__114numeric_limitsImE3maxB8ne180100Ev, symObjAddr: 0x22B44, symBinAddr: 0x1000264B8, symSize: 0x14 }
  - { offset: 0x4FFBB, size: 0x8, addend: 0x0, symName: __ZNKSt3__19allocatorIcE8max_sizeB8ne180100Ev, symObjAddr: 0x22B58, symBinAddr: 0x1000264CC, symSize: 0x14 }
  - { offset: 0x4FFE1, size: 0x8, addend: 0x0, symName: __ZNSt3__123__libcpp_numeric_limitsImLb1EE3maxB8ne180100Ev, symObjAddr: 0x22B6C, symBinAddr: 0x1000264E0, symSize: 0x8 }
  - { offset: 0x4FFF5, size: 0x8, addend: 0x0, symName: __ZNKSt3__18ios_base10exceptionsB8ne180100Ev, symObjAddr: 0x22B74, symBinAddr: 0x1000264E8, symSize: 0x18 }
  - { offset: 0x5001D, size: 0x8, addend: 0x0, symName: __ZNSt3__19allocatorIcEC1B8ne180100Ev, symObjAddr: 0x22B8C, symBinAddr: 0x100026500, symSize: 0x2C }
  - { offset: 0x50047, size: 0x8, addend: 0x0, symName: __ZNSt3__16vectorINS_12basic_stringIcNS_11char_traitsIcEENS_9allocatorIcEEEENS4_IS6_EEE22__construct_one_at_endB8ne180100IJRKS6_EEEvDpOT_, symObjAddr: 0x22BB8, symBinAddr: 0x10002652C, symSize: 0x90 }
  - { offset: 0x50098, size: 0x8, addend: 0x0, symName: __ZNSt3__16vectorINS_12basic_stringIcNS_11char_traitsIcEENS_9allocatorIcEEEENS4_IS6_EEE21__push_back_slow_pathIRKS6_EEPS6_OT_, symObjAddr: 0x22C48, symBinAddr: 0x1000265BC, symSize: 0xE8 }
  - { offset: 0x500F9, size: 0x8, addend: 0x0, symName: __ZNSt3__114__split_bufferINS_12basic_stringIcNS_11char_traitsIcEENS_9allocatorIcEEEERNS4_IS6_EEEC1EmmS8_, symObjAddr: 0x22D30, symBinAddr: 0x1000266A4, symSize: 0x44 }
  - { offset: 0x5014F, size: 0x8, addend: 0x0, symName: __ZNSt3__114__split_bufferINS_12basic_stringIcNS_11char_traitsIcEENS_9allocatorIcEEEERNS4_IS6_EEED1Ev, symObjAddr: 0x22E84, symBinAddr: 0x1000267F8, symSize: 0x2C }
  - { offset: 0x5017B, size: 0x8, addend: 0x0, symName: __ZNSt3__114__split_bufferINS_12basic_stringIcNS_11char_traitsIcEENS_9allocatorIcEEEERNS4_IS6_EEEC2EmmS8_, symObjAddr: 0x22EB0, symBinAddr: 0x100026824, symSize: 0xE0 }
  - { offset: 0x501F0, size: 0x8, addend: 0x0, symName: __ZNSt3__117__compressed_pairIPNS_12basic_stringIcNS_11char_traitsIcEENS_9allocatorIcEEEERNS4_IS6_EEEC1B8ne180100IDnS9_EEOT_OT0_, symObjAddr: 0x22F90, symBinAddr: 0x100026904, symSize: 0x3C }
  - { offset: 0x50248, size: 0x8, addend: 0x0, symName: __ZNSt3__114__split_bufferINS_12basic_stringIcNS_11char_traitsIcEENS_9allocatorIcEEEERNS4_IS6_EEE7__allocB8ne180100Ev, symObjAddr: 0x22FCC, symBinAddr: 0x100026940, symSize: 0x28 }
  - { offset: 0x5026E, size: 0x8, addend: 0x0, symName: __ZNSt3__114__split_bufferINS_12basic_stringIcNS_11char_traitsIcEENS_9allocatorIcEEEERNS4_IS6_EEE9__end_capB8ne180100Ev, symObjAddr: 0x22FF4, symBinAddr: 0x100026968, symSize: 0x28 }
  - { offset: 0x50294, size: 0x8, addend: 0x0, symName: __ZNSt3__117__compressed_pairIPNS_12basic_stringIcNS_11char_traitsIcEENS_9allocatorIcEEEERNS4_IS6_EEEC2B8ne180100IDnS9_EEOT_OT0_, symObjAddr: 0x2301C, symBinAddr: 0x100026990, symSize: 0x48 }
  - { offset: 0x502EC, size: 0x8, addend: 0x0, symName: __ZNSt3__122__compressed_pair_elemIRNS_9allocatorINS_12basic_stringIcNS_11char_traitsIcEENS1_IcEEEEEELi1ELb0EEC2B8ne180100IS8_vEEOT_, symObjAddr: 0x23064, symBinAddr: 0x1000269D8, symSize: 0x20 }
  - { offset: 0x5032E, size: 0x8, addend: 0x0, symName: __ZNSt3__117__compressed_pairIPNS_12basic_stringIcNS_11char_traitsIcEENS_9allocatorIcEEEERNS4_IS6_EEE6secondB8ne180100Ev, symObjAddr: 0x23084, symBinAddr: 0x1000269F8, symSize: 0x28 }
  - { offset: 0x50354, size: 0x8, addend: 0x0, symName: __ZNSt3__122__compressed_pair_elemIRNS_9allocatorINS_12basic_stringIcNS_11char_traitsIcEENS1_IcEEEEEELi1ELb0EE5__getB8ne180100Ev, symObjAddr: 0x230AC, symBinAddr: 0x100026A20, symSize: 0x18 }
  - { offset: 0x5037A, size: 0x8, addend: 0x0, symName: __ZNSt3__117__compressed_pairIPNS_12basic_stringIcNS_11char_traitsIcEENS_9allocatorIcEEEERNS4_IS6_EEE5firstB8ne180100Ev, symObjAddr: 0x230C4, symBinAddr: 0x100026A38, symSize: 0x24 }
  - { offset: 0x503A0, size: 0x8, addend: 0x0, symName: __ZNSt3__129_AllocatorDestroyRangeReverseINS_9allocatorINS_12basic_stringIcNS_11char_traitsIcEENS1_IcEEEEEENS_16reverse_iteratorIPS6_EEEC1B8ne180100ERS7_RSA_SD_, symObjAddr: 0x2328C, symBinAddr: 0x100026C00, symSize: 0x44 }
  - { offset: 0x503FF, size: 0x8, addend: 0x0, symName: __ZNSt3__116allocator_traitsINS_9allocatorINS_12basic_stringIcNS_11char_traitsIcEENS1_IcEEEEEEE9constructB8ne180100IS6_JS6_EvEEvRS7_PT_DpOT0_, symObjAddr: 0x232D0, symBinAddr: 0x100026C44, symSize: 0x34 }
  - { offset: 0x50459, size: 0x8, addend: 0x0, symName: __ZNSt3__128__exception_guard_exceptionsINS_29_AllocatorDestroyRangeReverseINS_9allocatorINS_12basic_stringIcNS_11char_traitsIcEENS2_IcEEEEEENS_16reverse_iteratorIPS7_EEEEE10__completeB8ne180100Ev, symObjAddr: 0x23304, symBinAddr: 0x100026C78, symSize: 0x1C }
  - { offset: 0x5047F, size: 0x8, addend: 0x0, symName: __ZNSt3__128__exception_guard_exceptionsINS_29_AllocatorDestroyRangeReverseINS_9allocatorINS_12basic_stringIcNS_11char_traitsIcEENS2_IcEEEEEENS_16reverse_iteratorIPS7_EEEEED1B8ne180100Ev, symObjAddr: 0x23320, symBinAddr: 0x100026C94, symSize: 0x2C }
